   1              		.syntax unified
   2              		.cpu cortex-m4
   3              		.eabi_attribute 27, 3
   4              		.fpu fpv4-sp-d16
   5              		.eabi_attribute 20, 1
   6              		.eabi_attribute 21, 1
   7              		.eabi_attribute 23, 3
   8              		.eabi_attribute 24, 1
   9              		.eabi_attribute 25, 1
  10              		.eabi_attribute 26, 1
  11              		.eabi_attribute 30, 6
  12              		.eabi_attribute 34, 1
  13              		.eabi_attribute 18, 4
  14              		.thumb
  15              		.file	"ACANService.c"
  16              		.text
  17              	.Ltext0:
  18              		.cfi_sections	.debug_frame
  19              		.section	.text.setState,"ax",%progbits
  20              		.align	2
  21              		.thumb
  22              		.thumb_func
  24              	setState:
  25              	.LFB0:
  26              		.file 1 "C:/data/workspaces/github/de.protos.demos/src/HexagonCANDemo/etrice.HexagonCANDemo.demo/s
   1:C:/data/workspaces/github/de.protos.demos/src/HexagonCANDemo/etrice.HexagonCANDemo.demo/src-gen-st/room/basic/service/can\ACANService.c **** /**
   2:C:/data/workspaces/github/de.protos.demos/src/HexagonCANDemo/etrice.HexagonCANDemo.demo/src-gen-st/room/basic/service/can\ACANService.c ****  * @author generated by eTrice
   3:C:/data/workspaces/github/de.protos.demos/src/HexagonCANDemo/etrice.HexagonCANDemo.demo/src-gen-st/room/basic/service/can\ACANService.c ****  *
   4:C:/data/workspaces/github/de.protos.demos/src/HexagonCANDemo/etrice.HexagonCANDemo.demo/src-gen-st/room/basic/service/can\ACANService.c ****  * Source File of ActorClass ACANService
   5:C:/data/workspaces/github/de.protos.demos/src/HexagonCANDemo/etrice.HexagonCANDemo.demo/src-gen-st/room/basic/service/can\ACANService.c ****  * 
   6:C:/data/workspaces/github/de.protos.demos/src/HexagonCANDemo/etrice.HexagonCANDemo.demo/src-gen-st/room/basic/service/can\ACANService.c ****  */
   7:C:/data/workspaces/github/de.protos.demos/src/HexagonCANDemo/etrice.HexagonCANDemo.demo/src-gen-st/room/basic/service/can\ACANService.c **** 
   8:C:/data/workspaces/github/de.protos.demos/src/HexagonCANDemo/etrice.HexagonCANDemo.demo/src-gen-st/room/basic/service/can\ACANService.c **** #include "ACANService.h"
   9:C:/data/workspaces/github/de.protos.demos/src/HexagonCANDemo/etrice.HexagonCANDemo.demo/src-gen-st/room/basic/service/can\ACANService.c **** 
  10:C:/data/workspaces/github/de.protos.demos/src/HexagonCANDemo/etrice.HexagonCANDemo.demo/src-gen-st/room/basic/service/can\ACANService.c **** #include "modelbase/etActor.h"
  11:C:/data/workspaces/github/de.protos.demos/src/HexagonCANDemo/etrice.HexagonCANDemo.demo/src-gen-st/room/basic/service/can\ACANService.c **** #include "debugging/etLogger.h"
  12:C:/data/workspaces/github/de.protos.demos/src/HexagonCANDemo/etrice.HexagonCANDemo.demo/src-gen-st/room/basic/service/can\ACANService.c **** #include "debugging/etMSCLogger.h"
  13:C:/data/workspaces/github/de.protos.demos/src/HexagonCANDemo/etrice.HexagonCANDemo.demo/src-gen-st/room/basic/service/can\ACANService.c **** #include "etUnit/etUnit.h"
  14:C:/data/workspaces/github/de.protos.demos/src/HexagonCANDemo/etrice.HexagonCANDemo.demo/src-gen-st/room/basic/service/can\ACANService.c **** #include "base/etMemory.h"
  15:C:/data/workspaces/github/de.protos.demos/src/HexagonCANDemo/etrice.HexagonCANDemo.demo/src-gen-st/room/basic/service/can\ACANService.c **** 
  16:C:/data/workspaces/github/de.protos.demos/src/HexagonCANDemo/etrice.HexagonCANDemo.demo/src-gen-st/room/basic/service/can\ACANService.c **** #include "room/basic/service/can/PCANRx.h"
  17:C:/data/workspaces/github/de.protos.demos/src/HexagonCANDemo/etrice.HexagonCANDemo.demo/src-gen-st/room/basic/service/can\ACANService.c **** #include "room/basic/service/can/PCANTx.h"
  18:C:/data/workspaces/github/de.protos.demos/src/HexagonCANDemo/etrice.HexagonCANDemo.demo/src-gen-st/room/basic/service/can\ACANService.c **** #include "room/basic/service/timing/PTimer.h"
  19:C:/data/workspaces/github/de.protos.demos/src/HexagonCANDemo/etrice.HexagonCANDemo.demo/src-gen-st/room/basic/service/can\ACANService.c **** 
  20:C:/data/workspaces/github/de.protos.demos/src/HexagonCANDemo/etrice.HexagonCANDemo.demo/src-gen-st/room/basic/service/can\ACANService.c **** #include "ACANService_Utils.h"
  21:C:/data/workspaces/github/de.protos.demos/src/HexagonCANDemo/etrice.HexagonCANDemo.demo/src-gen-st/room/basic/service/can\ACANService.c **** 
  22:C:/data/workspaces/github/de.protos.demos/src/HexagonCANDemo/etrice.HexagonCANDemo.demo/src-gen-st/room/basic/service/can\ACANService.c **** /*--------------------- begin user code ---------------------*/
  23:C:/data/workspaces/github/de.protos.demos/src/HexagonCANDemo/etrice.HexagonCANDemo.demo/src-gen-st/room/basic/service/can\ACANService.c **** /*uc3 */
  24:C:/data/workspaces/github/de.protos.demos/src/HexagonCANDemo/etrice.HexagonCANDemo.demo/src-gen-st/room/basic/service/can\ACANService.c **** #include "pclCANService.h"
  25:C:/data/workspaces/github/de.protos.demos/src/HexagonCANDemo/etrice.HexagonCANDemo.demo/src-gen-st/room/basic/service/can\ACANService.c **** /*--------------------- end user code ---------------------*/
  26:C:/data/workspaces/github/de.protos.demos/src/HexagonCANDemo/etrice.HexagonCANDemo.demo/src-gen-st/room/basic/service/can\ACANService.c **** 
  27:C:/data/workspaces/github/de.protos.demos/src/HexagonCANDemo/etrice.HexagonCANDemo.demo/src-gen-st/room/basic/service/can\ACANService.c **** /* interface item IDs */
  28:C:/data/workspaces/github/de.protos.demos/src/HexagonCANDemo/etrice.HexagonCANDemo.demo/src-gen-st/room/basic/service/can\ACANService.c **** enum interface_items {
  29:C:/data/workspaces/github/de.protos.demos/src/HexagonCANDemo/etrice.HexagonCANDemo.demo/src-gen-st/room/basic/service/can\ACANService.c **** 	IFITEM_timer = 1,
  30:C:/data/workspaces/github/de.protos.demos/src/HexagonCANDemo/etrice.HexagonCANDemo.demo/src-gen-st/room/basic/service/can\ACANService.c **** 	IFITEM_canTx = 2,
  31:C:/data/workspaces/github/de.protos.demos/src/HexagonCANDemo/etrice.HexagonCANDemo.demo/src-gen-st/room/basic/service/can\ACANService.c **** 	IFITEM_canRx = 3
  32:C:/data/workspaces/github/de.protos.demos/src/HexagonCANDemo/etrice.HexagonCANDemo.demo/src-gen-st/room/basic/service/can\ACANService.c **** };
  33:C:/data/workspaces/github/de.protos.demos/src/HexagonCANDemo/etrice.HexagonCANDemo.demo/src-gen-st/room/basic/service/can\ACANService.c **** 
  34:C:/data/workspaces/github/de.protos.demos/src/HexagonCANDemo/etrice.HexagonCANDemo.demo/src-gen-st/room/basic/service/can\ACANService.c **** /* state IDs */
  35:C:/data/workspaces/github/de.protos.demos/src/HexagonCANDemo/etrice.HexagonCANDemo.demo/src-gen-st/room/basic/service/can\ACANService.c **** enum state_ids {
  36:C:/data/workspaces/github/de.protos.demos/src/HexagonCANDemo/etrice.HexagonCANDemo.demo/src-gen-st/room/basic/service/can\ACANService.c **** 	NO_STATE = 0,
  37:C:/data/workspaces/github/de.protos.demos/src/HexagonCANDemo/etrice.HexagonCANDemo.demo/src-gen-st/room/basic/service/can\ACANService.c **** 	STATE_TOP = 1,
  38:C:/data/workspaces/github/de.protos.demos/src/HexagonCANDemo/etrice.HexagonCANDemo.demo/src-gen-st/room/basic/service/can\ACANService.c **** 	STATE_Operational = 2,
  39:C:/data/workspaces/github/de.protos.demos/src/HexagonCANDemo/etrice.HexagonCANDemo.demo/src-gen-st/room/basic/service/can\ACANService.c **** 	STATE_MAX = 3
  40:C:/data/workspaces/github/de.protos.demos/src/HexagonCANDemo/etrice.HexagonCANDemo.demo/src-gen-st/room/basic/service/can\ACANService.c **** };
  41:C:/data/workspaces/github/de.protos.demos/src/HexagonCANDemo/etrice.HexagonCANDemo.demo/src-gen-st/room/basic/service/can\ACANService.c **** 
  42:C:/data/workspaces/github/de.protos.demos/src/HexagonCANDemo/etrice.HexagonCANDemo.demo/src-gen-st/room/basic/service/can\ACANService.c **** /* transition chains */
  43:C:/data/workspaces/github/de.protos.demos/src/HexagonCANDemo/etrice.HexagonCANDemo.demo/src-gen-st/room/basic/service/can\ACANService.c **** enum chain_ids {
  44:C:/data/workspaces/github/de.protos.demos/src/HexagonCANDemo/etrice.HexagonCANDemo.demo/src-gen-st/room/basic/service/can\ACANService.c **** 	CHAIN_TRANS_INITIAL_TO__Operational = 1,
  45:C:/data/workspaces/github/de.protos.demos/src/HexagonCANDemo/etrice.HexagonCANDemo.demo/src-gen-st/room/basic/service/can\ACANService.c **** 	CHAIN_TRANS_tr0_FROM_Operational_TO_Operational_BY_sendMsgcanTx_tr0 = 2,
  46:C:/data/workspaces/github/de.protos.demos/src/HexagonCANDemo/etrice.HexagonCANDemo.demo/src-gen-st/room/basic/service/can\ACANService.c **** 	CHAIN_TRANS_tr1_FROM_Operational_TO_Operational_BY_initcanTx_tr1 = 3,
  47:C:/data/workspaces/github/de.protos.demos/src/HexagonCANDemo/etrice.HexagonCANDemo.demo/src-gen-st/room/basic/service/can\ACANService.c **** 	CHAIN_TRANS_tr2_FROM_Operational_TO_Operational_BY_initcanRx_tr2 = 4,
  48:C:/data/workspaces/github/de.protos.demos/src/HexagonCANDemo/etrice.HexagonCANDemo.demo/src-gen-st/room/basic/service/can\ACANService.c **** 	CHAIN_TRANS_tr3_FROM_Operational_TO_Operational_BY_timeouttimer_tr3 = 5,
  49:C:/data/workspaces/github/de.protos.demos/src/HexagonCANDemo/etrice.HexagonCANDemo.demo/src-gen-st/room/basic/service/can\ACANService.c **** 	CHAIN_TRANS_tr4_FROM_Operational_TO_Operational_BY_listenOnMsgcanRx_tr4 = 6
  50:C:/data/workspaces/github/de.protos.demos/src/HexagonCANDemo/etrice.HexagonCANDemo.demo/src-gen-st/room/basic/service/can\ACANService.c **** };
  51:C:/data/workspaces/github/de.protos.demos/src/HexagonCANDemo/etrice.HexagonCANDemo.demo/src-gen-st/room/basic/service/can\ACANService.c **** 
  52:C:/data/workspaces/github/de.protos.demos/src/HexagonCANDemo/etrice.HexagonCANDemo.demo/src-gen-st/room/basic/service/can\ACANService.c **** /* triggers */
  53:C:/data/workspaces/github/de.protos.demos/src/HexagonCANDemo/etrice.HexagonCANDemo.demo/src-gen-st/room/basic/service/can\ACANService.c **** enum triggers {
  54:C:/data/workspaces/github/de.protos.demos/src/HexagonCANDemo/etrice.HexagonCANDemo.demo/src-gen-st/room/basic/service/can\ACANService.c **** 	POLLING = 0,
  55:C:/data/workspaces/github/de.protos.demos/src/HexagonCANDemo/etrice.HexagonCANDemo.demo/src-gen-st/room/basic/service/can\ACANService.c **** 	TRIG_timer__timeout = IFITEM_timer + EVT_SHIFT*PTimer_OUT_timeout,
  56:C:/data/workspaces/github/de.protos.demos/src/HexagonCANDemo/etrice.HexagonCANDemo.demo/src-gen-st/room/basic/service/can\ACANService.c **** 	TRIG_canTx__init = IFITEM_canTx + EVT_SHIFT*PCANTx_IN_init,
  57:C:/data/workspaces/github/de.protos.demos/src/HexagonCANDemo/etrice.HexagonCANDemo.demo/src-gen-st/room/basic/service/can\ACANService.c **** 	TRIG_canTx__sendMsg = IFITEM_canTx + EVT_SHIFT*PCANTx_IN_sendMsg,
  58:C:/data/workspaces/github/de.protos.demos/src/HexagonCANDemo/etrice.HexagonCANDemo.demo/src-gen-st/room/basic/service/can\ACANService.c **** 	TRIG_canTx__resendMsg = IFITEM_canTx + EVT_SHIFT*PCANTx_IN_resendMsg,
  59:C:/data/workspaces/github/de.protos.demos/src/HexagonCANDemo/etrice.HexagonCANDemo.demo/src-gen-st/room/basic/service/can\ACANService.c **** 	TRIG_canRx__init = IFITEM_canRx + EVT_SHIFT*PCANRx_IN_init,
  60:C:/data/workspaces/github/de.protos.demos/src/HexagonCANDemo/etrice.HexagonCANDemo.demo/src-gen-st/room/basic/service/can\ACANService.c **** 	TRIG_canRx__readMsg = IFITEM_canRx + EVT_SHIFT*PCANRx_IN_readMsg,
  61:C:/data/workspaces/github/de.protos.demos/src/HexagonCANDemo/etrice.HexagonCANDemo.demo/src-gen-st/room/basic/service/can\ACANService.c **** 	TRIG_canRx__listenOnMsg = IFITEM_canRx + EVT_SHIFT*PCANRx_IN_listenOnMsg,
  62:C:/data/workspaces/github/de.protos.demos/src/HexagonCANDemo/etrice.HexagonCANDemo.demo/src-gen-st/room/basic/service/can\ACANService.c **** 	TRIG_canRx__transmitRequest = IFITEM_canRx + EVT_SHIFT*PCANRx_IN_transmitRequest
  63:C:/data/workspaces/github/de.protos.demos/src/HexagonCANDemo/etrice.HexagonCANDemo.demo/src-gen-st/room/basic/service/can\ACANService.c **** };
  64:C:/data/workspaces/github/de.protos.demos/src/HexagonCANDemo/etrice.HexagonCANDemo.demo/src-gen-st/room/basic/service/can\ACANService.c **** 
  65:C:/data/workspaces/github/de.protos.demos/src/HexagonCANDemo/etrice.HexagonCANDemo.demo/src-gen-st/room/basic/service/can\ACANService.c **** 
  66:C:/data/workspaces/github/de.protos.demos/src/HexagonCANDemo/etrice.HexagonCANDemo.demo/src-gen-st/room/basic/service/can\ACANService.c **** static void setState(ACANService* self, etInt16 new_state) {
  27              		.loc 1 66 0
  28              		.cfi_startproc
  29              		@ args = 0, pretend = 0, frame = 8
  30              		@ frame_needed = 1, uses_anonymous_args = 0
  31              		@ link register save eliminated.
  32 0000 80B4     		push	{r7}
  33              	.LCFI0:
  34              		.cfi_def_cfa_offset 4
  35              		.cfi_offset 7, -4
  36 0002 83B0     		sub	sp, sp, #12
  37              	.LCFI1:
  38              		.cfi_def_cfa_offset 16
  39 0004 00AF     		add	r7, sp, #0
  40              	.LCFI2:
  41              		.cfi_def_cfa_register 7
  42 0006 7860     		str	r0, [r7, #4]
  43 0008 0B46     		mov	r3, r1
  44 000a 7B80     		strh	r3, [r7, #2]	@ movhi
  67:C:/data/workspaces/github/de.protos.demos/src/HexagonCANDemo/etrice.HexagonCANDemo.demo/src-gen-st/room/basic/service/can\ACANService.c **** 	self->state = new_state;
  45              		.loc 1 67 0
  46 000c 7B68     		ldr	r3, [r7, #4]
  47 000e 7A88     		ldrh	r2, [r7, #2]	@ movhi
  48 0010 A3F85820 		strh	r2, [r3, #88]	@ movhi
  68:C:/data/workspaces/github/de.protos.demos/src/HexagonCANDemo/etrice.HexagonCANDemo.demo/src-gen-st/room/basic/service/can\ACANService.c **** }
  49              		.loc 1 68 0
  50 0014 07F10C07 		add	r7, r7, #12
  51 0018 BD46     		mov	sp, r7
  52 001a 80BC     		pop	{r7}
  53 001c 7047     		bx	lr
  54              		.cfi_endproc
  55              	.LFE0:
  57 001e 00BF     		.section	.text.getState,"ax",%progbits
  58              		.align	2
  59              		.thumb
  60              		.thumb_func
  62              	getState:
  63              	.LFB1:
  69:C:/data/workspaces/github/de.protos.demos/src/HexagonCANDemo/etrice.HexagonCANDemo.demo/src-gen-st/room/basic/service/can\ACANService.c **** 
  70:C:/data/workspaces/github/de.protos.demos/src/HexagonCANDemo/etrice.HexagonCANDemo.demo/src-gen-st/room/basic/service/can\ACANService.c **** static etInt16 getState(ACANService* self) {
  64              		.loc 1 70 0
  65              		.cfi_startproc
  66              		@ args = 0, pretend = 0, frame = 8
  67              		@ frame_needed = 1, uses_anonymous_args = 0
  68              		@ link register save eliminated.
  69 0000 80B4     		push	{r7}
  70              	.LCFI3:
  71              		.cfi_def_cfa_offset 4
  72              		.cfi_offset 7, -4
  73 0002 83B0     		sub	sp, sp, #12
  74              	.LCFI4:
  75              		.cfi_def_cfa_offset 16
  76 0004 00AF     		add	r7, sp, #0
  77              	.LCFI5:
  78              		.cfi_def_cfa_register 7
  79 0006 7860     		str	r0, [r7, #4]
  71:C:/data/workspaces/github/de.protos.demos/src/HexagonCANDemo/etrice.HexagonCANDemo.demo/src-gen-st/room/basic/service/can\ACANService.c **** 	return self->state;
  80              		.loc 1 71 0
  81 0008 7B68     		ldr	r3, [r7, #4]
  82 000a B3F85830 		ldrh	r3, [r3, #88]
  83 000e 1BB2     		sxth	r3, r3
  72:C:/data/workspaces/github/de.protos.demos/src/HexagonCANDemo/etrice.HexagonCANDemo.demo/src-gen-st/room/basic/service/can\ACANService.c **** }
  84              		.loc 1 72 0
  85 0010 1846     		mov	r0, r3
  86 0012 07F10C07 		add	r7, r7, #12
  87 0016 BD46     		mov	sp, r7
  88 0018 80BC     		pop	{r7}
  89 001a 7047     		bx	lr
  90              		.cfi_endproc
  91              	.LFE1:
  93              		.section	.text.action_TRANS_INITIAL_TO__Operational,"ax",%progbits
  94              		.align	2
  95              		.thumb
  96              		.thumb_func
  98              	action_TRANS_INITIAL_TO__Operational:
  99              	.LFB2:
  73:C:/data/workspaces/github/de.protos.demos/src/HexagonCANDemo/etrice.HexagonCANDemo.demo/src-gen-st/room/basic/service/can\ACANService.c **** 
  74:C:/data/workspaces/github/de.protos.demos/src/HexagonCANDemo/etrice.HexagonCANDemo.demo/src-gen-st/room/basic/service/can\ACANService.c **** /* Entry and Exit Codes */
  75:C:/data/workspaces/github/de.protos.demos/src/HexagonCANDemo/etrice.HexagonCANDemo.demo/src-gen-st/room/basic/service/can\ACANService.c **** 
  76:C:/data/workspaces/github/de.protos.demos/src/HexagonCANDemo/etrice.HexagonCANDemo.demo/src-gen-st/room/basic/service/can\ACANService.c **** /* Action Codes */
  77:C:/data/workspaces/github/de.protos.demos/src/HexagonCANDemo/etrice.HexagonCANDemo.demo/src-gen-st/room/basic/service/can\ACANService.c **** static void action_TRANS_INITIAL_TO__Operational(ACANService* self) {
 100              		.loc 1 77 0
 101              		.cfi_startproc
 102              		@ args = 0, pretend = 0, frame = 8
 103              		@ frame_needed = 1, uses_anonymous_args = 0
 104 0000 80B5     		push	{r7, lr}
 105              	.LCFI6:
 106              		.cfi_def_cfa_offset 8
 107              		.cfi_offset 7, -8
 108              		.cfi_offset 14, -4
 109 0002 82B0     		sub	sp, sp, #8
 110              	.LCFI7:
 111              		.cfi_def_cfa_offset 16
 112 0004 00AF     		add	r7, sp, #0
 113              	.LCFI8:
 114              		.cfi_def_cfa_register 7
 115 0006 7860     		str	r0, [r7, #4]
  78:C:/data/workspaces/github/de.protos.demos/src/HexagonCANDemo/etrice.HexagonCANDemo.demo/src-gen-st/room/basic/service/can\ACANService.c **** 	pclCANInitNodes();
 116              		.loc 1 78 0
 117 0008 FFF7FEFF 		bl	pclCANInitNodes
  79:C:/data/workspaces/github/de.protos.demos/src/HexagonCANDemo/etrice.HexagonCANDemo.demo/src-gen-st/room/basic/service/can\ACANService.c **** 	timer_startTimer(pollTime);
 118              		.loc 1 79 0
 119 000c 7B68     		ldr	r3, [r7, #4]
 120 000e 1B68     		ldr	r3, [r3, #0]
 121 0010 1A46     		mov	r2, r3
 122 0012 7B68     		ldr	r3, [r7, #4]
 123 0014 5B6D     		ldr	r3, [r3, #84]
 124 0016 1046     		mov	r0, r2
 125 0018 1946     		mov	r1, r3
 126 001a FFF7FEFF 		bl	PTimerConjPort_startTimer
  80:C:/data/workspaces/github/de.protos.demos/src/HexagonCANDemo/etrice.HexagonCANDemo.demo/src-gen-st/room/basic/service/can\ACANService.c **** }
 127              		.loc 1 80 0
 128 001e 07F10807 		add	r7, r7, #8
 129 0022 BD46     		mov	sp, r7
 130 0024 80BD     		pop	{r7, pc}
 131              		.cfi_endproc
 132              	.LFE2:
 134 0026 00BF     		.section	.text.action_TRANS_tr0_FROM_Operational_TO_Operational_BY_sendMsgcanTx_tr0,"ax",%progbits
 135              		.align	2
 136              		.thumb
 137              		.thumb_func
 139              	action_TRANS_tr0_FROM_Operational_TO_Operational_BY_sendMsgcanTx_tr0:
 140              	.LFB3:
  81:C:/data/workspaces/github/de.protos.demos/src/HexagonCANDemo/etrice.HexagonCANDemo.demo/src-gen-st/room/basic/service/can\ACANService.c **** static void action_TRANS_tr0_FROM_Operational_TO_Operational_BY_sendMsgcanTx_tr0(ACANService* self,
 141              		.loc 1 81 0
 142              		.cfi_startproc
 143              		@ args = 0, pretend = 0, frame = 24
 144              		@ frame_needed = 1, uses_anonymous_args = 0
 145 0000 80B5     		push	{r7, lr}
 146              	.LCFI9:
 147              		.cfi_def_cfa_offset 8
 148              		.cfi_offset 7, -8
 149              		.cfi_offset 14, -4
 150 0002 86B0     		sub	sp, sp, #24
 151              	.LCFI10:
 152              		.cfi_def_cfa_offset 32
 153 0004 00AF     		add	r7, sp, #0
 154              	.LCFI11:
 155              		.cfi_def_cfa_register 7
 156 0006 F860     		str	r0, [r7, #12]
 157 0008 B960     		str	r1, [r7, #8]
 158 000a 7A60     		str	r2, [r7, #4]
  82:C:/data/workspaces/github/de.protos.demos/src/HexagonCANDemo/etrice.HexagonCANDemo.demo/src-gen-st/room/basic/service/can\ACANService.c **** 	uint32 c;
  83:C:/data/workspaces/github/de.protos.demos/src/HexagonCANDemo/etrice.HexagonCANDemo.demo/src-gen-st/room/basic/service/can\ACANService.c **** 	
  84:C:/data/workspaces/github/de.protos.demos/src/HexagonCANDemo/etrice.HexagonCANDemo.demo/src-gen-st/room/basic/service/can\ACANService.c **** 	c =txData[((etReplSubPort*)ifitem)->index].channel;
 159              		.loc 1 84 0
 160 000c BB68     		ldr	r3, [r7, #8]
 161 000e 1B7B     		ldrb	r3, [r3, #12]	@ zero_extendqisi2
 162 0010 FA68     		ldr	r2, [r7, #12]
 163 0012 03F10A03 		add	r3, r3, #10
 164 0016 4FEA8303 		lsl	r3, r3, #2
 165 001a D318     		adds	r3, r2, r3
 166 001c 5B68     		ldr	r3, [r3, #4]
 167 001e 7B61     		str	r3, [r7, #20]
  85:C:/data/workspaces/github/de.protos.demos/src/HexagonCANDemo/etrice.HexagonCANDemo.demo/src-gen-st/room/basic/service/can\ACANService.c **** 	pclCANSendMsg(c,data);
 168              		.loc 1 85 0
 169 0020 7869     		ldr	r0, [r7, #20]
 170 0022 7968     		ldr	r1, [r7, #4]
 171 0024 FFF7FEFF 		bl	pclCANSendMsg
  86:C:/data/workspaces/github/de.protos.demos/src/HexagonCANDemo/etrice.HexagonCANDemo.demo/src-gen-st/room/basic/service/can\ACANService.c **** }
 172              		.loc 1 86 0
 173 0028 07F11807 		add	r7, r7, #24
 174 002c BD46     		mov	sp, r7
 175 002e 80BD     		pop	{r7, pc}
 176              		.cfi_endproc
 177              	.LFE3:
 179              		.section	.text.action_TRANS_tr1_FROM_Operational_TO_Operational_BY_initcanTx_tr1,"ax",%progbits
 180              		.align	2
 181              		.thumb
 182              		.thumb_func
 184              	action_TRANS_tr1_FROM_Operational_TO_Operational_BY_initcanTx_tr1:
 185              	.LFB4:
  87:C:/data/workspaces/github/de.protos.demos/src/HexagonCANDemo/etrice.HexagonCANDemo.demo/src-gen-st/room/basic/service/can\ACANService.c **** static void action_TRANS_tr1_FROM_Operational_TO_Operational_BY_initcanTx_tr1(ACANService* self, co
 186              		.loc 1 87 0
 187              		.cfi_startproc
 188              		@ args = 0, pretend = 0, frame = 16
 189              		@ frame_needed = 1, uses_anonymous_args = 0
 190 0000 80B5     		push	{r7, lr}
 191              	.LCFI12:
 192              		.cfi_def_cfa_offset 8
 193              		.cfi_offset 7, -8
 194              		.cfi_offset 14, -4
 195 0002 84B0     		sub	sp, sp, #16
 196              	.LCFI13:
 197              		.cfi_def_cfa_offset 24
 198 0004 00AF     		add	r7, sp, #0
 199              	.LCFI14:
 200              		.cfi_def_cfa_register 7
 201 0006 F860     		str	r0, [r7, #12]
 202 0008 B960     		str	r1, [r7, #8]
 203 000a 7A60     		str	r2, [r7, #4]
  88:C:/data/workspaces/github/de.protos.demos/src/HexagonCANDemo/etrice.HexagonCANDemo.demo/src-gen-st/room/basic/service/can\ACANService.c **** 	txData[((etReplSubPort*)ifitem)->index].channel = data;
 204              		.loc 1 88 0
 205 000c BB68     		ldr	r3, [r7, #8]
 206 000e 1B7B     		ldrb	r3, [r3, #12]	@ zero_extendqisi2
 207 0010 FA68     		ldr	r2, [r7, #12]
 208 0012 03F10A03 		add	r3, r3, #10
 209 0016 4FEA8303 		lsl	r3, r3, #2
 210 001a D318     		adds	r3, r2, r3
 211 001c 7A68     		ldr	r2, [r7, #4]
 212 001e 5A60     		str	r2, [r3, #4]
  89:C:/data/workspaces/github/de.protos.demos/src/HexagonCANDemo/etrice.HexagonCANDemo.demo/src-gen-st/room/basic/service/can\ACANService.c **** 	pclCANInitMO(data);
 213              		.loc 1 89 0
 214 0020 7868     		ldr	r0, [r7, #4]
 215 0022 FFF7FEFF 		bl	pclCANInitMO
  90:C:/data/workspaces/github/de.protos.demos/src/HexagonCANDemo/etrice.HexagonCANDemo.demo/src-gen-st/room/basic/service/can\ACANService.c **** }
 216              		.loc 1 90 0
 217 0026 07F11007 		add	r7, r7, #16
 218 002a BD46     		mov	sp, r7
 219 002c 80BD     		pop	{r7, pc}
 220              		.cfi_endproc
 221              	.LFE4:
 223 002e 00BF     		.section	.text.action_TRANS_tr2_FROM_Operational_TO_Operational_BY_initcanRx_tr2,"ax",%progbits
 224              		.align	2
 225              		.thumb
 226              		.thumb_func
 228              	action_TRANS_tr2_FROM_Operational_TO_Operational_BY_initcanRx_tr2:
 229              	.LFB5:
  91:C:/data/workspaces/github/de.protos.demos/src/HexagonCANDemo/etrice.HexagonCANDemo.demo/src-gen-st/room/basic/service/can\ACANService.c **** static void action_TRANS_tr2_FROM_Operational_TO_Operational_BY_initcanRx_tr2(ACANService* self, co
 230              		.loc 1 91 0
 231              		.cfi_startproc
 232              		@ args = 0, pretend = 0, frame = 16
 233              		@ frame_needed = 1, uses_anonymous_args = 0
 234 0000 80B5     		push	{r7, lr}
 235              	.LCFI15:
 236              		.cfi_def_cfa_offset 8
 237              		.cfi_offset 7, -8
 238              		.cfi_offset 14, -4
 239 0002 84B0     		sub	sp, sp, #16
 240              	.LCFI16:
 241              		.cfi_def_cfa_offset 24
 242 0004 00AF     		add	r7, sp, #0
 243              	.LCFI17:
 244              		.cfi_def_cfa_register 7
 245 0006 F860     		str	r0, [r7, #12]
 246 0008 B960     		str	r1, [r7, #8]
 247 000a 7A60     		str	r2, [r7, #4]
  92:C:/data/workspaces/github/de.protos.demos/src/HexagonCANDemo/etrice.HexagonCANDemo.demo/src-gen-st/room/basic/service/can\ACANService.c **** 	rxData[((etReplSubPort*)ifitem)->index].channel = data;
 248              		.loc 1 92 0
 249 000c BB68     		ldr	r3, [r7, #8]
 250 000e 1B7B     		ldrb	r3, [r3, #12]	@ zero_extendqisi2
 251 0010 FA68     		ldr	r2, [r7, #12]
 252 0012 4FEA8303 		lsl	r3, r3, #2
 253 0016 D318     		adds	r3, r2, r3
 254 0018 7A68     		ldr	r2, [r7, #4]
 255 001a 5A60     		str	r2, [r3, #4]
  93:C:/data/workspaces/github/de.protos.demos/src/HexagonCANDemo/etrice.HexagonCANDemo.demo/src-gen-st/room/basic/service/can\ACANService.c **** 	pclCANInitMO(data);
 256              		.loc 1 93 0
 257 001c 7868     		ldr	r0, [r7, #4]
 258 001e FFF7FEFF 		bl	pclCANInitMO
  94:C:/data/workspaces/github/de.protos.demos/src/HexagonCANDemo/etrice.HexagonCANDemo.demo/src-gen-st/room/basic/service/can\ACANService.c **** }
 259              		.loc 1 94 0
 260 0022 07F11007 		add	r7, r7, #16
 261 0026 BD46     		mov	sp, r7
 262 0028 80BD     		pop	{r7, pc}
 263              		.cfi_endproc
 264              	.LFE5:
 266 002a 00BF     		.section	.text.action_TRANS_tr3_FROM_Operational_TO_Operational_BY_timeouttimer_tr3,"ax",%progbits
 267              		.align	2
 268              		.thumb
 269              		.thumb_func
 271              	action_TRANS_tr3_FROM_Operational_TO_Operational_BY_timeouttimer_tr3:
 272              	.LFB6:
  95:C:/data/workspaces/github/de.protos.demos/src/HexagonCANDemo/etrice.HexagonCANDemo.demo/src-gen-st/room/basic/service/can\ACANService.c **** static void action_TRANS_tr3_FROM_Operational_TO_Operational_BY_timeouttimer_tr3(ACANService* self,
 273              		.loc 1 95 0
 274              		.cfi_startproc
 275              		@ args = 0, pretend = 0, frame = 8
 276              		@ frame_needed = 1, uses_anonymous_args = 0
 277 0000 80B5     		push	{r7, lr}
 278              	.LCFI18:
 279              		.cfi_def_cfa_offset 8
 280              		.cfi_offset 7, -8
 281              		.cfi_offset 14, -4
 282 0002 82B0     		sub	sp, sp, #8
 283              	.LCFI19:
 284              		.cfi_def_cfa_offset 16
 285 0004 00AF     		add	r7, sp, #0
 286              	.LCFI20:
 287              		.cfi_def_cfa_register 7
 288 0006 7860     		str	r0, [r7, #4]
 289 0008 3960     		str	r1, [r7, #0]
  96:C:/data/workspaces/github/de.protos.demos/src/HexagonCANDemo/etrice.HexagonCANDemo.demo/src-gen-st/room/basic/service/can\ACANService.c **** 	pollAllRxMsgs();
 290              		.loc 1 96 0
 291 000a 7868     		ldr	r0, [r7, #4]
 292 000c FFF7FEFF 		bl	ACANService_pollAllRxMsgs
  97:C:/data/workspaces/github/de.protos.demos/src/HexagonCANDemo/etrice.HexagonCANDemo.demo/src-gen-st/room/basic/service/can\ACANService.c **** }
 293              		.loc 1 97 0
 294 0010 07F10807 		add	r7, r7, #8
 295 0014 BD46     		mov	sp, r7
 296 0016 80BD     		pop	{r7, pc}
 297              		.cfi_endproc
 298              	.LFE6:
 300              		.section	.text.action_TRANS_tr4_FROM_Operational_TO_Operational_BY_listenOnMsgcanRx_tr4,"ax",%prog
 301              		.align	2
 302              		.thumb
 303              		.thumb_func
 305              	action_TRANS_tr4_FROM_Operational_TO_Operational_BY_listenOnMsgcanRx_tr4:
 306              	.LFB7:
  98:C:/data/workspaces/github/de.protos.demos/src/HexagonCANDemo/etrice.HexagonCANDemo.demo/src-gen-st/room/basic/service/can\ACANService.c **** static void action_TRANS_tr4_FROM_Operational_TO_Operational_BY_listenOnMsgcanRx_tr4(ACANService* s
 307              		.loc 1 98 0
 308              		.cfi_startproc
 309              		@ args = 0, pretend = 0, frame = 24
 310              		@ frame_needed = 1, uses_anonymous_args = 0
 311 0000 80B5     		push	{r7, lr}
 312              	.LCFI21:
 313              		.cfi_def_cfa_offset 8
 314              		.cfi_offset 7, -8
 315              		.cfi_offset 14, -4
 316 0002 86B0     		sub	sp, sp, #24
 317              	.LCFI22:
 318              		.cfi_def_cfa_offset 32
 319 0004 00AF     		add	r7, sp, #0
 320              	.LCFI23:
 321              		.cfi_def_cfa_register 7
 322 0006 F860     		str	r0, [r7, #12]
 323 0008 B960     		str	r1, [r7, #8]
 324 000a 7A60     		str	r2, [r7, #4]
  99:C:/data/workspaces/github/de.protos.demos/src/HexagonCANDemo/etrice.HexagonCANDemo.demo/src-gen-st/room/basic/service/can\ACANService.c **** 	uint32 c;
 100:C:/data/workspaces/github/de.protos.demos/src/HexagonCANDemo/etrice.HexagonCANDemo.demo/src-gen-st/room/basic/service/can\ACANService.c **** 	
 101:C:/data/workspaces/github/de.protos.demos/src/HexagonCANDemo/etrice.HexagonCANDemo.demo/src-gen-st/room/basic/service/can\ACANService.c **** 	c =rxData[((etReplSubPort*)ifitem)->index].channel;
 325              		.loc 1 101 0
 326 000c BB68     		ldr	r3, [r7, #8]
 327 000e 1B7B     		ldrb	r3, [r3, #12]	@ zero_extendqisi2
 328 0010 FA68     		ldr	r2, [r7, #12]
 329 0012 4FEA8303 		lsl	r3, r3, #2
 330 0016 D318     		adds	r3, r2, r3
 331 0018 5B68     		ldr	r3, [r3, #4]
 332 001a 7B61     		str	r3, [r7, #20]
 102:C:/data/workspaces/github/de.protos.demos/src/HexagonCANDemo/etrice.HexagonCANDemo.demo/src-gen-st/room/basic/service/can\ACANService.c **** 	pclCANListenOnMsg(c,data);
 333              		.loc 1 102 0
 334 001c 7869     		ldr	r0, [r7, #20]
 335 001e 7968     		ldr	r1, [r7, #4]
 336 0020 FFF7FEFF 		bl	pclCANListenOnMsg
 103:C:/data/workspaces/github/de.protos.demos/src/HexagonCANDemo/etrice.HexagonCANDemo.demo/src-gen-st/room/basic/service/can\ACANService.c **** }
 337              		.loc 1 103 0
 338 0024 07F11807 		add	r7, r7, #24
 339 0028 BD46     		mov	sp, r7
 340 002a 80BD     		pop	{r7, pc}
 341              		.cfi_endproc
 342              	.LFE7:
 344              		.section	.text.exitTo,"ax",%progbits
 345              		.align	2
 346              		.thumb
 347              		.thumb_func
 349              	exitTo:
 350              	.LFB8:
 104:C:/data/workspaces/github/de.protos.demos/src/HexagonCANDemo/etrice.HexagonCANDemo.demo/src-gen-st/room/basic/service/can\ACANService.c **** 
 105:C:/data/workspaces/github/de.protos.demos/src/HexagonCANDemo/etrice.HexagonCANDemo.demo/src-gen-st/room/basic/service/can\ACANService.c **** /**
 106:C:/data/workspaces/github/de.protos.demos/src/HexagonCANDemo/etrice.HexagonCANDemo.demo/src-gen-st/room/basic/service/can\ACANService.c ****  * calls exit codes while exiting from the current state to one of its
 107:C:/data/workspaces/github/de.protos.demos/src/HexagonCANDemo/etrice.HexagonCANDemo.demo/src-gen-st/room/basic/service/can\ACANService.c ****  * parent states while remembering the history
 108:C:/data/workspaces/github/de.protos.demos/src/HexagonCANDemo/etrice.HexagonCANDemo.demo/src-gen-st/room/basic/service/can\ACANService.c ****  * @param current__et - the current state
 109:C:/data/workspaces/github/de.protos.demos/src/HexagonCANDemo/etrice.HexagonCANDemo.demo/src-gen-st/room/basic/service/can\ACANService.c ****  * @param to - the final parent state
 110:C:/data/workspaces/github/de.protos.demos/src/HexagonCANDemo/etrice.HexagonCANDemo.demo/src-gen-st/room/basic/service/can\ACANService.c ****  */
 111:C:/data/workspaces/github/de.protos.demos/src/HexagonCANDemo/etrice.HexagonCANDemo.demo/src-gen-st/room/basic/service/can\ACANService.c **** static void exitTo(ACANService* self, etInt16 current__et, etInt16 to) {
 351              		.loc 1 111 0
 352              		.cfi_startproc
 353              		@ args = 0, pretend = 0, frame = 8
 354              		@ frame_needed = 1, uses_anonymous_args = 0
 355              		@ link register save eliminated.
 356 0000 80B4     		push	{r7}
 357              	.LCFI24:
 358              		.cfi_def_cfa_offset 4
 359              		.cfi_offset 7, -4
 360 0002 83B0     		sub	sp, sp, #12
 361              	.LCFI25:
 362              		.cfi_def_cfa_offset 16
 363 0004 00AF     		add	r7, sp, #0
 364              	.LCFI26:
 365              		.cfi_def_cfa_register 7
 366 0006 7860     		str	r0, [r7, #4]
 367 0008 1346     		mov	r3, r2
 368 000a 0A46     		mov	r2, r1	@ movhi
 369 000c 7A80     		strh	r2, [r7, #2]	@ movhi
 370 000e 3B80     		strh	r3, [r7, #0]	@ movhi
 112:C:/data/workspaces/github/de.protos.demos/src/HexagonCANDemo/etrice.HexagonCANDemo.demo/src-gen-st/room/basic/service/can\ACANService.c **** 	while (current__et!=to) {
 371              		.loc 1 112 0
 372 0010 0DE0     		b	.L11
 373              	.L14:
 113:C:/data/workspaces/github/de.protos.demos/src/HexagonCANDemo/etrice.HexagonCANDemo.demo/src-gen-st/room/basic/service/can\ACANService.c **** 		switch (current__et) {
 374              		.loc 1 113 0
 375 0012 B7F90230 		ldrsh	r3, [r7, #2]
 376 0016 022B     		cmp	r3, #2
 377 0018 08D1     		bne	.L15
 378              	.L13:
 114:C:/data/workspaces/github/de.protos.demos/src/HexagonCANDemo/etrice.HexagonCANDemo.demo/src-gen-st/room/basic/service/can\ACANService.c **** 			case STATE_Operational:
 115:C:/data/workspaces/github/de.protos.demos/src/HexagonCANDemo/etrice.HexagonCANDemo.demo/src-gen-st/room/basic/service/can\ACANService.c **** 				self->history[STATE_TOP] = STATE_Operational;
 379              		.loc 1 115 0
 380 001a 7B68     		ldr	r3, [r7, #4]
 381 001c 4FF00202 		mov	r2, #2
 382 0020 A3F85C20 		strh	r2, [r3, #92]	@ movhi
 116:C:/data/workspaces/github/de.protos.demos/src/HexagonCANDemo/etrice.HexagonCANDemo.demo/src-gen-st/room/basic/service/can\ACANService.c **** 				current__et = STATE_TOP;
 383              		.loc 1 116 0
 384 0024 4FF00103 		mov	r3, #1
 385 0028 7B80     		strh	r3, [r7, #2]	@ movhi
 117:C:/data/workspaces/github/de.protos.demos/src/HexagonCANDemo/etrice.HexagonCANDemo.demo/src-gen-st/room/basic/service/can\ACANService.c **** 				break;
 386              		.loc 1 117 0
 387 002a 00E0     		b	.L11
 388              	.L15:
 118:C:/data/workspaces/github/de.protos.demos/src/HexagonCANDemo/etrice.HexagonCANDemo.demo/src-gen-st/room/basic/service/can\ACANService.c **** 			default:
 119:C:/data/workspaces/github/de.protos.demos/src/HexagonCANDemo/etrice.HexagonCANDemo.demo/src-gen-st/room/basic/service/can\ACANService.c **** 				/* should not occur */
 120:C:/data/workspaces/github/de.protos.demos/src/HexagonCANDemo/etrice.HexagonCANDemo.demo/src-gen-st/room/basic/service/can\ACANService.c **** 				break;
 389              		.loc 1 120 0
 390 002c 00BF     		nop
 391              	.L11:
 112:C:/data/workspaces/github/de.protos.demos/src/HexagonCANDemo/etrice.HexagonCANDemo.demo/src-gen-st/room/basic/service/can\ACANService.c **** 	while (current__et!=to) {
 392              		.loc 1 112 0 discriminator 1
 393 002e B7F90220 		ldrsh	r2, [r7, #2]
 394 0032 B7F90030 		ldrsh	r3, [r7, #0]
 395 0036 9A42     		cmp	r2, r3
 396 0038 EBD1     		bne	.L14
 121:C:/data/workspaces/github/de.protos.demos/src/HexagonCANDemo/etrice.HexagonCANDemo.demo/src-gen-st/room/basic/service/can\ACANService.c **** 		}
 122:C:/data/workspaces/github/de.protos.demos/src/HexagonCANDemo/etrice.HexagonCANDemo.demo/src-gen-st/room/basic/service/can\ACANService.c **** 	}
 123:C:/data/workspaces/github/de.protos.demos/src/HexagonCANDemo/etrice.HexagonCANDemo.demo/src-gen-st/room/basic/service/can\ACANService.c **** }
 397              		.loc 1 123 0
 398 003a 07F10C07 		add	r7, r7, #12
 399 003e BD46     		mov	sp, r7
 400 0040 80BC     		pop	{r7}
 401 0042 7047     		bx	lr
 402              		.cfi_endproc
 403              	.LFE8:
 405              		.section	.text.executeTransitionChain,"ax",%progbits
 406              		.align	2
 407              		.thumb
 408              		.thumb_func
 410              	executeTransitionChain:
 411              	.LFB9:
 124:C:/data/workspaces/github/de.protos.demos/src/HexagonCANDemo/etrice.HexagonCANDemo.demo/src-gen-st/room/basic/service/can\ACANService.c **** 
 125:C:/data/workspaces/github/de.protos.demos/src/HexagonCANDemo/etrice.HexagonCANDemo.demo/src-gen-st/room/basic/service/can\ACANService.c **** /**
 126:C:/data/workspaces/github/de.protos.demos/src/HexagonCANDemo/etrice.HexagonCANDemo.demo/src-gen-st/room/basic/service/can\ACANService.c ****  * calls action, entry and exit codes along a transition chain. The generic data are cast to typed 
 127:C:/data/workspaces/github/de.protos.demos/src/HexagonCANDemo/etrice.HexagonCANDemo.demo/src-gen-st/room/basic/service/can\ACANService.c ****  * matching the trigger of this chain. The ID of the final state is returned
 128:C:/data/workspaces/github/de.protos.demos/src/HexagonCANDemo/etrice.HexagonCANDemo.demo/src-gen-st/room/basic/service/can\ACANService.c ****  * @param chain__et - the chain ID
 129:C:/data/workspaces/github/de.protos.demos/src/HexagonCANDemo/etrice.HexagonCANDemo.demo/src-gen-st/room/basic/service/can\ACANService.c ****  * @param generic_data__et - the generic data pointer
 130:C:/data/workspaces/github/de.protos.demos/src/HexagonCANDemo/etrice.HexagonCANDemo.demo/src-gen-st/room/basic/service/can\ACANService.c ****  * @return the +/- ID of the final state either with a positive sign, that indicates to execute the
 131:C:/data/workspaces/github/de.protos.demos/src/HexagonCANDemo/etrice.HexagonCANDemo.demo/src-gen-st/room/basic/service/can\ACANService.c ****  */
 132:C:/data/workspaces/github/de.protos.demos/src/HexagonCANDemo/etrice.HexagonCANDemo.demo/src-gen-st/room/basic/service/can\ACANService.c **** static etInt16 executeTransitionChain(ACANService* self, int chain__et, const InterfaceItemBase* if
 412              		.loc 1 132 0
 413              		.cfi_startproc
 414              		@ args = 0, pretend = 0, frame = 32
 415              		@ frame_needed = 1, uses_anonymous_args = 0
 416 0000 80B5     		push	{r7, lr}
 417              	.LCFI27:
 418              		.cfi_def_cfa_offset 8
 419              		.cfi_offset 7, -8
 420              		.cfi_offset 14, -4
 421 0002 88B0     		sub	sp, sp, #32
 422              	.LCFI28:
 423              		.cfi_def_cfa_offset 40
 424 0004 00AF     		add	r7, sp, #0
 425              	.LCFI29:
 426              		.cfi_def_cfa_register 7
 427 0006 F860     		str	r0, [r7, #12]
 428 0008 B960     		str	r1, [r7, #8]
 429 000a 7A60     		str	r2, [r7, #4]
 430 000c 3B60     		str	r3, [r7, #0]
 133:C:/data/workspaces/github/de.protos.demos/src/HexagonCANDemo/etrice.HexagonCANDemo.demo/src-gen-st/room/basic/service/can\ACANService.c **** 	switch (chain__et) {
 431              		.loc 1 133 0
 432 000e BB68     		ldr	r3, [r7, #8]
 433 0010 03F1FF33 		add	r3, r3, #-1
 434 0014 052B     		cmp	r3, #5
 435 0016 46D8     		bhi	.L27
 436 0018 01A2     		adr	r2, .L24
 437 001a 52F823F0 		ldr	pc, [r2, r3, lsl #2]
 438 001e 00BF     		.align	2
 439              	.L24:
 440 0020 39000000 		.word	.L18+1
 441 0024 45000000 		.word	.L19+1
 442 0028 59000000 		.word	.L20+1
 443 002c 6F000000 		.word	.L21+1
 444 0030 85000000 		.word	.L22+1
 445 0034 93000000 		.word	.L23+1
 446              	.L18:
 134:C:/data/workspaces/github/de.protos.demos/src/HexagonCANDemo/etrice.HexagonCANDemo.demo/src-gen-st/room/basic/service/can\ACANService.c **** 		case CHAIN_TRANS_INITIAL_TO__Operational:
 135:C:/data/workspaces/github/de.protos.demos/src/HexagonCANDemo/etrice.HexagonCANDemo.demo/src-gen-st/room/basic/service/can\ACANService.c **** 		{
 136:C:/data/workspaces/github/de.protos.demos/src/HexagonCANDemo/etrice.HexagonCANDemo.demo/src-gen-st/room/basic/service/can\ACANService.c **** 			action_TRANS_INITIAL_TO__Operational(self);
 447              		.loc 1 136 0
 448 0038 F868     		ldr	r0, [r7, #12]
 449 003a FFF7FEFF 		bl	action_TRANS_INITIAL_TO__Operational
 137:C:/data/workspaces/github/de.protos.demos/src/HexagonCANDemo/etrice.HexagonCANDemo.demo/src-gen-st/room/basic/service/can\ACANService.c **** 			return STATE_Operational;
 450              		.loc 1 137 0
 451 003e 4FF00203 		mov	r3, #2
 452 0042 33E0     		b	.L25
 453              	.L19:
 454              	.LBB2:
 138:C:/data/workspaces/github/de.protos.demos/src/HexagonCANDemo/etrice.HexagonCANDemo.demo/src-gen-st/room/basic/service/can\ACANService.c **** 		}
 139:C:/data/workspaces/github/de.protos.demos/src/HexagonCANDemo/etrice.HexagonCANDemo.demo/src-gen-st/room/basic/service/can\ACANService.c **** 		case CHAIN_TRANS_tr0_FROM_Operational_TO_Operational_BY_sendMsgcanTx_tr0:
 140:C:/data/workspaces/github/de.protos.demos/src/HexagonCANDemo/etrice.HexagonCANDemo.demo/src-gen-st/room/basic/service/can\ACANService.c **** 		{
 141:C:/data/workspaces/github/de.protos.demos/src/HexagonCANDemo/etrice.HexagonCANDemo.demo/src-gen-st/room/basic/service/can\ACANService.c **** 			pclCANMsg* data = ((pclCANMsg*) generic_data__et);
 455              		.loc 1 141 0
 456 0044 3B68     		ldr	r3, [r7, #0]
 457 0046 FB61     		str	r3, [r7, #28]
 142:C:/data/workspaces/github/de.protos.demos/src/HexagonCANDemo/etrice.HexagonCANDemo.demo/src-gen-st/room/basic/service/can\ACANService.c **** 			action_TRANS_tr0_FROM_Operational_TO_Operational_BY_sendMsgcanTx_tr0(self, ifitem, data);
 458              		.loc 1 142 0
 459 0048 F868     		ldr	r0, [r7, #12]
 460 004a 7968     		ldr	r1, [r7, #4]
 461 004c FA69     		ldr	r2, [r7, #28]
 462 004e FFF7FEFF 		bl	action_TRANS_tr0_FROM_Operational_TO_Operational_BY_sendMsgcanTx_tr0
 143:C:/data/workspaces/github/de.protos.demos/src/HexagonCANDemo/etrice.HexagonCANDemo.demo/src-gen-st/room/basic/service/can\ACANService.c **** 			return STATE_Operational;
 463              		.loc 1 143 0
 464 0052 4FF00203 		mov	r3, #2
 465 0056 29E0     		b	.L25
 466              	.L20:
 467              	.LBE2:
 468              	.LBB3:
 144:C:/data/workspaces/github/de.protos.demos/src/HexagonCANDemo/etrice.HexagonCANDemo.demo/src-gen-st/room/basic/service/can\ACANService.c **** 		}
 145:C:/data/workspaces/github/de.protos.demos/src/HexagonCANDemo/etrice.HexagonCANDemo.demo/src-gen-st/room/basic/service/can\ACANService.c **** 		case CHAIN_TRANS_tr1_FROM_Operational_TO_Operational_BY_initcanTx_tr1:
 146:C:/data/workspaces/github/de.protos.demos/src/HexagonCANDemo/etrice.HexagonCANDemo.demo/src-gen-st/room/basic/service/can\ACANService.c **** 		{
 147:C:/data/workspaces/github/de.protos.demos/src/HexagonCANDemo/etrice.HexagonCANDemo.demo/src-gen-st/room/basic/service/can\ACANService.c **** 			uint32 data = *((uint32*) generic_data__et);
 469              		.loc 1 147 0
 470 0058 3B68     		ldr	r3, [r7, #0]
 471 005a 1B68     		ldr	r3, [r3, #0]
 472 005c BB61     		str	r3, [r7, #24]
 148:C:/data/workspaces/github/de.protos.demos/src/HexagonCANDemo/etrice.HexagonCANDemo.demo/src-gen-st/room/basic/service/can\ACANService.c **** 			action_TRANS_tr1_FROM_Operational_TO_Operational_BY_initcanTx_tr1(self, ifitem, data);
 473              		.loc 1 148 0
 474 005e F868     		ldr	r0, [r7, #12]
 475 0060 7968     		ldr	r1, [r7, #4]
 476 0062 BA69     		ldr	r2, [r7, #24]
 477 0064 FFF7FEFF 		bl	action_TRANS_tr1_FROM_Operational_TO_Operational_BY_initcanTx_tr1
 149:C:/data/workspaces/github/de.protos.demos/src/HexagonCANDemo/etrice.HexagonCANDemo.demo/src-gen-st/room/basic/service/can\ACANService.c **** 			return STATE_Operational;
 478              		.loc 1 149 0
 479 0068 4FF00203 		mov	r3, #2
 480 006c 1EE0     		b	.L25
 481              	.L21:
 482              	.LBE3:
 483              	.LBB4:
 150:C:/data/workspaces/github/de.protos.demos/src/HexagonCANDemo/etrice.HexagonCANDemo.demo/src-gen-st/room/basic/service/can\ACANService.c **** 		}
 151:C:/data/workspaces/github/de.protos.demos/src/HexagonCANDemo/etrice.HexagonCANDemo.demo/src-gen-st/room/basic/service/can\ACANService.c **** 		case CHAIN_TRANS_tr2_FROM_Operational_TO_Operational_BY_initcanRx_tr2:
 152:C:/data/workspaces/github/de.protos.demos/src/HexagonCANDemo/etrice.HexagonCANDemo.demo/src-gen-st/room/basic/service/can\ACANService.c **** 		{
 153:C:/data/workspaces/github/de.protos.demos/src/HexagonCANDemo/etrice.HexagonCANDemo.demo/src-gen-st/room/basic/service/can\ACANService.c **** 			uint32 data = *((uint32*) generic_data__et);
 484              		.loc 1 153 0
 485 006e 3B68     		ldr	r3, [r7, #0]
 486 0070 1B68     		ldr	r3, [r3, #0]
 487 0072 7B61     		str	r3, [r7, #20]
 154:C:/data/workspaces/github/de.protos.demos/src/HexagonCANDemo/etrice.HexagonCANDemo.demo/src-gen-st/room/basic/service/can\ACANService.c **** 			action_TRANS_tr2_FROM_Operational_TO_Operational_BY_initcanRx_tr2(self, ifitem, data);
 488              		.loc 1 154 0
 489 0074 F868     		ldr	r0, [r7, #12]
 490 0076 7968     		ldr	r1, [r7, #4]
 491 0078 7A69     		ldr	r2, [r7, #20]
 492 007a FFF7FEFF 		bl	action_TRANS_tr2_FROM_Operational_TO_Operational_BY_initcanRx_tr2
 155:C:/data/workspaces/github/de.protos.demos/src/HexagonCANDemo/etrice.HexagonCANDemo.demo/src-gen-st/room/basic/service/can\ACANService.c **** 			return STATE_Operational;
 493              		.loc 1 155 0
 494 007e 4FF00203 		mov	r3, #2
 495 0082 13E0     		b	.L25
 496              	.L22:
 497              	.LBE4:
 156:C:/data/workspaces/github/de.protos.demos/src/HexagonCANDemo/etrice.HexagonCANDemo.demo/src-gen-st/room/basic/service/can\ACANService.c **** 		}
 157:C:/data/workspaces/github/de.protos.demos/src/HexagonCANDemo/etrice.HexagonCANDemo.demo/src-gen-st/room/basic/service/can\ACANService.c **** 		case CHAIN_TRANS_tr3_FROM_Operational_TO_Operational_BY_timeouttimer_tr3:
 158:C:/data/workspaces/github/de.protos.demos/src/HexagonCANDemo/etrice.HexagonCANDemo.demo/src-gen-st/room/basic/service/can\ACANService.c **** 		{
 159:C:/data/workspaces/github/de.protos.demos/src/HexagonCANDemo/etrice.HexagonCANDemo.demo/src-gen-st/room/basic/service/can\ACANService.c **** 			action_TRANS_tr3_FROM_Operational_TO_Operational_BY_timeouttimer_tr3(self, ifitem);
 498              		.loc 1 159 0
 499 0084 F868     		ldr	r0, [r7, #12]
 500 0086 7968     		ldr	r1, [r7, #4]
 501 0088 FFF7FEFF 		bl	action_TRANS_tr3_FROM_Operational_TO_Operational_BY_timeouttimer_tr3
 160:C:/data/workspaces/github/de.protos.demos/src/HexagonCANDemo/etrice.HexagonCANDemo.demo/src-gen-st/room/basic/service/can\ACANService.c **** 			return STATE_Operational;
 502              		.loc 1 160 0
 503 008c 4FF00203 		mov	r3, #2
 504 0090 0CE0     		b	.L25
 505              	.L23:
 506              	.LBB5:
 161:C:/data/workspaces/github/de.protos.demos/src/HexagonCANDemo/etrice.HexagonCANDemo.demo/src-gen-st/room/basic/service/can\ACANService.c **** 		}
 162:C:/data/workspaces/github/de.protos.demos/src/HexagonCANDemo/etrice.HexagonCANDemo.demo/src-gen-st/room/basic/service/can\ACANService.c **** 		case CHAIN_TRANS_tr4_FROM_Operational_TO_Operational_BY_listenOnMsgcanRx_tr4:
 163:C:/data/workspaces/github/de.protos.demos/src/HexagonCANDemo/etrice.HexagonCANDemo.demo/src-gen-st/room/basic/service/can\ACANService.c **** 		{
 164:C:/data/workspaces/github/de.protos.demos/src/HexagonCANDemo/etrice.HexagonCANDemo.demo/src-gen-st/room/basic/service/can\ACANService.c **** 			pclCANMsg* data = ((pclCANMsg*) generic_data__et);
 507              		.loc 1 164 0
 508 0092 3B68     		ldr	r3, [r7, #0]
 509 0094 3B61     		str	r3, [r7, #16]
 165:C:/data/workspaces/github/de.protos.demos/src/HexagonCANDemo/etrice.HexagonCANDemo.demo/src-gen-st/room/basic/service/can\ACANService.c **** 			action_TRANS_tr4_FROM_Operational_TO_Operational_BY_listenOnMsgcanRx_tr4(self, ifitem, data);
 510              		.loc 1 165 0
 511 0096 F868     		ldr	r0, [r7, #12]
 512 0098 7968     		ldr	r1, [r7, #4]
 513 009a 3A69     		ldr	r2, [r7, #16]
 514 009c FFF7FEFF 		bl	action_TRANS_tr4_FROM_Operational_TO_Operational_BY_listenOnMsgcanRx_tr4
 166:C:/data/workspaces/github/de.protos.demos/src/HexagonCANDemo/etrice.HexagonCANDemo.demo/src-gen-st/room/basic/service/can\ACANService.c **** 			return STATE_Operational;
 515              		.loc 1 166 0
 516 00a0 4FF00203 		mov	r3, #2
 517 00a4 02E0     		b	.L25
 518              	.L27:
 519              	.LBE5:
 167:C:/data/workspaces/github/de.protos.demos/src/HexagonCANDemo/etrice.HexagonCANDemo.demo/src-gen-st/room/basic/service/can\ACANService.c **** 		}
 168:C:/data/workspaces/github/de.protos.demos/src/HexagonCANDemo/etrice.HexagonCANDemo.demo/src-gen-st/room/basic/service/can\ACANService.c **** 			default:
 169:C:/data/workspaces/github/de.protos.demos/src/HexagonCANDemo/etrice.HexagonCANDemo.demo/src-gen-st/room/basic/service/can\ACANService.c **** 				/* should not occur */
 170:C:/data/workspaces/github/de.protos.demos/src/HexagonCANDemo/etrice.HexagonCANDemo.demo/src-gen-st/room/basic/service/can\ACANService.c **** 				break;
 520              		.loc 1 170 0
 521 00a6 00BF     		nop
 522              	.L26:
 171:C:/data/workspaces/github/de.protos.demos/src/HexagonCANDemo/etrice.HexagonCANDemo.demo/src-gen-st/room/basic/service/can\ACANService.c **** 	}
 172:C:/data/workspaces/github/de.protos.demos/src/HexagonCANDemo/etrice.HexagonCANDemo.demo/src-gen-st/room/basic/service/can\ACANService.c **** 	return NO_STATE;
 523              		.loc 1 172 0
 524 00a8 4FF00003 		mov	r3, #0
 525              	.L25:
 526 00ac 1BB2     		sxth	r3, r3
 173:C:/data/workspaces/github/de.protos.demos/src/HexagonCANDemo/etrice.HexagonCANDemo.demo/src-gen-st/room/basic/service/can\ACANService.c **** }
 527              		.loc 1 173 0
 528 00ae 1846     		mov	r0, r3
 529 00b0 07F12007 		add	r7, r7, #32
 530 00b4 BD46     		mov	sp, r7
 531 00b6 80BD     		pop	{r7, pc}
 532              		.cfi_endproc
 533              	.LFE9:
 535              		.section	.text.enterHistory,"ax",%progbits
 536              		.align	2
 537              		.thumb
 538              		.thumb_func
 540              	enterHistory:
 541              	.LFB10:
 174:C:/data/workspaces/github/de.protos.demos/src/HexagonCANDemo/etrice.HexagonCANDemo.demo/src-gen-st/room/basic/service/can\ACANService.c **** 
 175:C:/data/workspaces/github/de.protos.demos/src/HexagonCANDemo/etrice.HexagonCANDemo.demo/src-gen-st/room/basic/service/can\ACANService.c **** /**
 176:C:/data/workspaces/github/de.protos.demos/src/HexagonCANDemo/etrice.HexagonCANDemo.demo/src-gen-st/room/basic/service/can\ACANService.c ****  * calls entry codes while entering a state's history. The ID of the final leaf state is returned
 177:C:/data/workspaces/github/de.protos.demos/src/HexagonCANDemo/etrice.HexagonCANDemo.demo/src-gen-st/room/basic/service/can\ACANService.c ****  * @param state__et - the state which is entered
 178:C:/data/workspaces/github/de.protos.demos/src/HexagonCANDemo/etrice.HexagonCANDemo.demo/src-gen-st/room/basic/service/can\ACANService.c ****  * @return - the ID of the final leaf state
 179:C:/data/workspaces/github/de.protos.demos/src/HexagonCANDemo/etrice.HexagonCANDemo.demo/src-gen-st/room/basic/service/can\ACANService.c ****  */
 180:C:/data/workspaces/github/de.protos.demos/src/HexagonCANDemo/etrice.HexagonCANDemo.demo/src-gen-st/room/basic/service/can\ACANService.c **** static etInt16 enterHistory(ACANService* self, etInt16 state__et) {
 542              		.loc 1 180 0
 543              		.cfi_startproc
 544              		@ args = 0, pretend = 0, frame = 16
 545              		@ frame_needed = 1, uses_anonymous_args = 0
 546              		@ link register save eliminated.
 547 0000 80B4     		push	{r7}
 548              	.LCFI30:
 549              		.cfi_def_cfa_offset 4
 550              		.cfi_offset 7, -4
 551 0002 85B0     		sub	sp, sp, #20
 552              	.LCFI31:
 553              		.cfi_def_cfa_offset 24
 554 0004 00AF     		add	r7, sp, #0
 555              	.LCFI32:
 556              		.cfi_def_cfa_register 7
 557 0006 7860     		str	r0, [r7, #4]
 558 0008 0B46     		mov	r3, r1
 559 000a 7B80     		strh	r3, [r7, #2]	@ movhi
 181:C:/data/workspaces/github/de.protos.demos/src/HexagonCANDemo/etrice.HexagonCANDemo.demo/src-gen-st/room/basic/service/can\ACANService.c **** 	boolean skip_entry__et = ET_FALSE;
 560              		.loc 1 181 0
 561 000c 4FF00003 		mov	r3, #0
 562 0010 FB73     		strb	r3, [r7, #15]
 182:C:/data/workspaces/github/de.protos.demos/src/HexagonCANDemo/etrice.HexagonCANDemo.demo/src-gen-st/room/basic/service/can\ACANService.c **** 	if (state__et >= STATE_MAX) {
 563              		.loc 1 182 0
 564 0012 B7F90230 		ldrsh	r3, [r7, #2]
 565 0016 022B     		cmp	r3, #2
 566 0018 07DD     		ble	.L29
 183:C:/data/workspaces/github/de.protos.demos/src/HexagonCANDemo/etrice.HexagonCANDemo.demo/src-gen-st/room/basic/service/can\ACANService.c **** 		state__et = (etInt16) (state__et - STATE_MAX);
 567              		.loc 1 183 0
 568 001a 7B88     		ldrh	r3, [r7, #2]
 569 001c A3F10303 		sub	r3, r3, #3
 570 0020 9BB2     		uxth	r3, r3
 571 0022 7B80     		strh	r3, [r7, #2]	@ movhi
 184:C:/data/workspaces/github/de.protos.demos/src/HexagonCANDemo/etrice.HexagonCANDemo.demo/src-gen-st/room/basic/service/can\ACANService.c **** 		skip_entry__et = ET_TRUE;
 572              		.loc 1 184 0
 573 0024 4FF00103 		mov	r3, #1
 574 0028 FB73     		strb	r3, [r7, #15]
 575              	.L29:
 185:C:/data/workspaces/github/de.protos.demos/src/HexagonCANDemo/etrice.HexagonCANDemo.demo/src-gen-st/room/basic/service/can\ACANService.c **** 	}
 186:C:/data/workspaces/github/de.protos.demos/src/HexagonCANDemo/etrice.HexagonCANDemo.demo/src-gen-st/room/basic/service/can\ACANService.c **** 	while (ET_TRUE) {
 187:C:/data/workspaces/github/de.protos.demos/src/HexagonCANDemo/etrice.HexagonCANDemo.demo/src-gen-st/room/basic/service/can\ACANService.c **** 		switch (state__et) {
 576              		.loc 1 187 0
 577 002a B7F90230 		ldrsh	r3, [r7, #2]
 578 002e 012B     		cmp	r3, #1
 579 0030 05D0     		beq	.L31
 580 0032 022B     		cmp	r3, #2
 581 0034 08D1     		bne	.L35
 582              	.L32:
 188:C:/data/workspaces/github/de.protos.demos/src/HexagonCANDemo/etrice.HexagonCANDemo.demo/src-gen-st/room/basic/service/can\ACANService.c **** 			case STATE_Operational:
 189:C:/data/workspaces/github/de.protos.demos/src/HexagonCANDemo/etrice.HexagonCANDemo.demo/src-gen-st/room/basic/service/can\ACANService.c **** 				/* in leaf state: return state id */
 190:C:/data/workspaces/github/de.protos.demos/src/HexagonCANDemo/etrice.HexagonCANDemo.demo/src-gen-st/room/basic/service/can\ACANService.c **** 				return STATE_Operational;
 583              		.loc 1 190 0
 584 0036 4FF00203 		mov	r3, #2
 585 003a 1BB2     		sxth	r3, r3
 586 003c 09E0     		b	.L36
 587              	.L31:
 191:C:/data/workspaces/github/de.protos.demos/src/HexagonCANDemo/etrice.HexagonCANDemo.demo/src-gen-st/room/basic/service/can\ACANService.c **** 			case STATE_TOP:
 192:C:/data/workspaces/github/de.protos.demos/src/HexagonCANDemo/etrice.HexagonCANDemo.demo/src-gen-st/room/basic/service/can\ACANService.c **** 				state__et = self->history[STATE_TOP];
 588              		.loc 1 192 0
 589 003e 7B68     		ldr	r3, [r7, #4]
 590 0040 B3F85C30 		ldrh	r3, [r3, #92]	@ movhi
 591 0044 7B80     		strh	r3, [r7, #2]	@ movhi
 193:C:/data/workspaces/github/de.protos.demos/src/HexagonCANDemo/etrice.HexagonCANDemo.demo/src-gen-st/room/basic/service/can\ACANService.c **** 				break;
 592              		.loc 1 193 0
 593 0046 00E0     		b	.L34
 594              	.L35:
 194:C:/data/workspaces/github/de.protos.demos/src/HexagonCANDemo/etrice.HexagonCANDemo.demo/src-gen-st/room/basic/service/can\ACANService.c **** 			default:
 195:C:/data/workspaces/github/de.protos.demos/src/HexagonCANDemo/etrice.HexagonCANDemo.demo/src-gen-st/room/basic/service/can\ACANService.c **** 				/* should not occur */
 196:C:/data/workspaces/github/de.protos.demos/src/HexagonCANDemo/etrice.HexagonCANDemo.demo/src-gen-st/room/basic/service/can\ACANService.c **** 				break;
 595              		.loc 1 196 0
 596 0048 00BF     		nop
 597              	.L34:
 197:C:/data/workspaces/github/de.protos.demos/src/HexagonCANDemo/etrice.HexagonCANDemo.demo/src-gen-st/room/basic/service/can\ACANService.c **** 		}
 198:C:/data/workspaces/github/de.protos.demos/src/HexagonCANDemo/etrice.HexagonCANDemo.demo/src-gen-st/room/basic/service/can\ACANService.c **** 		skip_entry__et = ET_FALSE;
 598              		.loc 1 198 0
 599 004a 4FF00003 		mov	r3, #0
 600 004e FB73     		strb	r3, [r7, #15]
 199:C:/data/workspaces/github/de.protos.demos/src/HexagonCANDemo/etrice.HexagonCANDemo.demo/src-gen-st/room/basic/service/can\ACANService.c **** 	}
 601              		.loc 1 199 0
 602 0050 EBE7     		b	.L29
 603              	.L36:
 200:C:/data/workspaces/github/de.protos.demos/src/HexagonCANDemo/etrice.HexagonCANDemo.demo/src-gen-st/room/basic/service/can\ACANService.c **** 	/* return NO_STATE; // required by CDT but detected as unreachable by JDT because of while (true) 
 201:C:/data/workspaces/github/de.protos.demos/src/HexagonCANDemo/etrice.HexagonCANDemo.demo/src-gen-st/room/basic/service/can\ACANService.c **** }
 604              		.loc 1 201 0
 605 0052 1846     		mov	r0, r3
 606 0054 07F11407 		add	r7, r7, #20
 607 0058 BD46     		mov	sp, r7
 608 005a 80BC     		pop	{r7}
 609 005c 7047     		bx	lr
 610              		.cfi_endproc
 611              	.LFE10:
 613 005e 00BF     		.section	.text.ACANService_executeInitTransition,"ax",%progbits
 614              		.align	2
 615              		.thumb
 616              		.thumb_func
 618              	ACANService_executeInitTransition:
 619              	.LFB11:
 202:C:/data/workspaces/github/de.protos.demos/src/HexagonCANDemo/etrice.HexagonCANDemo.demo/src-gen-st/room/basic/service/can\ACANService.c **** 
 203:C:/data/workspaces/github/de.protos.demos/src/HexagonCANDemo/etrice.HexagonCANDemo.demo/src-gen-st/room/basic/service/can\ACANService.c **** static void ACANService_executeInitTransition(ACANService* self) {
 620              		.loc 1 203 0
 621              		.cfi_startproc
 622              		@ args = 0, pretend = 0, frame = 16
 623              		@ frame_needed = 1, uses_anonymous_args = 0
 624 0000 80B5     		push	{r7, lr}
 625              	.LCFI33:
 626              		.cfi_def_cfa_offset 8
 627              		.cfi_offset 7, -8
 628              		.cfi_offset 14, -4
 629 0002 84B0     		sub	sp, sp, #16
 630              	.LCFI34:
 631              		.cfi_def_cfa_offset 24
 632 0004 00AF     		add	r7, sp, #0
 633              	.LCFI35:
 634              		.cfi_def_cfa_register 7
 635 0006 7860     		str	r0, [r7, #4]
 204:C:/data/workspaces/github/de.protos.demos/src/HexagonCANDemo/etrice.HexagonCANDemo.demo/src-gen-st/room/basic/service/can\ACANService.c **** 	int chain__et = CHAIN_TRANS_INITIAL_TO__Operational;
 636              		.loc 1 204 0
 637 0008 4FF00103 		mov	r3, #1
 638 000c FB60     		str	r3, [r7, #12]
 205:C:/data/workspaces/github/de.protos.demos/src/HexagonCANDemo/etrice.HexagonCANDemo.demo/src-gen-st/room/basic/service/can\ACANService.c **** 	etInt16 next__et = executeTransitionChain(self, chain__et, NULL, NULL);
 639              		.loc 1 205 0
 640 000e 7868     		ldr	r0, [r7, #4]
 641 0010 F968     		ldr	r1, [r7, #12]
 642 0012 4FF00002 		mov	r2, #0
 643 0016 4FF00003 		mov	r3, #0
 644 001a FFF7FEFF 		bl	executeTransitionChain
 645 001e 0346     		mov	r3, r0
 646 0020 7B81     		strh	r3, [r7, #10]	@ movhi
 206:C:/data/workspaces/github/de.protos.demos/src/HexagonCANDemo/etrice.HexagonCANDemo.demo/src-gen-st/room/basic/service/can\ACANService.c **** 	next__et = enterHistory(self, next__et);
 647              		.loc 1 206 0
 648 0022 B7F90A30 		ldrsh	r3, [r7, #10]
 649 0026 7868     		ldr	r0, [r7, #4]
 650 0028 1946     		mov	r1, r3
 651 002a FFF7FEFF 		bl	enterHistory
 652 002e 0346     		mov	r3, r0
 653 0030 7B81     		strh	r3, [r7, #10]	@ movhi
 207:C:/data/workspaces/github/de.protos.demos/src/HexagonCANDemo/etrice.HexagonCANDemo.demo/src-gen-st/room/basic/service/can\ACANService.c **** 	setState(self, next__et);
 654              		.loc 1 207 0
 655 0032 B7F90A30 		ldrsh	r3, [r7, #10]
 656 0036 7868     		ldr	r0, [r7, #4]
 657 0038 1946     		mov	r1, r3
 658 003a FFF7FEFF 		bl	setState
 208:C:/data/workspaces/github/de.protos.demos/src/HexagonCANDemo/etrice.HexagonCANDemo.demo/src-gen-st/room/basic/service/can\ACANService.c **** }
 659              		.loc 1 208 0
 660 003e 07F11007 		add	r7, r7, #16
 661 0042 BD46     		mov	sp, r7
 662 0044 80BD     		pop	{r7, pc}
 663              		.cfi_endproc
 664              	.LFE11:
 666 0046 00BF     		.section	.text.ACANService_receiveEvent,"ax",%progbits
 667              		.align	2
 668              		.thumb
 669              		.thumb_func
 671              	ACANService_receiveEvent:
 672              	.LFB12:
 209:C:/data/workspaces/github/de.protos.demos/src/HexagonCANDemo/etrice.HexagonCANDemo.demo/src-gen-st/room/basic/service/can\ACANService.c **** 
 210:C:/data/workspaces/github/de.protos.demos/src/HexagonCANDemo/etrice.HexagonCANDemo.demo/src-gen-st/room/basic/service/can\ACANService.c **** /* receiveEvent contains the main implementation of the FSM */
 211:C:/data/workspaces/github/de.protos.demos/src/HexagonCANDemo/etrice.HexagonCANDemo.demo/src-gen-st/room/basic/service/can\ACANService.c **** static void ACANService_receiveEvent(ACANService* self, InterfaceItemBase* ifitem, int evt, void* g
 673              		.loc 1 211 0
 674              		.cfi_startproc
 675              		@ args = 0, pretend = 0, frame = 32
 676              		@ frame_needed = 1, uses_anonymous_args = 0
 677 0000 80B5     		push	{r7, lr}
 678              	.LCFI36:
 679              		.cfi_def_cfa_offset 8
 680              		.cfi_offset 7, -8
 681              		.cfi_offset 14, -4
 682 0002 88B0     		sub	sp, sp, #32
 683              	.LCFI37:
 684              		.cfi_def_cfa_offset 40
 685 0004 00AF     		add	r7, sp, #0
 686              	.LCFI38:
 687              		.cfi_def_cfa_register 7
 688 0006 F860     		str	r0, [r7, #12]
 689 0008 B960     		str	r1, [r7, #8]
 690 000a 7A60     		str	r2, [r7, #4]
 691 000c 3B60     		str	r3, [r7, #0]
 212:C:/data/workspaces/github/de.protos.demos/src/HexagonCANDemo/etrice.HexagonCANDemo.demo/src-gen-st/room/basic/service/can\ACANService.c **** 	int trigger__et = ifitem->localId + EVT_SHIFT*evt;
 692              		.loc 1 212 0
 693 000e BB68     		ldr	r3, [r7, #8]
 694 0010 5B7A     		ldrb	r3, [r3, #9]	@ zero_extendqisi2
 695 0012 1A46     		mov	r2, r3
 696 0014 7B68     		ldr	r3, [r7, #4]
 697 0016 4FF06401 		mov	r1, #100
 698 001a 01FB03F3 		mul	r3, r1, r3
 699 001e D318     		adds	r3, r2, r3
 700 0020 7B61     		str	r3, [r7, #20]
 213:C:/data/workspaces/github/de.protos.demos/src/HexagonCANDemo/etrice.HexagonCANDemo.demo/src-gen-st/room/basic/service/can\ACANService.c **** 	int chain__et = NOT_CAUGHT;
 701              		.loc 1 213 0
 702 0022 4FF00003 		mov	r3, #0
 703 0026 FB61     		str	r3, [r7, #28]
 214:C:/data/workspaces/github/de.protos.demos/src/HexagonCANDemo/etrice.HexagonCANDemo.demo/src-gen-st/room/basic/service/can\ACANService.c **** 	etInt16 catching_state__et = NO_STATE;
 704              		.loc 1 214 0
 705 0028 4FF00003 		mov	r3, #0
 706 002c 7B83     		strh	r3, [r7, #26]	@ movhi
 215:C:/data/workspaces/github/de.protos.demos/src/HexagonCANDemo/etrice.HexagonCANDemo.demo/src-gen-st/room/basic/service/can\ACANService.c **** 	((void)trigger__et);	/* avoids unused warning */
 216:C:/data/workspaces/github/de.protos.demos/src/HexagonCANDemo/etrice.HexagonCANDemo.demo/src-gen-st/room/basic/service/can\ACANService.c **** 	
 217:C:/data/workspaces/github/de.protos.demos/src/HexagonCANDemo/etrice.HexagonCANDemo.demo/src-gen-st/room/basic/service/can\ACANService.c **** 	if (!handleSystemEvent(ifitem, evt, generic_data__et)) {
 707              		.loc 1 217 0
 708 002e B868     		ldr	r0, [r7, #8]
 709 0030 7968     		ldr	r1, [r7, #4]
 710 0032 3A68     		ldr	r2, [r7, #0]
 711 0034 FFF7FEFF 		bl	handleSystemEvent
 712 0038 0346     		mov	r3, r0
 713 003a 002B     		cmp	r3, #0
 714 003c 3DD1     		bne	.L39
 218:C:/data/workspaces/github/de.protos.demos/src/HexagonCANDemo/etrice.HexagonCANDemo.demo/src-gen-st/room/basic/service/can\ACANService.c **** 		switch (getState(self)) {
 715              		.loc 1 218 0
 716 003e F868     		ldr	r0, [r7, #12]
 717 0040 FFF7FEFF 		bl	getState
 718 0044 0346     		mov	r3, r0
 719 0046 022B     		cmp	r3, #2
 720 0048 36D1     		bne	.L51
 721              	.L41:
 219:C:/data/workspaces/github/de.protos.demos/src/HexagonCANDemo/etrice.HexagonCANDemo.demo/src-gen-st/room/basic/service/can\ACANService.c **** 			case STATE_Operational:
 220:C:/data/workspaces/github/de.protos.demos/src/HexagonCANDemo/etrice.HexagonCANDemo.demo/src-gen-st/room/basic/service/can\ACANService.c **** 				switch(trigger__et) {
 722              		.loc 1 220 0
 723 004a 7B69     		ldr	r3, [r7, #20]
 724 004c CB2B     		cmp	r3, #203
 725 004e 1CD0     		beq	.L45
 726 0050 CB2B     		cmp	r3, #203
 727 0052 04DC     		bgt	.L48
 728 0054 652B     		cmp	r3, #101
 729 0056 1FD0     		beq	.L43
 730 0058 CA2B     		cmp	r3, #202
 731 005a 0FD0     		beq	.L44
 732 005c 2AE0     		b	.L42
 733              	.L48:
 734 005e B3F5977F 		cmp	r3, #302
 735 0062 04D0     		beq	.L46
 736 0064 40F29312 		movw	r2, #403
 737 0068 9342     		cmp	r3, r2
 738 006a 1CD0     		beq	.L47
 739 006c 22E0     		b	.L42
 740              	.L46:
 221:C:/data/workspaces/github/de.protos.demos/src/HexagonCANDemo/etrice.HexagonCANDemo.demo/src-gen-st/room/basic/service/can\ACANService.c **** 						case TRIG_canTx__sendMsg:
 222:C:/data/workspaces/github/de.protos.demos/src/HexagonCANDemo/etrice.HexagonCANDemo.demo/src-gen-st/room/basic/service/can\ACANService.c **** 							{
 223:C:/data/workspaces/github/de.protos.demos/src/HexagonCANDemo/etrice.HexagonCANDemo.demo/src-gen-st/room/basic/service/can\ACANService.c **** 								chain__et = CHAIN_TRANS_tr0_FROM_Operational_TO_Operational_BY_sendMsgcanTx_tr0;
 741              		.loc 1 223 0
 742 006e 4FF00203 		mov	r3, #2
 743 0072 FB61     		str	r3, [r7, #28]
 224:C:/data/workspaces/github/de.protos.demos/src/HexagonCANDemo/etrice.HexagonCANDemo.demo/src-gen-st/room/basic/service/can\ACANService.c **** 								catching_state__et = STATE_TOP;
 744              		.loc 1 224 0
 745 0074 4FF00103 		mov	r3, #1
 746 0078 7B83     		strh	r3, [r7, #26]	@ movhi
 225:C:/data/workspaces/github/de.protos.demos/src/HexagonCANDemo/etrice.HexagonCANDemo.demo/src-gen-st/room/basic/service/can\ACANService.c **** 							}
 226:C:/data/workspaces/github/de.protos.demos/src/HexagonCANDemo/etrice.HexagonCANDemo.demo/src-gen-st/room/basic/service/can\ACANService.c **** 						break;
 747              		.loc 1 226 0
 748 007a 1CE0     		b	.L49
 749              	.L44:
 227:C:/data/workspaces/github/de.protos.demos/src/HexagonCANDemo/etrice.HexagonCANDemo.demo/src-gen-st/room/basic/service/can\ACANService.c **** 						case TRIG_canTx__init:
 228:C:/data/workspaces/github/de.protos.demos/src/HexagonCANDemo/etrice.HexagonCANDemo.demo/src-gen-st/room/basic/service/can\ACANService.c **** 							{
 229:C:/data/workspaces/github/de.protos.demos/src/HexagonCANDemo/etrice.HexagonCANDemo.demo/src-gen-st/room/basic/service/can\ACANService.c **** 								chain__et = CHAIN_TRANS_tr1_FROM_Operational_TO_Operational_BY_initcanTx_tr1;
 750              		.loc 1 229 0
 751 007c 4FF00303 		mov	r3, #3
 752 0080 FB61     		str	r3, [r7, #28]
 230:C:/data/workspaces/github/de.protos.demos/src/HexagonCANDemo/etrice.HexagonCANDemo.demo/src-gen-st/room/basic/service/can\ACANService.c **** 								catching_state__et = STATE_TOP;
 753              		.loc 1 230 0
 754 0082 4FF00103 		mov	r3, #1
 755 0086 7B83     		strh	r3, [r7, #26]	@ movhi
 231:C:/data/workspaces/github/de.protos.demos/src/HexagonCANDemo/etrice.HexagonCANDemo.demo/src-gen-st/room/basic/service/can\ACANService.c **** 							}
 232:C:/data/workspaces/github/de.protos.demos/src/HexagonCANDemo/etrice.HexagonCANDemo.demo/src-gen-st/room/basic/service/can\ACANService.c **** 						break;
 756              		.loc 1 232 0
 757 0088 15E0     		b	.L49
 758              	.L45:
 233:C:/data/workspaces/github/de.protos.demos/src/HexagonCANDemo/etrice.HexagonCANDemo.demo/src-gen-st/room/basic/service/can\ACANService.c **** 						case TRIG_canRx__init:
 234:C:/data/workspaces/github/de.protos.demos/src/HexagonCANDemo/etrice.HexagonCANDemo.demo/src-gen-st/room/basic/service/can\ACANService.c **** 							{
 235:C:/data/workspaces/github/de.protos.demos/src/HexagonCANDemo/etrice.HexagonCANDemo.demo/src-gen-st/room/basic/service/can\ACANService.c **** 								chain__et = CHAIN_TRANS_tr2_FROM_Operational_TO_Operational_BY_initcanRx_tr2;
 759              		.loc 1 235 0
 760 008a 4FF00403 		mov	r3, #4
 761 008e FB61     		str	r3, [r7, #28]
 236:C:/data/workspaces/github/de.protos.demos/src/HexagonCANDemo/etrice.HexagonCANDemo.demo/src-gen-st/room/basic/service/can\ACANService.c **** 								catching_state__et = STATE_TOP;
 762              		.loc 1 236 0
 763 0090 4FF00103 		mov	r3, #1
 764 0094 7B83     		strh	r3, [r7, #26]	@ movhi
 237:C:/data/workspaces/github/de.protos.demos/src/HexagonCANDemo/etrice.HexagonCANDemo.demo/src-gen-st/room/basic/service/can\ACANService.c **** 							}
 238:C:/data/workspaces/github/de.protos.demos/src/HexagonCANDemo/etrice.HexagonCANDemo.demo/src-gen-st/room/basic/service/can\ACANService.c **** 						break;
 765              		.loc 1 238 0
 766 0096 0EE0     		b	.L49
 767              	.L43:
 239:C:/data/workspaces/github/de.protos.demos/src/HexagonCANDemo/etrice.HexagonCANDemo.demo/src-gen-st/room/basic/service/can\ACANService.c **** 						case TRIG_timer__timeout:
 240:C:/data/workspaces/github/de.protos.demos/src/HexagonCANDemo/etrice.HexagonCANDemo.demo/src-gen-st/room/basic/service/can\ACANService.c **** 							{
 241:C:/data/workspaces/github/de.protos.demos/src/HexagonCANDemo/etrice.HexagonCANDemo.demo/src-gen-st/room/basic/service/can\ACANService.c **** 								chain__et = CHAIN_TRANS_tr3_FROM_Operational_TO_Operational_BY_timeouttimer_tr3;
 768              		.loc 1 241 0
 769 0098 4FF00503 		mov	r3, #5
 770 009c FB61     		str	r3, [r7, #28]
 242:C:/data/workspaces/github/de.protos.demos/src/HexagonCANDemo/etrice.HexagonCANDemo.demo/src-gen-st/room/basic/service/can\ACANService.c **** 								catching_state__et = STATE_TOP;
 771              		.loc 1 242 0
 772 009e 4FF00103 		mov	r3, #1
 773 00a2 7B83     		strh	r3, [r7, #26]	@ movhi
 243:C:/data/workspaces/github/de.protos.demos/src/HexagonCANDemo/etrice.HexagonCANDemo.demo/src-gen-st/room/basic/service/can\ACANService.c **** 							}
 244:C:/data/workspaces/github/de.protos.demos/src/HexagonCANDemo/etrice.HexagonCANDemo.demo/src-gen-st/room/basic/service/can\ACANService.c **** 						break;
 774              		.loc 1 244 0
 775 00a4 07E0     		b	.L49
 776              	.L47:
 245:C:/data/workspaces/github/de.protos.demos/src/HexagonCANDemo/etrice.HexagonCANDemo.demo/src-gen-st/room/basic/service/can\ACANService.c **** 						case TRIG_canRx__listenOnMsg:
 246:C:/data/workspaces/github/de.protos.demos/src/HexagonCANDemo/etrice.HexagonCANDemo.demo/src-gen-st/room/basic/service/can\ACANService.c **** 							{
 247:C:/data/workspaces/github/de.protos.demos/src/HexagonCANDemo/etrice.HexagonCANDemo.demo/src-gen-st/room/basic/service/can\ACANService.c **** 								chain__et = CHAIN_TRANS_tr4_FROM_Operational_TO_Operational_BY_listenOnMsgcanRx_tr4;
 777              		.loc 1 247 0
 778 00a6 4FF00603 		mov	r3, #6
 779 00aa FB61     		str	r3, [r7, #28]
 248:C:/data/workspaces/github/de.protos.demos/src/HexagonCANDemo/etrice.HexagonCANDemo.demo/src-gen-st/room/basic/service/can\ACANService.c **** 								catching_state__et = STATE_TOP;
 780              		.loc 1 248 0
 781 00ac 4FF00103 		mov	r3, #1
 782 00b0 7B83     		strh	r3, [r7, #26]	@ movhi
 249:C:/data/workspaces/github/de.protos.demos/src/HexagonCANDemo/etrice.HexagonCANDemo.demo/src-gen-st/room/basic/service/can\ACANService.c **** 							}
 250:C:/data/workspaces/github/de.protos.demos/src/HexagonCANDemo/etrice.HexagonCANDemo.demo/src-gen-st/room/basic/service/can\ACANService.c **** 						break;
 783              		.loc 1 250 0
 784 00b2 00E0     		b	.L49
 785              	.L42:
 251:C:/data/workspaces/github/de.protos.demos/src/HexagonCANDemo/etrice.HexagonCANDemo.demo/src-gen-st/room/basic/service/can\ACANService.c **** 						default:
 252:C:/data/workspaces/github/de.protos.demos/src/HexagonCANDemo/etrice.HexagonCANDemo.demo/src-gen-st/room/basic/service/can\ACANService.c **** 							/* should not occur */
 253:C:/data/workspaces/github/de.protos.demos/src/HexagonCANDemo/etrice.HexagonCANDemo.demo/src-gen-st/room/basic/service/can\ACANService.c **** 							break;
 786              		.loc 1 253 0
 787 00b4 00BF     		nop
 788              	.L49:
 254:C:/data/workspaces/github/de.protos.demos/src/HexagonCANDemo/etrice.HexagonCANDemo.demo/src-gen-st/room/basic/service/can\ACANService.c **** 				}
 255:C:/data/workspaces/github/de.protos.demos/src/HexagonCANDemo/etrice.HexagonCANDemo.demo/src-gen-st/room/basic/service/can\ACANService.c **** 				break;
 789              		.loc 1 255 0
 790 00b6 00E0     		b	.L39
 791              	.L51:
 256:C:/data/workspaces/github/de.protos.demos/src/HexagonCANDemo/etrice.HexagonCANDemo.demo/src-gen-st/room/basic/service/can\ACANService.c **** 			default:
 257:C:/data/workspaces/github/de.protos.demos/src/HexagonCANDemo/etrice.HexagonCANDemo.demo/src-gen-st/room/basic/service/can\ACANService.c **** 				/* should not occur */
 258:C:/data/workspaces/github/de.protos.demos/src/HexagonCANDemo/etrice.HexagonCANDemo.demo/src-gen-st/room/basic/service/can\ACANService.c **** 				break;
 792              		.loc 1 258 0
 793 00b8 00BF     		nop
 794              	.L39:
 259:C:/data/workspaces/github/de.protos.demos/src/HexagonCANDemo/etrice.HexagonCANDemo.demo/src-gen-st/room/basic/service/can\ACANService.c **** 		}
 260:C:/data/workspaces/github/de.protos.demos/src/HexagonCANDemo/etrice.HexagonCANDemo.demo/src-gen-st/room/basic/service/can\ACANService.c **** 	}
 261:C:/data/workspaces/github/de.protos.demos/src/HexagonCANDemo/etrice.HexagonCANDemo.demo/src-gen-st/room/basic/service/can\ACANService.c **** 	if (chain__et != NOT_CAUGHT) {
 795              		.loc 1 261 0
 796 00ba FB69     		ldr	r3, [r7, #28]
 797 00bc 002B     		cmp	r3, #0
 798 00be 21D0     		beq	.L38
 262:C:/data/workspaces/github/de.protos.demos/src/HexagonCANDemo/etrice.HexagonCANDemo.demo/src-gen-st/room/basic/service/can\ACANService.c **** 		exitTo(self, getState(self), catching_state__et);
 799              		.loc 1 262 0
 800 00c0 F868     		ldr	r0, [r7, #12]
 801 00c2 FFF7FEFF 		bl	getState
 802 00c6 0346     		mov	r3, r0
 803 00c8 1A46     		mov	r2, r3
 804 00ca B7F91A30 		ldrsh	r3, [r7, #26]
 805 00ce F868     		ldr	r0, [r7, #12]
 806 00d0 1146     		mov	r1, r2
 807 00d2 1A46     		mov	r2, r3
 808 00d4 FFF7FEFF 		bl	exitTo
 809              	.LBB6:
 263:C:/data/workspaces/github/de.protos.demos/src/HexagonCANDemo/etrice.HexagonCANDemo.demo/src-gen-st/room/basic/service/can\ACANService.c **** 		{
 264:C:/data/workspaces/github/de.protos.demos/src/HexagonCANDemo/etrice.HexagonCANDemo.demo/src-gen-st/room/basic/service/can\ACANService.c **** 			etInt16 next__et = executeTransitionChain(self, chain__et, ifitem, generic_data__et);
 810              		.loc 1 264 0
 811 00d8 F868     		ldr	r0, [r7, #12]
 812 00da F969     		ldr	r1, [r7, #28]
 813 00dc BA68     		ldr	r2, [r7, #8]
 814 00de 3B68     		ldr	r3, [r7, #0]
 815 00e0 FFF7FEFF 		bl	executeTransitionChain
 816 00e4 0346     		mov	r3, r0
 817 00e6 7B82     		strh	r3, [r7, #18]	@ movhi
 265:C:/data/workspaces/github/de.protos.demos/src/HexagonCANDemo/etrice.HexagonCANDemo.demo/src-gen-st/room/basic/service/can\ACANService.c **** 			next__et = enterHistory(self, next__et);
 818              		.loc 1 265 0
 819 00e8 B7F91230 		ldrsh	r3, [r7, #18]
 820 00ec F868     		ldr	r0, [r7, #12]
 821 00ee 1946     		mov	r1, r3
 822 00f0 FFF7FEFF 		bl	enterHistory
 823 00f4 0346     		mov	r3, r0
 824 00f6 7B82     		strh	r3, [r7, #18]	@ movhi
 266:C:/data/workspaces/github/de.protos.demos/src/HexagonCANDemo/etrice.HexagonCANDemo.demo/src-gen-st/room/basic/service/can\ACANService.c **** 			setState(self, next__et);
 825              		.loc 1 266 0
 826 00f8 B7F91230 		ldrsh	r3, [r7, #18]
 827 00fc F868     		ldr	r0, [r7, #12]
 828 00fe 1946     		mov	r1, r3
 829 0100 FFF7FEFF 		bl	setState
 830              	.L38:
 831              	.LBE6:
 267:C:/data/workspaces/github/de.protos.demos/src/HexagonCANDemo/etrice.HexagonCANDemo.demo/src-gen-st/room/basic/service/can\ACANService.c **** 		}
 268:C:/data/workspaces/github/de.protos.demos/src/HexagonCANDemo/etrice.HexagonCANDemo.demo/src-gen-st/room/basic/service/can\ACANService.c **** 	}
 269:C:/data/workspaces/github/de.protos.demos/src/HexagonCANDemo/etrice.HexagonCANDemo.demo/src-gen-st/room/basic/service/can\ACANService.c **** }
 832              		.loc 1 269 0
 833 0104 07F12007 		add	r7, r7, #32
 834 0108 BD46     		mov	sp, r7
 835 010a 80BD     		pop	{r7, pc}
 836              		.cfi_endproc
 837              	.LFE12:
 839              		.section	.text.ACANService_init,"ax",%progbits
 840              		.align	2
 841              		.global	ACANService_init
 842              		.thumb
 843              		.thumb_func
 845              	ACANService_init:
 846              	.LFB13:
 270:C:/data/workspaces/github/de.protos.demos/src/HexagonCANDemo/etrice.HexagonCANDemo.demo/src-gen-st/room/basic/service/can\ACANService.c **** 
 271:C:/data/workspaces/github/de.protos.demos/src/HexagonCANDemo/etrice.HexagonCANDemo.demo/src-gen-st/room/basic/service/can\ACANService.c **** void ACANService_init(ACANService* self){
 847              		.loc 1 271 0
 848              		.cfi_startproc
 849              		@ args = 0, pretend = 0, frame = 16
 850              		@ frame_needed = 1, uses_anonymous_args = 0
 851 0000 80B5     		push	{r7, lr}
 852              	.LCFI39:
 853              		.cfi_def_cfa_offset 8
 854              		.cfi_offset 7, -8
 855              		.cfi_offset 14, -4
 856 0002 84B0     		sub	sp, sp, #16
 857              	.LCFI40:
 858              		.cfi_def_cfa_offset 24
 859 0004 00AF     		add	r7, sp, #0
 860              	.LCFI41:
 861              		.cfi_def_cfa_register 7
 862 0006 7860     		str	r0, [r7, #4]
 272:C:/data/workspaces/github/de.protos.demos/src/HexagonCANDemo/etrice.HexagonCANDemo.demo/src-gen-st/room/basic/service/can\ACANService.c **** 	ET_MSC_LOGGER_SYNC_ENTRY("ACANService", "init")
 273:C:/data/workspaces/github/de.protos.demos/src/HexagonCANDemo/etrice.HexagonCANDemo.demo/src-gen-st/room/basic/service/can\ACANService.c **** 	self->state = STATE_TOP;
 863              		.loc 1 273 0
 864 0008 7B68     		ldr	r3, [r7, #4]
 865 000a 4FF00102 		mov	r2, #1
 866 000e A3F85820 		strh	r2, [r3, #88]	@ movhi
 867              	.LBB7:
 274:C:/data/workspaces/github/de.protos.demos/src/HexagonCANDemo/etrice.HexagonCANDemo.demo/src-gen-st/room/basic/service/can\ACANService.c **** 	{
 275:C:/data/workspaces/github/de.protos.demos/src/HexagonCANDemo/etrice.HexagonCANDemo.demo/src-gen-st/room/basic/service/can\ACANService.c **** 		int i;
 276:C:/data/workspaces/github/de.protos.demos/src/HexagonCANDemo/etrice.HexagonCANDemo.demo/src-gen-st/room/basic/service/can\ACANService.c **** 		for (i=0; i<ACANSERVICE_HISTORY_SIZE; ++i)
 868              		.loc 1 276 0
 869 0012 4FF00003 		mov	r3, #0
 870 0016 FB60     		str	r3, [r7, #12]
 871 0018 0DE0     		b	.L53
 872              	.L54:
 277:C:/data/workspaces/github/de.protos.demos/src/HexagonCANDemo/etrice.HexagonCANDemo.demo/src-gen-st/room/basic/service/can\ACANService.c **** 			self->history[i] = NO_STATE;
 873              		.loc 1 277 0 discriminator 2
 874 001a 7A68     		ldr	r2, [r7, #4]
 875 001c FB68     		ldr	r3, [r7, #12]
 876 001e 03F12C03 		add	r3, r3, #44
 877 0022 4FEA4303 		lsl	r3, r3, #1
 878 0026 D318     		adds	r3, r2, r3
 879 0028 4FF00002 		mov	r2, #0
 880 002c 5A80     		strh	r2, [r3, #2]	@ movhi
 276:C:/data/workspaces/github/de.protos.demos/src/HexagonCANDemo/etrice.HexagonCANDemo.demo/src-gen-st/room/basic/service/can\ACANService.c **** 		for (i=0; i<ACANSERVICE_HISTORY_SIZE; ++i)
 881              		.loc 1 276 0 discriminator 2
 882 002e FB68     		ldr	r3, [r7, #12]
 883 0030 03F10103 		add	r3, r3, #1
 884 0034 FB60     		str	r3, [r7, #12]
 885              	.L53:
 276:C:/data/workspaces/github/de.protos.demos/src/HexagonCANDemo/etrice.HexagonCANDemo.demo/src-gen-st/room/basic/service/can\ACANService.c **** 		for (i=0; i<ACANSERVICE_HISTORY_SIZE; ++i)
 886              		.loc 1 276 0 is_stmt 0 discriminator 1
 887 0036 FB68     		ldr	r3, [r7, #12]
 888 0038 012B     		cmp	r3, #1
 889 003a EEDD     		ble	.L54
 890              	.LBE7:
 278:C:/data/workspaces/github/de.protos.demos/src/HexagonCANDemo/etrice.HexagonCANDemo.demo/src-gen-st/room/basic/service/can\ACANService.c **** 	}
 279:C:/data/workspaces/github/de.protos.demos/src/HexagonCANDemo/etrice.HexagonCANDemo.demo/src-gen-st/room/basic/service/can\ACANService.c **** 	ACANService_executeInitTransition(self);
 891              		.loc 1 279 0 is_stmt 1
 892 003c 7868     		ldr	r0, [r7, #4]
 893 003e FFF7FEFF 		bl	ACANService_executeInitTransition
 280:C:/data/workspaces/github/de.protos.demos/src/HexagonCANDemo/etrice.HexagonCANDemo.demo/src-gen-st/room/basic/service/can\ACANService.c **** 	ET_MSC_LOGGER_SYNC_EXIT
 281:C:/data/workspaces/github/de.protos.demos/src/HexagonCANDemo/etrice.HexagonCANDemo.demo/src-gen-st/room/basic/service/can\ACANService.c **** }
 894              		.loc 1 281 0
 895 0042 07F11007 		add	r7, r7, #16
 896 0046 BD46     		mov	sp, r7
 897 0048 80BD     		pop	{r7, pc}
 898              		.cfi_endproc
 899              	.LFE13:
 901 004a 00BF     		.section	.text.ACANService_receiveMessage,"ax",%progbits
 902              		.align	2
 903              		.global	ACANService_receiveMessage
 904              		.thumb
 905              		.thumb_func
 907              	ACANService_receiveMessage:
 908              	.LFB14:
 282:C:/data/workspaces/github/de.protos.demos/src/HexagonCANDemo/etrice.HexagonCANDemo.demo/src-gen-st/room/basic/service/can\ACANService.c **** 
 283:C:/data/workspaces/github/de.protos.demos/src/HexagonCANDemo/etrice.HexagonCANDemo.demo/src-gen-st/room/basic/service/can\ACANService.c **** 
 284:C:/data/workspaces/github/de.protos.demos/src/HexagonCANDemo/etrice.HexagonCANDemo.demo/src-gen-st/room/basic/service/can\ACANService.c **** void ACANService_receiveMessage(void* self, const void* ifitem, const etMessage* msg){
 909              		.loc 1 284 0
 910              		.cfi_startproc
 911              		@ args = 0, pretend = 0, frame = 16
 912              		@ frame_needed = 1, uses_anonymous_args = 0
 913 0000 80B5     		push	{r7, lr}
 914              	.LCFI42:
 915              		.cfi_def_cfa_offset 8
 916              		.cfi_offset 7, -8
 917              		.cfi_offset 14, -4
 918 0002 84B0     		sub	sp, sp, #16
 919              	.LCFI43:
 920              		.cfi_def_cfa_offset 24
 921 0004 00AF     		add	r7, sp, #0
 922              	.LCFI44:
 923              		.cfi_def_cfa_register 7
 924 0006 F860     		str	r0, [r7, #12]
 925 0008 B960     		str	r1, [r7, #8]
 926 000a 7A60     		str	r2, [r7, #4]
 285:C:/data/workspaces/github/de.protos.demos/src/HexagonCANDemo/etrice.HexagonCANDemo.demo/src-gen-st/room/basic/service/can\ACANService.c **** 	ET_MSC_LOGGER_SYNC_ENTRY("ACANService", "_receiveMessage")
 286:C:/data/workspaces/github/de.protos.demos/src/HexagonCANDemo/etrice.HexagonCANDemo.demo/src-gen-st/room/basic/service/can\ACANService.c **** 	
 287:C:/data/workspaces/github/de.protos.demos/src/HexagonCANDemo/etrice.HexagonCANDemo.demo/src-gen-st/room/basic/service/can\ACANService.c **** 	ACANService_receiveEvent(self, (etPort*)ifitem, msg->evtID, (void*)(((char*)msg)+MEM_CEIL(sizeof(e
 927              		.loc 1 287 0
 928 000c 7B68     		ldr	r3, [r7, #4]
 929 000e DB88     		ldrh	r3, [r3, #6]
 930 0010 1AB2     		sxth	r2, r3
 931 0012 7B68     		ldr	r3, [r7, #4]
 932 0014 03F10803 		add	r3, r3, #8
 933 0018 F868     		ldr	r0, [r7, #12]
 934 001a B968     		ldr	r1, [r7, #8]
 935 001c FFF7FEFF 		bl	ACANService_receiveEvent
 288:C:/data/workspaces/github/de.protos.demos/src/HexagonCANDemo/etrice.HexagonCANDemo.demo/src-gen-st/room/basic/service/can\ACANService.c **** 	
 289:C:/data/workspaces/github/de.protos.demos/src/HexagonCANDemo/etrice.HexagonCANDemo.demo/src-gen-st/room/basic/service/can\ACANService.c **** 	ET_MSC_LOGGER_SYNC_EXIT
 290:C:/data/workspaces/github/de.protos.demos/src/HexagonCANDemo/etrice.HexagonCANDemo.demo/src-gen-st/room/basic/service/can\ACANService.c **** }
 936              		.loc 1 290 0
 937 0020 07F11007 		add	r7, r7, #16
 938 0024 BD46     		mov	sp, r7
 939 0026 80BD     		pop	{r7, pc}
 940              		.cfi_endproc
 941              	.LFE14:
 943              		.section	.text.ACANService_pollAllRxMsgs,"ax",%progbits
 944              		.align	2
 945              		.global	ACANService_pollAllRxMsgs
 946              		.thumb
 947              		.thumb_func
 949              	ACANService_pollAllRxMsgs:
 950              	.LFB15:
 291:C:/data/workspaces/github/de.protos.demos/src/HexagonCANDemo/etrice.HexagonCANDemo.demo/src-gen-st/room/basic/service/can\ACANService.c **** 
 292:C:/data/workspaces/github/de.protos.demos/src/HexagonCANDemo/etrice.HexagonCANDemo.demo/src-gen-st/room/basic/service/can\ACANService.c **** 
 293:C:/data/workspaces/github/de.protos.demos/src/HexagonCANDemo/etrice.HexagonCANDemo.demo/src-gen-st/room/basic/service/can\ACANService.c **** /*--------------------- operations ---------------------*/
 294:C:/data/workspaces/github/de.protos.demos/src/HexagonCANDemo/etrice.HexagonCANDemo.demo/src-gen-st/room/basic/service/can\ACANService.c **** void ACANService_pollAllRxMsgs(ACANService* self) {
 951              		.loc 1 294 0
 952              		.cfi_startproc
 953              		@ args = 0, pretend = 0, frame = 32
 954              		@ frame_needed = 1, uses_anonymous_args = 0
 955 0000 80B5     		push	{r7, lr}
 956              	.LCFI45:
 957              		.cfi_def_cfa_offset 8
 958              		.cfi_offset 7, -8
 959              		.cfi_offset 14, -4
 960 0002 88B0     		sub	sp, sp, #32
 961              	.LCFI46:
 962              		.cfi_def_cfa_offset 40
 963 0004 00AF     		add	r7, sp, #0
 964              	.LCFI47:
 965              		.cfi_def_cfa_register 7
 966 0006 7860     		str	r0, [r7, #4]
 295:C:/data/workspaces/github/de.protos.demos/src/HexagonCANDemo/etrice.HexagonCANDemo.demo/src-gen-st/room/basic/service/can\ACANService.c **** 	pclCANMsg msg;
 296:C:/data/workspaces/github/de.protos.demos/src/HexagonCANDemo/etrice.HexagonCANDemo.demo/src-gen-st/room/basic/service/can\ACANService.c **** 	uint32 i;
 297:C:/data/workspaces/github/de.protos.demos/src/HexagonCANDemo/etrice.HexagonCANDemo.demo/src-gen-st/room/basic/service/can\ACANService.c **** 	uint8 val;
 298:C:/data/workspaces/github/de.protos.demos/src/HexagonCANDemo/etrice.HexagonCANDemo.demo/src-gen-st/room/basic/service/can\ACANService.c **** 	uint32 numberOfPorts = PCANRxReplPort_getReplication(&(self->constData->canRx));
 967              		.loc 1 298 0
 968 0008 7B68     		ldr	r3, [r7, #4]
 969 000a 1B68     		ldr	r3, [r3, #0]
 970 000c 03F11403 		add	r3, r3, #20
 971 0010 1846     		mov	r0, r3
 972 0012 FFF7FEFF 		bl	PCANRxReplPort_getReplication
 973 0016 0346     		mov	r3, r0
 974 0018 BB61     		str	r3, [r7, #24]
 299:C:/data/workspaces/github/de.protos.demos/src/HexagonCANDemo/etrice.HexagonCANDemo.demo/src-gen-st/room/basic/service/can\ACANService.c **** 	pclCANReadAllMsgs();
 975              		.loc 1 299 0
 976 001a FFF7FEFF 		bl	pclCANReadAllMsgs
 300:C:/data/workspaces/github/de.protos.demos/src/HexagonCANDemo/etrice.HexagonCANDemo.demo/src-gen-st/room/basic/service/can\ACANService.c **** 	for(i=0;i<numberOfPorts;i++){
 977              		.loc 1 300 0
 978 001e 4FF00003 		mov	r3, #0
 979 0022 FB61     		str	r3, [r7, #28]
 980 0024 1EE0     		b	.L57
 981              	.L59:
 301:C:/data/workspaces/github/de.protos.demos/src/HexagonCANDemo/etrice.HexagonCANDemo.demo/src-gen-st/room/basic/service/can\ACANService.c **** 		if (PCL_TRUE == pclCANCheckReception(rxData[i].channel, &msg)){
 982              		.loc 1 301 0
 983 0026 7A68     		ldr	r2, [r7, #4]
 984 0028 FB69     		ldr	r3, [r7, #28]
 985 002a 4FEA8303 		lsl	r3, r3, #2
 986 002e D318     		adds	r3, r2, r3
 987 0030 5A68     		ldr	r2, [r3, #4]
 988 0032 07F10803 		add	r3, r7, #8
 989 0036 1046     		mov	r0, r2
 990 0038 1946     		mov	r1, r3
 991 003a FFF7FEFF 		bl	pclCANCheckReception
 992 003e 0346     		mov	r3, r0
 993 0040 012B     		cmp	r3, #1
 994 0042 0BD1     		bne	.L58
 302:C:/data/workspaces/github/de.protos.demos/src/HexagonCANDemo/etrice.HexagonCANDemo.demo/src-gen-st/room/basic/service/can\ACANService.c **** 			canRx_msgReceived(i, &msg);
 995              		.loc 1 302 0
 996 0044 7B68     		ldr	r3, [r7, #4]
 997 0046 1B68     		ldr	r3, [r3, #0]
 998 0048 03F11401 		add	r1, r3, #20
 999 004c FA69     		ldr	r2, [r7, #28]
 1000 004e 07F10803 		add	r3, r7, #8
 1001 0052 0846     		mov	r0, r1
 1002 0054 1146     		mov	r1, r2
 1003 0056 1A46     		mov	r2, r3
 1004 0058 FFF7FEFF 		bl	PCANRxReplPort_msgReceived
 1005              	.L58:
 300:C:/data/workspaces/github/de.protos.demos/src/HexagonCANDemo/etrice.HexagonCANDemo.demo/src-gen-st/room/basic/service/can\ACANService.c **** 	for(i=0;i<numberOfPorts;i++){
 1006              		.loc 1 300 0
 1007 005c FB69     		ldr	r3, [r7, #28]
 1008 005e 03F10103 		add	r3, r3, #1
 1009 0062 FB61     		str	r3, [r7, #28]
 1010              	.L57:
 300:C:/data/workspaces/github/de.protos.demos/src/HexagonCANDemo/etrice.HexagonCANDemo.demo/src-gen-st/room/basic/service/can\ACANService.c **** 	for(i=0;i<numberOfPorts;i++){
 1011              		.loc 1 300 0 is_stmt 0 discriminator 1
 1012 0064 FA69     		ldr	r2, [r7, #28]
 1013 0066 BB69     		ldr	r3, [r7, #24]
 1014 0068 9A42     		cmp	r2, r3
 1015 006a DCD3     		bcc	.L59
 303:C:/data/workspaces/github/de.protos.demos/src/HexagonCANDemo/etrice.HexagonCANDemo.demo/src-gen-st/room/basic/service/can\ACANService.c **** 			}
 304:C:/data/workspaces/github/de.protos.demos/src/HexagonCANDemo/etrice.HexagonCANDemo.demo/src-gen-st/room/basic/service/can\ACANService.c **** 		}
 305:C:/data/workspaces/github/de.protos.demos/src/HexagonCANDemo/etrice.HexagonCANDemo.demo/src-gen-st/room/basic/service/can\ACANService.c **** }
 1016              		.loc 1 305 0 is_stmt 1
 1017 006c 07F12007 		add	r7, r7, #32
 1018 0070 BD46     		mov	sp, r7
 1019 0072 80BD     		pop	{r7, pc}
 1020              		.cfi_endproc
 1021              	.LFE15:
 1023              		.text
 1024              	.Letext0:
 1025              		.file 2 "C:\\data\\workspaces\\github\\de.protos.demos\\src\\HexagonCANDemo\\etrice.runtime.c\\etR
 1026              		.file 3 "C:\\data\\workspaces\\github\\de.protos.demos\\src\\HexagonCANDemo\\etrice.runtime.c\\etR
 1027              		.file 4 "C:\\data\\workspaces\\github\\de.protos.demos\\src\\HexagonCANDemo\\etrice.HexagonCANDemo
 1028              		.file 5 "C:\\data\\workspaces\\github\\de.protos.demos\\src\\HexagonCANDemo\\etrice.runtime.c\\etR
 1029              		.file 6 "C:\\data\\workspaces\\github\\de.protos.demos\\src\\HexagonCANDemo\\etrice.runtime.c\\etR
 1030              		.file 7 "C:\\data\\workspaces\\github\\de.protos.demos\\src\\HexagonCANDemo\\etrice.runtime.c\\etR
 1031              		.file 8 "C:\\data\\workspaces\\github\\de.protos.demos\\src\\HexagonCANDemo\\etrice.runtime.c\\etR
 1032              		.file 9 "C:\\data\\workspaces\\github\\de.protos.demos\\src\\HexagonCANDemo\\etrice.runtime.c\\etR
 1033              		.file 10 "C:\\data\\workspaces\\github\\de.protos.demos\\src\\HexagonCANDemo\\etrice.runtime.c\\et
 1034              		.file 11 "C:\\data\\workspaces\\github\\de.protos.demos\\src\\HexagonCANDemo\\etrice.runtime.c\\et
 1035              		.file 12 "C:\\data\\workspaces\\github\\de.protos.demos\\src\\HexagonCANDemo\\etrice.runtime.c\\et
 1036              		.file 13 "C:\\data\\workspaces\\github\\de.protos.demos\\src\\HexagonCANDemo\\etrice.runtime.c\\et
 1037              		.file 14 "c:\\dave-3.1.10\\arm-gcc\\bin\\../lib/gcc/arm-none-eabi/4.7.4/../../../../arm-none-eabi/
 1038              		.file 15 "C:\\data\\workspaces\\github\\de.protos.demos\\src\\HexagonCANDemo\\HexagonCANDemoST/pcl
 1039              		.file 16 "C:\\data\\workspaces\\github\\de.protos.demos\\src\\HexagonCANDemo\\etrice.HexagonCANDem
 1040              		.file 17 "C:/data/workspaces/github/de.protos.demos/src/HexagonCANDemo/etrice.HexagonCANDemo.demo/