   1              		.syntax unified
   2              		.cpu cortex-m4
   3              		.eabi_attribute 27, 3
   4              		.fpu fpv4-sp-d16
   5              		.eabi_attribute 20, 1
   6              		.eabi_attribute 21, 1
   7              		.eabi_attribute 23, 3
   8              		.eabi_attribute 24, 1
   9              		.eabi_attribute 25, 1
  10              		.eabi_attribute 26, 1
  11              		.eabi_attribute 30, 6
  12              		.eabi_attribute 34, 1
  13              		.eabi_attribute 18, 4
  14              		.thumb
  15              		.file	"PCANTx.c"
  16              		.text
  17              	.Ltext0:
  18              		.cfi_sections	.debug_frame
  19              		.section	.text.PCANTxPort_valueChanged,"ax",%progbits
  20              		.align	2
  21              		.global	PCANTxPort_valueChanged
  22              		.thumb
  23              		.thumb_func
  25              	PCANTxPort_valueChanged:
  26              	.LFB0:
  27              		.file 1 "C:/data/workspaces/github/de.protos.demos/src/HexagonCANDemo/etrice.HexagonCANDemo.demo/s
   1:C:/data/workspaces/github/de.protos.demos/src/HexagonCANDemo/etrice.HexagonCANDemo.demo/src-gen-st/room/basic/service/can\PCANTx.c **** /**
   2:C:/data/workspaces/github/de.protos.demos/src/HexagonCANDemo/etrice.HexagonCANDemo.demo/src-gen-st/room/basic/service/can\PCANTx.c ****  * @author generated by eTrice
   3:C:/data/workspaces/github/de.protos.demos/src/HexagonCANDemo/etrice.HexagonCANDemo.demo/src-gen-st/room/basic/service/can\PCANTx.c ****  *
   4:C:/data/workspaces/github/de.protos.demos/src/HexagonCANDemo/etrice.HexagonCANDemo.demo/src-gen-st/room/basic/service/can\PCANTx.c ****  * Source File of ProtocolClass PCANTx
   5:C:/data/workspaces/github/de.protos.demos/src/HexagonCANDemo/etrice.HexagonCANDemo.demo/src-gen-st/room/basic/service/can\PCANTx.c ****  * 
   6:C:/data/workspaces/github/de.protos.demos/src/HexagonCANDemo/etrice.HexagonCANDemo.demo/src-gen-st/room/basic/service/can\PCANTx.c ****  */
   7:C:/data/workspaces/github/de.protos.demos/src/HexagonCANDemo/etrice.HexagonCANDemo.demo/src-gen-st/room/basic/service/can\PCANTx.c **** 
   8:C:/data/workspaces/github/de.protos.demos/src/HexagonCANDemo/etrice.HexagonCANDemo.demo/src-gen-st/room/basic/service/can\PCANTx.c **** #include "PCANTx.h"
   9:C:/data/workspaces/github/de.protos.demos/src/HexagonCANDemo/etrice.HexagonCANDemo.demo/src-gen-st/room/basic/service/can\PCANTx.c **** #include "debugging/etMSCLogger.h"
  10:C:/data/workspaces/github/de.protos.demos/src/HexagonCANDemo/etrice.HexagonCANDemo.demo/src-gen-st/room/basic/service/can\PCANTx.c **** #include "PCANTx_Utils.h"
  11:C:/data/workspaces/github/de.protos.demos/src/HexagonCANDemo/etrice.HexagonCANDemo.demo/src-gen-st/room/basic/service/can\PCANTx.c **** 
  12:C:/data/workspaces/github/de.protos.demos/src/HexagonCANDemo/etrice.HexagonCANDemo.demo/src-gen-st/room/basic/service/can\PCANTx.c **** 
  13:C:/data/workspaces/github/de.protos.demos/src/HexagonCANDemo/etrice.HexagonCANDemo.demo/src-gen-st/room/basic/service/can\PCANTx.c **** /*--------------------- port methods */
  14:C:/data/workspaces/github/de.protos.demos/src/HexagonCANDemo/etrice.HexagonCANDemo.demo/src-gen-st/room/basic/service/can\PCANTx.c **** 
  15:C:/data/workspaces/github/de.protos.demos/src/HexagonCANDemo/etrice.HexagonCANDemo.demo/src-gen-st/room/basic/service/can\PCANTx.c **** void PCANTxPort_valueChanged(const PCANTxPort* self, uint8 data__et) {
  28              		.loc 1 15 0
  29              		.cfi_startproc
  30              		@ args = 0, pretend = 0, frame = 8
  31              		@ frame_needed = 1, uses_anonymous_args = 0
  32 0000 80B5     		push	{r7, lr}
  33              	.LCFI0:
  34              		.cfi_def_cfa_offset 8
  35              		.cfi_offset 7, -8
  36              		.cfi_offset 14, -4
  37 0002 82B0     		sub	sp, sp, #8
  38              	.LCFI1:
  39              		.cfi_def_cfa_offset 16
  40 0004 00AF     		add	r7, sp, #0
  41              	.LCFI2:
  42              		.cfi_def_cfa_register 7
  43 0006 7860     		str	r0, [r7, #4]
  44 0008 0B46     		mov	r3, r1
  45 000a FB70     		strb	r3, [r7, #3]
  16:C:/data/workspaces/github/de.protos.demos/src/HexagonCANDemo/etrice.HexagonCANDemo.demo/src-gen-st/room/basic/service/can\PCANTx.c **** 	ET_MSC_LOGGER_SYNC_ENTRY("PCANTxPort", "valueChanged")
  17:C:/data/workspaces/github/de.protos.demos/src/HexagonCANDemo/etrice.HexagonCANDemo.demo/src-gen-st/room/basic/service/can\PCANTx.c **** 		etPort_sendMessage(self, PCANTx_OUT_valueChanged, sizeof(uint8), &data__et);
  46              		.loc 1 17 0
  47 000c 07F10303 		add	r3, r7, #3
  48 0010 7868     		ldr	r0, [r7, #4]
  49 0012 4FF00101 		mov	r1, #1
  50 0016 4FF00102 		mov	r2, #1
  51 001a FFF7FEFF 		bl	etPort_sendMessage
  18:C:/data/workspaces/github/de.protos.demos/src/HexagonCANDemo/etrice.HexagonCANDemo.demo/src-gen-st/room/basic/service/can\PCANTx.c **** 	ET_MSC_LOGGER_SYNC_EXIT
  19:C:/data/workspaces/github/de.protos.demos/src/HexagonCANDemo/etrice.HexagonCANDemo.demo/src-gen-st/room/basic/service/can\PCANTx.c **** }
  52              		.loc 1 19 0
  53 001e 07F10807 		add	r7, r7, #8
  54 0022 BD46     		mov	sp, r7
  55 0024 80BD     		pop	{r7, pc}
  56              		.cfi_endproc
  57              	.LFE0:
  59 0026 00BF     		.section	.text.PCANTxReplPort_valueChanged_broadcast,"ax",%progbits
  60              		.align	2
  61              		.global	PCANTxReplPort_valueChanged_broadcast
  62              		.thumb
  63              		.thumb_func
  65              	PCANTxReplPort_valueChanged_broadcast:
  66              	.LFB1:
  20:C:/data/workspaces/github/de.protos.demos/src/HexagonCANDemo/etrice.HexagonCANDemo.demo/src-gen-st/room/basic/service/can\PCANTx.c **** 
  21:C:/data/workspaces/github/de.protos.demos/src/HexagonCANDemo/etrice.HexagonCANDemo.demo/src-gen-st/room/basic/service/can\PCANTx.c **** void PCANTxReplPort_valueChanged_broadcast(const PCANTxReplPort* self, uint8 data__et) {
  67              		.loc 1 21 0
  68              		.cfi_startproc
  69              		@ args = 0, pretend = 0, frame = 16
  70              		@ frame_needed = 1, uses_anonymous_args = 0
  71 0000 80B5     		push	{r7, lr}
  72              	.LCFI3:
  73              		.cfi_def_cfa_offset 8
  74              		.cfi_offset 7, -8
  75              		.cfi_offset 14, -4
  76 0002 84B0     		sub	sp, sp, #16
  77              	.LCFI4:
  78              		.cfi_def_cfa_offset 24
  79 0004 00AF     		add	r7, sp, #0
  80              	.LCFI5:
  81              		.cfi_def_cfa_register 7
  82 0006 7860     		str	r0, [r7, #4]
  83 0008 0B46     		mov	r3, r1
  84 000a FB70     		strb	r3, [r7, #3]
  22:C:/data/workspaces/github/de.protos.demos/src/HexagonCANDemo/etrice.HexagonCANDemo.demo/src-gen-st/room/basic/service/can\PCANTx.c **** 	int i;
  23:C:/data/workspaces/github/de.protos.demos/src/HexagonCANDemo/etrice.HexagonCANDemo.demo/src-gen-st/room/basic/service/can\PCANTx.c **** 	ET_MSC_LOGGER_SYNC_ENTRY("PCANTxReplPort", "valueChanged")
  24:C:/data/workspaces/github/de.protos.demos/src/HexagonCANDemo/etrice.HexagonCANDemo.demo/src-gen-st/room/basic/service/can\PCANTx.c **** 	for (i=0; i<((etReplPort*)self)->size; ++i) {
  85              		.loc 1 24 0
  86 000c 4FF00003 		mov	r3, #0
  87 0010 FB60     		str	r3, [r7, #12]
  88 0012 13E0     		b	.L3
  89              	.L4:
  25:C:/data/workspaces/github/de.protos.demos/src/HexagonCANDemo/etrice.HexagonCANDemo.demo/src-gen-st/room/basic/service/can\PCANTx.c **** 		etPort_sendMessage((&((etReplPort*)self)->ports[i].port), PCANTx_OUT_valueChanged, sizeof(uint8),
  90              		.loc 1 25 0 discriminator 2
  91 0014 7B68     		ldr	r3, [r7, #4]
  92 0016 5A68     		ldr	r2, [r3, #4]
  93 0018 FB68     		ldr	r3, [r7, #12]
  94 001a 4FEA0313 		lsl	r3, r3, #4
  95 001e D318     		adds	r3, r2, r3
  96 0020 1A46     		mov	r2, r3
  97 0022 07F10303 		add	r3, r7, #3
  98 0026 1046     		mov	r0, r2
  99 0028 4FF00101 		mov	r1, #1
 100 002c 4FF00102 		mov	r2, #1
 101 0030 FFF7FEFF 		bl	etPort_sendMessage
  24:C:/data/workspaces/github/de.protos.demos/src/HexagonCANDemo/etrice.HexagonCANDemo.demo/src-gen-st/room/basic/service/can\PCANTx.c **** 	for (i=0; i<((etReplPort*)self)->size; ++i) {
 102              		.loc 1 24 0 discriminator 2
 103 0034 FB68     		ldr	r3, [r7, #12]
 104 0036 03F10103 		add	r3, r3, #1
 105 003a FB60     		str	r3, [r7, #12]
 106              	.L3:
  24:C:/data/workspaces/github/de.protos.demos/src/HexagonCANDemo/etrice.HexagonCANDemo.demo/src-gen-st/room/basic/service/can\PCANTx.c **** 	for (i=0; i<((etReplPort*)self)->size; ++i) {
 107              		.loc 1 24 0 is_stmt 0 discriminator 1
 108 003c 7B68     		ldr	r3, [r7, #4]
 109 003e 1B88     		ldrh	r3, [r3, #0]
 110 0040 1AB2     		sxth	r2, r3
 111 0042 FB68     		ldr	r3, [r7, #12]
 112 0044 9A42     		cmp	r2, r3
 113 0046 E5DC     		bgt	.L4
  26:C:/data/workspaces/github/de.protos.demos/src/HexagonCANDemo/etrice.HexagonCANDemo.demo/src-gen-st/room/basic/service/can\PCANTx.c **** 	}
  27:C:/data/workspaces/github/de.protos.demos/src/HexagonCANDemo/etrice.HexagonCANDemo.demo/src-gen-st/room/basic/service/can\PCANTx.c **** 	ET_MSC_LOGGER_SYNC_EXIT
  28:C:/data/workspaces/github/de.protos.demos/src/HexagonCANDemo/etrice.HexagonCANDemo.demo/src-gen-st/room/basic/service/can\PCANTx.c **** }
 114              		.loc 1 28 0 is_stmt 1
 115 0048 07F11007 		add	r7, r7, #16
 116 004c BD46     		mov	sp, r7
 117 004e 80BD     		pop	{r7, pc}
 118              		.cfi_endproc
 119              	.LFE1:
 121              		.section	.text.PCANTxReplPort_valueChanged,"ax",%progbits
 122              		.align	2
 123              		.global	PCANTxReplPort_valueChanged
 124              		.thumb
 125              		.thumb_func
 127              	PCANTxReplPort_valueChanged:
 128              	.LFB2:
  29:C:/data/workspaces/github/de.protos.demos/src/HexagonCANDemo/etrice.HexagonCANDemo.demo/src-gen-st/room/basic/service/can\PCANTx.c **** 
  30:C:/data/workspaces/github/de.protos.demos/src/HexagonCANDemo/etrice.HexagonCANDemo.demo/src-gen-st/room/basic/service/can\PCANTx.c **** void PCANTxReplPort_valueChanged(const PCANTxReplPort* self, int idx__et, uint8 data__et) {
 129              		.loc 1 30 0
 130              		.cfi_startproc
 131              		@ args = 0, pretend = 0, frame = 16
 132              		@ frame_needed = 1, uses_anonymous_args = 0
 133 0000 80B5     		push	{r7, lr}
 134              	.LCFI6:
 135              		.cfi_def_cfa_offset 8
 136              		.cfi_offset 7, -8
 137              		.cfi_offset 14, -4
 138 0002 84B0     		sub	sp, sp, #16
 139              	.LCFI7:
 140              		.cfi_def_cfa_offset 24
 141 0004 00AF     		add	r7, sp, #0
 142              	.LCFI8:
 143              		.cfi_def_cfa_register 7
 144 0006 F860     		str	r0, [r7, #12]
 145 0008 B960     		str	r1, [r7, #8]
 146 000a 1346     		mov	r3, r2
 147 000c FB71     		strb	r3, [r7, #7]
  31:C:/data/workspaces/github/de.protos.demos/src/HexagonCANDemo/etrice.HexagonCANDemo.demo/src-gen-st/room/basic/service/can\PCANTx.c **** 	ET_MSC_LOGGER_SYNC_ENTRY("PCANTxReplPort", "valueChanged")
  32:C:/data/workspaces/github/de.protos.demos/src/HexagonCANDemo/etrice.HexagonCANDemo.demo/src-gen-st/room/basic/service/can\PCANTx.c **** 	if (0<=idx__et && idx__et<((etReplPort*)self)->size) {
 148              		.loc 1 32 0
 149 000e BB68     		ldr	r3, [r7, #8]
 150 0010 002B     		cmp	r3, #0
 151 0012 15DB     		blt	.L5
 152              		.loc 1 32 0 is_stmt 0 discriminator 1
 153 0014 FB68     		ldr	r3, [r7, #12]
 154 0016 1B88     		ldrh	r3, [r3, #0]
 155 0018 1AB2     		sxth	r2, r3
 156 001a BB68     		ldr	r3, [r7, #8]
 157 001c 9A42     		cmp	r2, r3
 158 001e 0FDD     		ble	.L5
  33:C:/data/workspaces/github/de.protos.demos/src/HexagonCANDemo/etrice.HexagonCANDemo.demo/src-gen-st/room/basic/service/can\PCANTx.c **** 		etPort_sendMessage((&((etReplPort*)self)->ports[idx__et].port), PCANTx_OUT_valueChanged, sizeof(u
 159              		.loc 1 33 0 is_stmt 1
 160 0020 FB68     		ldr	r3, [r7, #12]
 161 0022 5A68     		ldr	r2, [r3, #4]
 162 0024 BB68     		ldr	r3, [r7, #8]
 163 0026 4FEA0313 		lsl	r3, r3, #4
 164 002a D318     		adds	r3, r2, r3
 165 002c 1A46     		mov	r2, r3
 166 002e 07F10703 		add	r3, r7, #7
 167 0032 1046     		mov	r0, r2
 168 0034 4FF00101 		mov	r1, #1
 169 0038 4FF00102 		mov	r2, #1
 170 003c FFF7FEFF 		bl	etPort_sendMessage
 171              	.L5:
  34:C:/data/workspaces/github/de.protos.demos/src/HexagonCANDemo/etrice.HexagonCANDemo.demo/src-gen-st/room/basic/service/can\PCANTx.c **** 	}
  35:C:/data/workspaces/github/de.protos.demos/src/HexagonCANDemo/etrice.HexagonCANDemo.demo/src-gen-st/room/basic/service/can\PCANTx.c **** 	ET_MSC_LOGGER_SYNC_EXIT
  36:C:/data/workspaces/github/de.protos.demos/src/HexagonCANDemo/etrice.HexagonCANDemo.demo/src-gen-st/room/basic/service/can\PCANTx.c **** }
 172              		.loc 1 36 0
 173 0040 07F11007 		add	r7, r7, #16
 174 0044 BD46     		mov	sp, r7
 175 0046 80BD     		pop	{r7, pc}
 176              		.cfi_endproc
 177              	.LFE2:
 179              		.section	.text.PCANTxReplPort_getReplication,"ax",%progbits
 180              		.align	2
 181              		.global	PCANTxReplPort_getReplication
 182              		.thumb
 183              		.thumb_func
 185              	PCANTxReplPort_getReplication:
 186              	.LFB3:
  37:C:/data/workspaces/github/de.protos.demos/src/HexagonCANDemo/etrice.HexagonCANDemo.demo/src-gen-st/room/basic/service/can\PCANTx.c **** 
  38:C:/data/workspaces/github/de.protos.demos/src/HexagonCANDemo/etrice.HexagonCANDemo.demo/src-gen-st/room/basic/service/can\PCANTx.c **** etInt32 PCANTxReplPort_getReplication(const PCANTxReplPort* self) {
 187              		.loc 1 38 0
 188              		.cfi_startproc
 189              		@ args = 0, pretend = 0, frame = 8
 190              		@ frame_needed = 1, uses_anonymous_args = 0
 191              		@ link register save eliminated.
 192 0000 80B4     		push	{r7}
 193              	.LCFI9:
 194              		.cfi_def_cfa_offset 4
 195              		.cfi_offset 7, -4
 196 0002 83B0     		sub	sp, sp, #12
 197              	.LCFI10:
 198              		.cfi_def_cfa_offset 16
 199 0004 00AF     		add	r7, sp, #0
 200              	.LCFI11:
 201              		.cfi_def_cfa_register 7
 202 0006 7860     		str	r0, [r7, #4]
  39:C:/data/workspaces/github/de.protos.demos/src/HexagonCANDemo/etrice.HexagonCANDemo.demo/src-gen-st/room/basic/service/can\PCANTx.c **** 	return ((etReplPort*)self)->size;
 203              		.loc 1 39 0
 204 0008 7B68     		ldr	r3, [r7, #4]
 205 000a 1B88     		ldrh	r3, [r3, #0]
 206 000c 1BB2     		sxth	r3, r3
  40:C:/data/workspaces/github/de.protos.demos/src/HexagonCANDemo/etrice.HexagonCANDemo.demo/src-gen-st/room/basic/service/can\PCANTx.c **** }
 207              		.loc 1 40 0
 208 000e 1846     		mov	r0, r3
 209 0010 07F10C07 		add	r7, r7, #12
 210 0014 BD46     		mov	sp, r7
 211 0016 80BC     		pop	{r7}
 212 0018 7047     		bx	lr
 213              		.cfi_endproc
 214              	.LFE3:
 216 001a 00BF     		.section	.text.PCANTxConjPort_init,"ax",%progbits
 217              		.align	2
 218              		.global	PCANTxConjPort_init
 219              		.thumb
 220              		.thumb_func
 222              	PCANTxConjPort_init:
 223              	.LFB4:
  41:C:/data/workspaces/github/de.protos.demos/src/HexagonCANDemo/etrice.HexagonCANDemo.demo/src-gen-st/room/basic/service/can\PCANTx.c **** 
  42:C:/data/workspaces/github/de.protos.demos/src/HexagonCANDemo/etrice.HexagonCANDemo.demo/src-gen-st/room/basic/service/can\PCANTx.c **** 
  43:C:/data/workspaces/github/de.protos.demos/src/HexagonCANDemo/etrice.HexagonCANDemo.demo/src-gen-st/room/basic/service/can\PCANTx.c **** 
  44:C:/data/workspaces/github/de.protos.demos/src/HexagonCANDemo/etrice.HexagonCANDemo.demo/src-gen-st/room/basic/service/can\PCANTx.c **** void PCANTxConjPort_init(const PCANTxConjPort* self, uint32 data__et) {
 224              		.loc 1 44 0
 225              		.cfi_startproc
 226              		@ args = 0, pretend = 0, frame = 8
 227              		@ frame_needed = 1, uses_anonymous_args = 0
 228 0000 80B5     		push	{r7, lr}
 229              	.LCFI12:
 230              		.cfi_def_cfa_offset 8
 231              		.cfi_offset 7, -8
 232              		.cfi_offset 14, -4
 233 0002 82B0     		sub	sp, sp, #8
 234              	.LCFI13:
 235              		.cfi_def_cfa_offset 16
 236 0004 00AF     		add	r7, sp, #0
 237              	.LCFI14:
 238              		.cfi_def_cfa_register 7
 239 0006 7860     		str	r0, [r7, #4]
 240 0008 3960     		str	r1, [r7, #0]
  45:C:/data/workspaces/github/de.protos.demos/src/HexagonCANDemo/etrice.HexagonCANDemo.demo/src-gen-st/room/basic/service/can\PCANTx.c **** 	ET_MSC_LOGGER_SYNC_ENTRY("PCANTxConjPort", "init")
  46:C:/data/workspaces/github/de.protos.demos/src/HexagonCANDemo/etrice.HexagonCANDemo.demo/src-gen-st/room/basic/service/can\PCANTx.c **** 	if(data__et != ET_CAN_CHANNEL_NOT_DEFINED) pChannel=data__et;
 241              		.loc 1 46 0
 242 000a 3B68     		ldr	r3, [r7, #0]
 243 000c B3F1FF3F 		cmp	r3, #-1
 244 0010 03D0     		beq	.L10
 245              		.loc 1 46 0 is_stmt 0 discriminator 1
 246 0012 7B68     		ldr	r3, [r7, #4]
 247 0014 1B68     		ldr	r3, [r3, #0]
 248 0016 3A68     		ldr	r2, [r7, #0]
 249 0018 1A60     		str	r2, [r3, #0]
 250              	.L10:
  47:C:/data/workspaces/github/de.protos.demos/src/HexagonCANDemo/etrice.HexagonCANDemo.demo/src-gen-st/room/basic/service/can\PCANTx.c **** 	etPort_sendMessage(self, PCANTx_IN_init, sizeof(uint32), &pChannel);
 251              		.loc 1 47 0 is_stmt 1
 252 001a 7B68     		ldr	r3, [r7, #4]
 253 001c 1B68     		ldr	r3, [r3, #0]
 254 001e 7868     		ldr	r0, [r7, #4]
 255 0020 4FF00201 		mov	r1, #2
 256 0024 4FF00402 		mov	r2, #4
 257 0028 FFF7FEFF 		bl	etPort_sendMessage
  48:C:/data/workspaces/github/de.protos.demos/src/HexagonCANDemo/etrice.HexagonCANDemo.demo/src-gen-st/room/basic/service/can\PCANTx.c **** 	ET_MSC_LOGGER_SYNC_EXIT
  49:C:/data/workspaces/github/de.protos.demos/src/HexagonCANDemo/etrice.HexagonCANDemo.demo/src-gen-st/room/basic/service/can\PCANTx.c **** }
 258              		.loc 1 49 0
 259 002c 07F10807 		add	r7, r7, #8
 260 0030 BD46     		mov	sp, r7
 261 0032 80BD     		pop	{r7, pc}
 262              		.cfi_endproc
 263              	.LFE4:
 265              		.section	.text.PCANTxConjReplPort_init_broadcast,"ax",%progbits
 266              		.align	2
 267              		.global	PCANTxConjReplPort_init_broadcast
 268              		.thumb
 269              		.thumb_func
 271              	PCANTxConjReplPort_init_broadcast:
 272              	.LFB5:
  50:C:/data/workspaces/github/de.protos.demos/src/HexagonCANDemo/etrice.HexagonCANDemo.demo/src-gen-st/room/basic/service/can\PCANTx.c **** 
  51:C:/data/workspaces/github/de.protos.demos/src/HexagonCANDemo/etrice.HexagonCANDemo.demo/src-gen-st/room/basic/service/can\PCANTx.c **** void PCANTxConjReplPort_init_broadcast(const PCANTxConjReplPort* self, uint32 data__et) {
 273              		.loc 1 51 0
 274              		.cfi_startproc
 275              		@ args = 0, pretend = 0, frame = 16
 276              		@ frame_needed = 1, uses_anonymous_args = 0
 277 0000 80B5     		push	{r7, lr}
 278              	.LCFI15:
 279              		.cfi_def_cfa_offset 8
 280              		.cfi_offset 7, -8
 281              		.cfi_offset 14, -4
 282 0002 84B0     		sub	sp, sp, #16
 283              	.LCFI16:
 284              		.cfi_def_cfa_offset 24
 285 0004 00AF     		add	r7, sp, #0
 286              	.LCFI17:
 287              		.cfi_def_cfa_register 7
 288 0006 7860     		str	r0, [r7, #4]
 289 0008 3960     		str	r1, [r7, #0]
  52:C:/data/workspaces/github/de.protos.demos/src/HexagonCANDemo/etrice.HexagonCANDemo.demo/src-gen-st/room/basic/service/can\PCANTx.c **** 	int i;
  53:C:/data/workspaces/github/de.protos.demos/src/HexagonCANDemo/etrice.HexagonCANDemo.demo/src-gen-st/room/basic/service/can\PCANTx.c **** 	for (i=0; i<((etReplPort*)self)->size; ++i) {
 290              		.loc 1 53 0
 291 000a 4FF00003 		mov	r3, #0
 292 000e FB60     		str	r3, [r7, #12]
 293 0010 0DE0     		b	.L12
 294              	.L13:
  54:C:/data/workspaces/github/de.protos.demos/src/HexagonCANDemo/etrice.HexagonCANDemo.demo/src-gen-st/room/basic/service/can\PCANTx.c **** 		PCANTxConjPort_init(&((etReplPort*)self)->ports[i].port, data__et);
 295              		.loc 1 54 0 discriminator 2
 296 0012 7B68     		ldr	r3, [r7, #4]
 297 0014 5A68     		ldr	r2, [r3, #4]
 298 0016 FB68     		ldr	r3, [r7, #12]
 299 0018 4FEA0313 		lsl	r3, r3, #4
 300 001c D318     		adds	r3, r2, r3
 301 001e 1846     		mov	r0, r3
 302 0020 3968     		ldr	r1, [r7, #0]
 303 0022 FFF7FEFF 		bl	PCANTxConjPort_init
  53:C:/data/workspaces/github/de.protos.demos/src/HexagonCANDemo/etrice.HexagonCANDemo.demo/src-gen-st/room/basic/service/can\PCANTx.c **** 	for (i=0; i<((etReplPort*)self)->size; ++i) {
 304              		.loc 1 53 0 discriminator 2
 305 0026 FB68     		ldr	r3, [r7, #12]
 306 0028 03F10103 		add	r3, r3, #1
 307 002c FB60     		str	r3, [r7, #12]
 308              	.L12:
  53:C:/data/workspaces/github/de.protos.demos/src/HexagonCANDemo/etrice.HexagonCANDemo.demo/src-gen-st/room/basic/service/can\PCANTx.c **** 	for (i=0; i<((etReplPort*)self)->size; ++i) {
 309              		.loc 1 53 0 is_stmt 0 discriminator 1
 310 002e 7B68     		ldr	r3, [r7, #4]
 311 0030 1B88     		ldrh	r3, [r3, #0]
 312 0032 1AB2     		sxth	r2, r3
 313 0034 FB68     		ldr	r3, [r7, #12]
 314 0036 9A42     		cmp	r2, r3
 315 0038 EBDC     		bgt	.L13
  55:C:/data/workspaces/github/de.protos.demos/src/HexagonCANDemo/etrice.HexagonCANDemo.demo/src-gen-st/room/basic/service/can\PCANTx.c **** 	}					
  56:C:/data/workspaces/github/de.protos.demos/src/HexagonCANDemo/etrice.HexagonCANDemo.demo/src-gen-st/room/basic/service/can\PCANTx.c **** }
 316              		.loc 1 56 0 is_stmt 1
 317 003a 07F11007 		add	r7, r7, #16
 318 003e BD46     		mov	sp, r7
 319 0040 80BD     		pop	{r7, pc}
 320              		.cfi_endproc
 321              	.LFE5:
 323 0042 00BF     		.section	.text.PCANTxConjReplPort_init,"ax",%progbits
 324              		.align	2
 325              		.global	PCANTxConjReplPort_init
 326              		.thumb
 327              		.thumb_func
 329              	PCANTxConjReplPort_init:
 330              	.LFB6:
  57:C:/data/workspaces/github/de.protos.demos/src/HexagonCANDemo/etrice.HexagonCANDemo.demo/src-gen-st/room/basic/service/can\PCANTx.c **** 
  58:C:/data/workspaces/github/de.protos.demos/src/HexagonCANDemo/etrice.HexagonCANDemo.demo/src-gen-st/room/basic/service/can\PCANTx.c **** void PCANTxConjReplPort_init(const PCANTxConjReplPort* self, int idx__et, uint32 data__et) {
 331              		.loc 1 58 0
 332              		.cfi_startproc
 333              		@ args = 0, pretend = 0, frame = 16
 334              		@ frame_needed = 1, uses_anonymous_args = 0
 335 0000 80B5     		push	{r7, lr}
 336              	.LCFI18:
 337              		.cfi_def_cfa_offset 8
 338              		.cfi_offset 7, -8
 339              		.cfi_offset 14, -4
 340 0002 84B0     		sub	sp, sp, #16
 341              	.LCFI19:
 342              		.cfi_def_cfa_offset 24
 343 0004 00AF     		add	r7, sp, #0
 344              	.LCFI20:
 345              		.cfi_def_cfa_register 7
 346 0006 F860     		str	r0, [r7, #12]
 347 0008 B960     		str	r1, [r7, #8]
 348 000a 7A60     		str	r2, [r7, #4]
  59:C:/data/workspaces/github/de.protos.demos/src/HexagonCANDemo/etrice.HexagonCANDemo.demo/src-gen-st/room/basic/service/can\PCANTx.c **** 	PCANTxConjPort_init(&((etReplPort*)self)->ports[idx__et].port, data__et);
 349              		.loc 1 59 0
 350 000c FB68     		ldr	r3, [r7, #12]
 351 000e 5A68     		ldr	r2, [r3, #4]
 352 0010 BB68     		ldr	r3, [r7, #8]
 353 0012 4FEA0313 		lsl	r3, r3, #4
 354 0016 D318     		adds	r3, r2, r3
 355 0018 1846     		mov	r0, r3
 356 001a 7968     		ldr	r1, [r7, #4]
 357 001c FFF7FEFF 		bl	PCANTxConjPort_init
  60:C:/data/workspaces/github/de.protos.demos/src/HexagonCANDemo/etrice.HexagonCANDemo.demo/src-gen-st/room/basic/service/can\PCANTx.c **** }
 358              		.loc 1 60 0
 359 0020 07F11007 		add	r7, r7, #16
 360 0024 BD46     		mov	sp, r7
 361 0026 80BD     		pop	{r7, pc}
 362              		.cfi_endproc
 363              	.LFE6:
 365              		.section	.text.PCANTxConjPort_sendMsg,"ax",%progbits
 366              		.align	2
 367              		.global	PCANTxConjPort_sendMsg
 368              		.thumb
 369              		.thumb_func
 371              	PCANTxConjPort_sendMsg:
 372              	.LFB7:
  61:C:/data/workspaces/github/de.protos.demos/src/HexagonCANDemo/etrice.HexagonCANDemo.demo/src-gen-st/room/basic/service/can\PCANTx.c **** 
  62:C:/data/workspaces/github/de.protos.demos/src/HexagonCANDemo/etrice.HexagonCANDemo.demo/src-gen-st/room/basic/service/can\PCANTx.c **** 
  63:C:/data/workspaces/github/de.protos.demos/src/HexagonCANDemo/etrice.HexagonCANDemo.demo/src-gen-st/room/basic/service/can\PCANTx.c **** void PCANTxConjPort_sendMsg(const PCANTxConjPort* self, pclCANMsg* data__et) {
 373              		.loc 1 63 0
 374              		.cfi_startproc
 375              		@ args = 0, pretend = 0, frame = 8
 376              		@ frame_needed = 1, uses_anonymous_args = 0
 377 0000 80B5     		push	{r7, lr}
 378              	.LCFI21:
 379              		.cfi_def_cfa_offset 8
 380              		.cfi_offset 7, -8
 381              		.cfi_offset 14, -4
 382 0002 82B0     		sub	sp, sp, #8
 383              	.LCFI22:
 384              		.cfi_def_cfa_offset 16
 385 0004 00AF     		add	r7, sp, #0
 386              	.LCFI23:
 387              		.cfi_def_cfa_register 7
 388 0006 7860     		str	r0, [r7, #4]
 389 0008 3960     		str	r1, [r7, #0]
  64:C:/data/workspaces/github/de.protos.demos/src/HexagonCANDemo/etrice.HexagonCANDemo.demo/src-gen-st/room/basic/service/can\PCANTx.c **** 	ET_MSC_LOGGER_SYNC_ENTRY("PCANTxConjPort", "sendMsg")
  65:C:/data/workspaces/github/de.protos.demos/src/HexagonCANDemo/etrice.HexagonCANDemo.demo/src-gen-st/room/basic/service/can\PCANTx.c **** 		etPort_sendMessage(self, PCANTx_IN_sendMsg, sizeof(pclCANMsg), data__et);
 390              		.loc 1 65 0
 391 000a 7868     		ldr	r0, [r7, #4]
 392 000c 4FF00301 		mov	r1, #3
 393 0010 4FF01002 		mov	r2, #16
 394 0014 3B68     		ldr	r3, [r7, #0]
 395 0016 FFF7FEFF 		bl	etPort_sendMessage
  66:C:/data/workspaces/github/de.protos.demos/src/HexagonCANDemo/etrice.HexagonCANDemo.demo/src-gen-st/room/basic/service/can\PCANTx.c **** 	ET_MSC_LOGGER_SYNC_EXIT
  67:C:/data/workspaces/github/de.protos.demos/src/HexagonCANDemo/etrice.HexagonCANDemo.demo/src-gen-st/room/basic/service/can\PCANTx.c **** }
 396              		.loc 1 67 0
 397 001a 07F10807 		add	r7, r7, #8
 398 001e BD46     		mov	sp, r7
 399 0020 80BD     		pop	{r7, pc}
 400              		.cfi_endproc
 401              	.LFE7:
 403 0022 00BF     		.section	.text.PCANTxConjReplPort_sendMsg_broadcast,"ax",%progbits
 404              		.align	2
 405              		.global	PCANTxConjReplPort_sendMsg_broadcast
 406              		.thumb
 407              		.thumb_func
 409              	PCANTxConjReplPort_sendMsg_broadcast:
 410              	.LFB8:
  68:C:/data/workspaces/github/de.protos.demos/src/HexagonCANDemo/etrice.HexagonCANDemo.demo/src-gen-st/room/basic/service/can\PCANTx.c **** 
  69:C:/data/workspaces/github/de.protos.demos/src/HexagonCANDemo/etrice.HexagonCANDemo.demo/src-gen-st/room/basic/service/can\PCANTx.c **** void PCANTxConjReplPort_sendMsg_broadcast(const PCANTxConjReplPort* self, pclCANMsg* data__et) {
 411              		.loc 1 69 0
 412              		.cfi_startproc
 413              		@ args = 0, pretend = 0, frame = 16
 414              		@ frame_needed = 1, uses_anonymous_args = 0
 415 0000 80B5     		push	{r7, lr}
 416              	.LCFI24:
 417              		.cfi_def_cfa_offset 8
 418              		.cfi_offset 7, -8
 419              		.cfi_offset 14, -4
 420 0002 84B0     		sub	sp, sp, #16
 421              	.LCFI25:
 422              		.cfi_def_cfa_offset 24
 423 0004 00AF     		add	r7, sp, #0
 424              	.LCFI26:
 425              		.cfi_def_cfa_register 7
 426 0006 7860     		str	r0, [r7, #4]
 427 0008 3960     		str	r1, [r7, #0]
  70:C:/data/workspaces/github/de.protos.demos/src/HexagonCANDemo/etrice.HexagonCANDemo.demo/src-gen-st/room/basic/service/can\PCANTx.c **** 	int i;
  71:C:/data/workspaces/github/de.protos.demos/src/HexagonCANDemo/etrice.HexagonCANDemo.demo/src-gen-st/room/basic/service/can\PCANTx.c **** 	ET_MSC_LOGGER_SYNC_ENTRY("PCANTxConjReplPort", "sendMsg")
  72:C:/data/workspaces/github/de.protos.demos/src/HexagonCANDemo/etrice.HexagonCANDemo.demo/src-gen-st/room/basic/service/can\PCANTx.c **** 	for (i=0; i<((etReplPort*)self)->size; ++i) {
 428              		.loc 1 72 0
 429 000a 4FF00003 		mov	r3, #0
 430 000e FB60     		str	r3, [r7, #12]
 431 0010 11E0     		b	.L17
 432              	.L18:
  73:C:/data/workspaces/github/de.protos.demos/src/HexagonCANDemo/etrice.HexagonCANDemo.demo/src-gen-st/room/basic/service/can\PCANTx.c **** 		etPort_sendMessage((&((etReplPort*)self)->ports[i].port), PCANTx_IN_sendMsg, sizeof(pclCANMsg), d
 433              		.loc 1 73 0 discriminator 2
 434 0012 7B68     		ldr	r3, [r7, #4]
 435 0014 5A68     		ldr	r2, [r3, #4]
 436 0016 FB68     		ldr	r3, [r7, #12]
 437 0018 4FEA0313 		lsl	r3, r3, #4
 438 001c D318     		adds	r3, r2, r3
 439 001e 1846     		mov	r0, r3
 440 0020 4FF00301 		mov	r1, #3
 441 0024 4FF01002 		mov	r2, #16
 442 0028 3B68     		ldr	r3, [r7, #0]
 443 002a FFF7FEFF 		bl	etPort_sendMessage
  72:C:/data/workspaces/github/de.protos.demos/src/HexagonCANDemo/etrice.HexagonCANDemo.demo/src-gen-st/room/basic/service/can\PCANTx.c **** 	for (i=0; i<((etReplPort*)self)->size; ++i) {
 444              		.loc 1 72 0 discriminator 2
 445 002e FB68     		ldr	r3, [r7, #12]
 446 0030 03F10103 		add	r3, r3, #1
 447 0034 FB60     		str	r3, [r7, #12]
 448              	.L17:
  72:C:/data/workspaces/github/de.protos.demos/src/HexagonCANDemo/etrice.HexagonCANDemo.demo/src-gen-st/room/basic/service/can\PCANTx.c **** 	for (i=0; i<((etReplPort*)self)->size; ++i) {
 449              		.loc 1 72 0 is_stmt 0 discriminator 1
 450 0036 7B68     		ldr	r3, [r7, #4]
 451 0038 1B88     		ldrh	r3, [r3, #0]
 452 003a 1AB2     		sxth	r2, r3
 453 003c FB68     		ldr	r3, [r7, #12]
 454 003e 9A42     		cmp	r2, r3
 455 0040 E7DC     		bgt	.L18
  74:C:/data/workspaces/github/de.protos.demos/src/HexagonCANDemo/etrice.HexagonCANDemo.demo/src-gen-st/room/basic/service/can\PCANTx.c **** 	}
  75:C:/data/workspaces/github/de.protos.demos/src/HexagonCANDemo/etrice.HexagonCANDemo.demo/src-gen-st/room/basic/service/can\PCANTx.c **** 	ET_MSC_LOGGER_SYNC_EXIT
  76:C:/data/workspaces/github/de.protos.demos/src/HexagonCANDemo/etrice.HexagonCANDemo.demo/src-gen-st/room/basic/service/can\PCANTx.c **** }
 456              		.loc 1 76 0 is_stmt 1
 457 0042 07F11007 		add	r7, r7, #16
 458 0046 BD46     		mov	sp, r7
 459 0048 80BD     		pop	{r7, pc}
 460              		.cfi_endproc
 461              	.LFE8:
 463 004a 00BF     		.section	.text.PCANTxConjReplPort_sendMsg,"ax",%progbits
 464              		.align	2
 465              		.global	PCANTxConjReplPort_sendMsg
 466              		.thumb
 467              		.thumb_func
 469              	PCANTxConjReplPort_sendMsg:
 470              	.LFB9:
  77:C:/data/workspaces/github/de.protos.demos/src/HexagonCANDemo/etrice.HexagonCANDemo.demo/src-gen-st/room/basic/service/can\PCANTx.c **** 
  78:C:/data/workspaces/github/de.protos.demos/src/HexagonCANDemo/etrice.HexagonCANDemo.demo/src-gen-st/room/basic/service/can\PCANTx.c **** void PCANTxConjReplPort_sendMsg(const PCANTxConjReplPort* self, int idx__et, pclCANMsg* data__et) {
 471              		.loc 1 78 0
 472              		.cfi_startproc
 473              		@ args = 0, pretend = 0, frame = 16
 474              		@ frame_needed = 1, uses_anonymous_args = 0
 475 0000 80B5     		push	{r7, lr}
 476              	.LCFI27:
 477              		.cfi_def_cfa_offset 8
 478              		.cfi_offset 7, -8
 479              		.cfi_offset 14, -4
 480 0002 84B0     		sub	sp, sp, #16
 481              	.LCFI28:
 482              		.cfi_def_cfa_offset 24
 483 0004 00AF     		add	r7, sp, #0
 484              	.LCFI29:
 485              		.cfi_def_cfa_register 7
 486 0006 F860     		str	r0, [r7, #12]
 487 0008 B960     		str	r1, [r7, #8]
 488 000a 7A60     		str	r2, [r7, #4]
  79:C:/data/workspaces/github/de.protos.demos/src/HexagonCANDemo/etrice.HexagonCANDemo.demo/src-gen-st/room/basic/service/can\PCANTx.c **** 	ET_MSC_LOGGER_SYNC_ENTRY("PCANTxConjReplPort", "sendMsg")
  80:C:/data/workspaces/github/de.protos.demos/src/HexagonCANDemo/etrice.HexagonCANDemo.demo/src-gen-st/room/basic/service/can\PCANTx.c **** 	if (0<=idx__et && idx__et<((etReplPort*)self)->size) {
 489              		.loc 1 80 0
 490 000c BB68     		ldr	r3, [r7, #8]
 491 000e 002B     		cmp	r3, #0
 492 0010 13DB     		blt	.L19
 493              		.loc 1 80 0 is_stmt 0 discriminator 1
 494 0012 FB68     		ldr	r3, [r7, #12]
 495 0014 1B88     		ldrh	r3, [r3, #0]
 496 0016 1AB2     		sxth	r2, r3
 497 0018 BB68     		ldr	r3, [r7, #8]
 498 001a 9A42     		cmp	r2, r3
 499 001c 0DDD     		ble	.L19
  81:C:/data/workspaces/github/de.protos.demos/src/HexagonCANDemo/etrice.HexagonCANDemo.demo/src-gen-st/room/basic/service/can\PCANTx.c **** 		etPort_sendMessage((&((etReplPort*)self)->ports[idx__et].port), PCANTx_IN_sendMsg, sizeof(pclCANM
 500              		.loc 1 81 0 is_stmt 1
 501 001e FB68     		ldr	r3, [r7, #12]
 502 0020 5A68     		ldr	r2, [r3, #4]
 503 0022 BB68     		ldr	r3, [r7, #8]
 504 0024 4FEA0313 		lsl	r3, r3, #4
 505 0028 D318     		adds	r3, r2, r3
 506 002a 1846     		mov	r0, r3
 507 002c 4FF00301 		mov	r1, #3
 508 0030 4FF01002 		mov	r2, #16
 509 0034 7B68     		ldr	r3, [r7, #4]
 510 0036 FFF7FEFF 		bl	etPort_sendMessage
 511              	.L19:
  82:C:/data/workspaces/github/de.protos.demos/src/HexagonCANDemo/etrice.HexagonCANDemo.demo/src-gen-st/room/basic/service/can\PCANTx.c **** 	}
  83:C:/data/workspaces/github/de.protos.demos/src/HexagonCANDemo/etrice.HexagonCANDemo.demo/src-gen-st/room/basic/service/can\PCANTx.c **** 	ET_MSC_LOGGER_SYNC_EXIT
  84:C:/data/workspaces/github/de.protos.demos/src/HexagonCANDemo/etrice.HexagonCANDemo.demo/src-gen-st/room/basic/service/can\PCANTx.c **** }
 512              		.loc 1 84 0
 513 003a 07F11007 		add	r7, r7, #16
 514 003e BD46     		mov	sp, r7
 515 0040 80BD     		pop	{r7, pc}
 516              		.cfi_endproc
 517              	.LFE9:
 519 0042 00BF     		.section	.text.PCANTxConjPort_resendMsg,"ax",%progbits
 520              		.align	2
 521              		.global	PCANTxConjPort_resendMsg
 522              		.thumb
 523              		.thumb_func
 525              	PCANTxConjPort_resendMsg:
 526              	.LFB10:
  85:C:/data/workspaces/github/de.protos.demos/src/HexagonCANDemo/etrice.HexagonCANDemo.demo/src-gen-st/room/basic/service/can\PCANTx.c **** 
  86:C:/data/workspaces/github/de.protos.demos/src/HexagonCANDemo/etrice.HexagonCANDemo.demo/src-gen-st/room/basic/service/can\PCANTx.c **** 
  87:C:/data/workspaces/github/de.protos.demos/src/HexagonCANDemo/etrice.HexagonCANDemo.demo/src-gen-st/room/basic/service/can\PCANTx.c **** void PCANTxConjPort_resendMsg(const PCANTxConjPort* self) {
 527              		.loc 1 87 0
 528              		.cfi_startproc
 529              		@ args = 0, pretend = 0, frame = 8
 530              		@ frame_needed = 1, uses_anonymous_args = 0
 531 0000 80B5     		push	{r7, lr}
 532              	.LCFI30:
 533              		.cfi_def_cfa_offset 8
 534              		.cfi_offset 7, -8
 535              		.cfi_offset 14, -4
 536 0002 82B0     		sub	sp, sp, #8
 537              	.LCFI31:
 538              		.cfi_def_cfa_offset 16
 539 0004 00AF     		add	r7, sp, #0
 540              	.LCFI32:
 541              		.cfi_def_cfa_register 7
 542 0006 7860     		str	r0, [r7, #4]
  88:C:/data/workspaces/github/de.protos.demos/src/HexagonCANDemo/etrice.HexagonCANDemo.demo/src-gen-st/room/basic/service/can\PCANTx.c **** 	ET_MSC_LOGGER_SYNC_ENTRY("PCANTxConjPort", "resendMsg")
  89:C:/data/workspaces/github/de.protos.demos/src/HexagonCANDemo/etrice.HexagonCANDemo.demo/src-gen-st/room/basic/service/can\PCANTx.c **** 		etPort_sendMessage(self, PCANTx_IN_resendMsg, 0, NULL);
 543              		.loc 1 89 0
 544 0008 7868     		ldr	r0, [r7, #4]
 545 000a 4FF00401 		mov	r1, #4
 546 000e 4FF00002 		mov	r2, #0
 547 0012 4FF00003 		mov	r3, #0
 548 0016 FFF7FEFF 		bl	etPort_sendMessage
  90:C:/data/workspaces/github/de.protos.demos/src/HexagonCANDemo/etrice.HexagonCANDemo.demo/src-gen-st/room/basic/service/can\PCANTx.c **** 	ET_MSC_LOGGER_SYNC_EXIT
  91:C:/data/workspaces/github/de.protos.demos/src/HexagonCANDemo/etrice.HexagonCANDemo.demo/src-gen-st/room/basic/service/can\PCANTx.c **** }
 549              		.loc 1 91 0
 550 001a 07F10807 		add	r7, r7, #8
 551 001e BD46     		mov	sp, r7
 552 0020 80BD     		pop	{r7, pc}
 553              		.cfi_endproc
 554              	.LFE10:
 556 0022 00BF     		.section	.text.PCANTxConjReplPort_resendMsg_broadcast,"ax",%progbits
 557              		.align	2
 558              		.global	PCANTxConjReplPort_resendMsg_broadcast
 559              		.thumb
 560              		.thumb_func
 562              	PCANTxConjReplPort_resendMsg_broadcast:
 563              	.LFB11:
  92:C:/data/workspaces/github/de.protos.demos/src/HexagonCANDemo/etrice.HexagonCANDemo.demo/src-gen-st/room/basic/service/can\PCANTx.c **** 
  93:C:/data/workspaces/github/de.protos.demos/src/HexagonCANDemo/etrice.HexagonCANDemo.demo/src-gen-st/room/basic/service/can\PCANTx.c **** void PCANTxConjReplPort_resendMsg_broadcast(const PCANTxConjReplPort* self) {
 564              		.loc 1 93 0
 565              		.cfi_startproc
 566              		@ args = 0, pretend = 0, frame = 16
 567              		@ frame_needed = 1, uses_anonymous_args = 0
 568 0000 80B5     		push	{r7, lr}
 569              	.LCFI33:
 570              		.cfi_def_cfa_offset 8
 571              		.cfi_offset 7, -8
 572              		.cfi_offset 14, -4
 573 0002 84B0     		sub	sp, sp, #16
 574              	.LCFI34:
 575              		.cfi_def_cfa_offset 24
 576 0004 00AF     		add	r7, sp, #0
 577              	.LCFI35:
 578              		.cfi_def_cfa_register 7
 579 0006 7860     		str	r0, [r7, #4]
  94:C:/data/workspaces/github/de.protos.demos/src/HexagonCANDemo/etrice.HexagonCANDemo.demo/src-gen-st/room/basic/service/can\PCANTx.c **** 	int i;
  95:C:/data/workspaces/github/de.protos.demos/src/HexagonCANDemo/etrice.HexagonCANDemo.demo/src-gen-st/room/basic/service/can\PCANTx.c **** 	ET_MSC_LOGGER_SYNC_ENTRY("PCANTxConjReplPort", "resendMsg")
  96:C:/data/workspaces/github/de.protos.demos/src/HexagonCANDemo/etrice.HexagonCANDemo.demo/src-gen-st/room/basic/service/can\PCANTx.c **** 	for (i=0; i<((etReplPort*)self)->size; ++i) {
 580              		.loc 1 96 0
 581 0008 4FF00003 		mov	r3, #0
 582 000c FB60     		str	r3, [r7, #12]
 583 000e 12E0     		b	.L23
 584              	.L24:
  97:C:/data/workspaces/github/de.protos.demos/src/HexagonCANDemo/etrice.HexagonCANDemo.demo/src-gen-st/room/basic/service/can\PCANTx.c **** 		etPort_sendMessage((&((etReplPort*)self)->ports[i].port), PCANTx_IN_resendMsg, 0, NULL);
 585              		.loc 1 97 0 discriminator 2
 586 0010 7B68     		ldr	r3, [r7, #4]
 587 0012 5A68     		ldr	r2, [r3, #4]
 588 0014 FB68     		ldr	r3, [r7, #12]
 589 0016 4FEA0313 		lsl	r3, r3, #4
 590 001a D318     		adds	r3, r2, r3
 591 001c 1846     		mov	r0, r3
 592 001e 4FF00401 		mov	r1, #4
 593 0022 4FF00002 		mov	r2, #0
 594 0026 4FF00003 		mov	r3, #0
 595 002a FFF7FEFF 		bl	etPort_sendMessage
  96:C:/data/workspaces/github/de.protos.demos/src/HexagonCANDemo/etrice.HexagonCANDemo.demo/src-gen-st/room/basic/service/can\PCANTx.c **** 	for (i=0; i<((etReplPort*)self)->size; ++i) {
 596              		.loc 1 96 0 discriminator 2
 597 002e FB68     		ldr	r3, [r7, #12]
 598 0030 03F10103 		add	r3, r3, #1
 599 0034 FB60     		str	r3, [r7, #12]
 600              	.L23:
  96:C:/data/workspaces/github/de.protos.demos/src/HexagonCANDemo/etrice.HexagonCANDemo.demo/src-gen-st/room/basic/service/can\PCANTx.c **** 	for (i=0; i<((etReplPort*)self)->size; ++i) {
 601              		.loc 1 96 0 is_stmt 0 discriminator 1
 602 0036 7B68     		ldr	r3, [r7, #4]
 603 0038 1B88     		ldrh	r3, [r3, #0]
 604 003a 1AB2     		sxth	r2, r3
 605 003c FB68     		ldr	r3, [r7, #12]
 606 003e 9A42     		cmp	r2, r3
 607 0040 E6DC     		bgt	.L24
  98:C:/data/workspaces/github/de.protos.demos/src/HexagonCANDemo/etrice.HexagonCANDemo.demo/src-gen-st/room/basic/service/can\PCANTx.c **** 	}
  99:C:/data/workspaces/github/de.protos.demos/src/HexagonCANDemo/etrice.HexagonCANDemo.demo/src-gen-st/room/basic/service/can\PCANTx.c **** 	ET_MSC_LOGGER_SYNC_EXIT
 100:C:/data/workspaces/github/de.protos.demos/src/HexagonCANDemo/etrice.HexagonCANDemo.demo/src-gen-st/room/basic/service/can\PCANTx.c **** }
 608              		.loc 1 100 0 is_stmt 1
 609 0042 07F11007 		add	r7, r7, #16
 610 0046 BD46     		mov	sp, r7
 611 0048 80BD     		pop	{r7, pc}
 612              		.cfi_endproc
 613              	.LFE11:
 615 004a 00BF     		.section	.text.PCANTxConjReplPort_resendMsg,"ax",%progbits
 616              		.align	2
 617              		.global	PCANTxConjReplPort_resendMsg
 618              		.thumb
 619              		.thumb_func
 621              	PCANTxConjReplPort_resendMsg:
 622              	.LFB12:
 101:C:/data/workspaces/github/de.protos.demos/src/HexagonCANDemo/etrice.HexagonCANDemo.demo/src-gen-st/room/basic/service/can\PCANTx.c **** 
 102:C:/data/workspaces/github/de.protos.demos/src/HexagonCANDemo/etrice.HexagonCANDemo.demo/src-gen-st/room/basic/service/can\PCANTx.c **** void PCANTxConjReplPort_resendMsg(const PCANTxConjReplPort* self, int idx__et) {
 623              		.loc 1 102 0
 624              		.cfi_startproc
 625              		@ args = 0, pretend = 0, frame = 8
 626              		@ frame_needed = 1, uses_anonymous_args = 0
 627 0000 80B5     		push	{r7, lr}
 628              	.LCFI36:
 629              		.cfi_def_cfa_offset 8
 630              		.cfi_offset 7, -8
 631              		.cfi_offset 14, -4
 632 0002 82B0     		sub	sp, sp, #8
 633              	.LCFI37:
 634              		.cfi_def_cfa_offset 16
 635 0004 00AF     		add	r7, sp, #0
 636              	.LCFI38:
 637              		.cfi_def_cfa_register 7
 638 0006 7860     		str	r0, [r7, #4]
 639 0008 3960     		str	r1, [r7, #0]
 103:C:/data/workspaces/github/de.protos.demos/src/HexagonCANDemo/etrice.HexagonCANDemo.demo/src-gen-st/room/basic/service/can\PCANTx.c **** 	ET_MSC_LOGGER_SYNC_ENTRY("PCANTxConjReplPort", "resendMsg")
 104:C:/data/workspaces/github/de.protos.demos/src/HexagonCANDemo/etrice.HexagonCANDemo.demo/src-gen-st/room/basic/service/can\PCANTx.c **** 	if (0<=idx__et && idx__et<((etReplPort*)self)->size) {
 640              		.loc 1 104 0
 641 000a 3B68     		ldr	r3, [r7, #0]
 642 000c 002B     		cmp	r3, #0
 643 000e 14DB     		blt	.L25
 644              		.loc 1 104 0 is_stmt 0 discriminator 1
 645 0010 7B68     		ldr	r3, [r7, #4]
 646 0012 1B88     		ldrh	r3, [r3, #0]
 647 0014 1AB2     		sxth	r2, r3
 648 0016 3B68     		ldr	r3, [r7, #0]
 649 0018 9A42     		cmp	r2, r3
 650 001a 0EDD     		ble	.L25
 105:C:/data/workspaces/github/de.protos.demos/src/HexagonCANDemo/etrice.HexagonCANDemo.demo/src-gen-st/room/basic/service/can\PCANTx.c **** 		etPort_sendMessage((&((etReplPort*)self)->ports[idx__et].port), PCANTx_IN_resendMsg, 0, NULL);
 651              		.loc 1 105 0 is_stmt 1
 652 001c 7B68     		ldr	r3, [r7, #4]
 653 001e 5A68     		ldr	r2, [r3, #4]
 654 0020 3B68     		ldr	r3, [r7, #0]
 655 0022 4FEA0313 		lsl	r3, r3, #4
 656 0026 D318     		adds	r3, r2, r3
 657 0028 1846     		mov	r0, r3
 658 002a 4FF00401 		mov	r1, #4
 659 002e 4FF00002 		mov	r2, #0
 660 0032 4FF00003 		mov	r3, #0
 661 0036 FFF7FEFF 		bl	etPort_sendMessage
 662              	.L25:
 106:C:/data/workspaces/github/de.protos.demos/src/HexagonCANDemo/etrice.HexagonCANDemo.demo/src-gen-st/room/basic/service/can\PCANTx.c **** 	}
 107:C:/data/workspaces/github/de.protos.demos/src/HexagonCANDemo/etrice.HexagonCANDemo.demo/src-gen-st/room/basic/service/can\PCANTx.c **** 	ET_MSC_LOGGER_SYNC_EXIT
 108:C:/data/workspaces/github/de.protos.demos/src/HexagonCANDemo/etrice.HexagonCANDemo.demo/src-gen-st/room/basic/service/can\PCANTx.c **** }
 663              		.loc 1 108 0
 664 003a 07F10807 		add	r7, r7, #8
 665 003e BD46     		mov	sp, r7
 666 0040 80BD     		pop	{r7, pc}
 667              		.cfi_endproc
 668              	.LFE12:
 670 0042 00BF     		.section	.text.PCANTxConjReplPort_getReplication,"ax",%progbits
 671              		.align	2
 672              		.global	PCANTxConjReplPort_getReplication
 673              		.thumb
 674              		.thumb_func
 676              	PCANTxConjReplPort_getReplication:
 677              	.LFB13:
 109:C:/data/workspaces/github/de.protos.demos/src/HexagonCANDemo/etrice.HexagonCANDemo.demo/src-gen-st/room/basic/service/can\PCANTx.c **** 
 110:C:/data/workspaces/github/de.protos.demos/src/HexagonCANDemo/etrice.HexagonCANDemo.demo/src-gen-st/room/basic/service/can\PCANTx.c **** /* begin PCANTxConjPort specific */
 111:C:/data/workspaces/github/de.protos.demos/src/HexagonCANDemo/etrice.HexagonCANDemo.demo/src-gen-st/room/basic/service/can\PCANTx.c **** 
 112:C:/data/workspaces/github/de.protos.demos/src/HexagonCANDemo/etrice.HexagonCANDemo.demo/src-gen-st/room/basic/service/can\PCANTx.c **** /*--------------------- operations ---------------------*/
 113:C:/data/workspaces/github/de.protos.demos/src/HexagonCANDemo/etrice.HexagonCANDemo.demo/src-gen-st/room/basic/service/can\PCANTx.c **** /* end PCANTxConjPort specific */
 114:C:/data/workspaces/github/de.protos.demos/src/HexagonCANDemo/etrice.HexagonCANDemo.demo/src-gen-st/room/basic/service/can\PCANTx.c **** 
 115:C:/data/workspaces/github/de.protos.demos/src/HexagonCANDemo/etrice.HexagonCANDemo.demo/src-gen-st/room/basic/service/can\PCANTx.c **** etInt32 PCANTxConjReplPort_getReplication(const PCANTxConjReplPort* self) {
 678              		.loc 1 115 0
 679              		.cfi_startproc
 680              		@ args = 0, pretend = 0, frame = 8
 681              		@ frame_needed = 1, uses_anonymous_args = 0
 682              		@ link register save eliminated.
 683 0000 80B4     		push	{r7}
 684              	.LCFI39:
 685              		.cfi_def_cfa_offset 4
 686              		.cfi_offset 7, -4
 687 0002 83B0     		sub	sp, sp, #12
 688              	.LCFI40:
 689              		.cfi_def_cfa_offset 16
 690 0004 00AF     		add	r7, sp, #0
 691              	.LCFI41:
 692              		.cfi_def_cfa_register 7
 693 0006 7860     		str	r0, [r7, #4]
 116:C:/data/workspaces/github/de.protos.demos/src/HexagonCANDemo/etrice.HexagonCANDemo.demo/src-gen-st/room/basic/service/can\PCANTx.c **** 	return ((etReplPort*)self)->size;
 694              		.loc 1 116 0
 695 0008 7B68     		ldr	r3, [r7, #4]
 696 000a 1B88     		ldrh	r3, [r3, #0]
 697 000c 1BB2     		sxth	r3, r3
 117:C:/data/workspaces/github/de.protos.demos/src/HexagonCANDemo/etrice.HexagonCANDemo.demo/src-gen-st/room/basic/service/can\PCANTx.c **** }
 698              		.loc 1 117 0
 699 000e 1846     		mov	r0, r3
 700 0010 07F10C07 		add	r7, r7, #12
 701 0014 BD46     		mov	sp, r7
 702 0016 80BC     		pop	{r7}
 703 0018 7047     		bx	lr
 704              		.cfi_endproc
 705              	.LFE13:
 707 001a 00BF     		.text
 708              	.Letext0:
 709              		.file 2 "C:\\data\\workspaces\\github\\de.protos.demos\\src\\HexagonCANDemo\\etrice.runtime.c\\etR
 710              		.file 3 "C:\\data\\workspaces\\github\\de.protos.demos\\src\\HexagonCANDemo\\etrice.runtime.c\\etR
 711              		.file 4 "C:\\data\\workspaces\\github\\de.protos.demos\\src\\HexagonCANDemo\\etrice.runtime.c\\etR
 712              		.file 5 "C:\\data\\workspaces\\github\\de.protos.demos\\src\\HexagonCANDemo\\etrice.runtime.c\\etR
 713              		.file 6 "C:\\data\\workspaces\\github\\de.protos.demos\\src\\HexagonCANDemo\\etrice.runtime.c\\etR
 714              		.file 7 "C:\\data\\workspaces\\github\\de.protos.demos\\src\\HexagonCANDemo\\etrice.runtime.c\\etR
 715              		.file 8 "C:\\data\\workspaces\\github\\de.protos.demos\\src\\HexagonCANDemo\\etrice.runtime.c\\etR
 716              		.file 9 "C:\\data\\workspaces\\github\\de.protos.demos\\src\\HexagonCANDemo\\etrice.runtime.c\\etR
 717              		.file 10 "C:\\data\\workspaces\\github\\de.protos.demos\\src\\HexagonCANDemo\\etrice.runtime.c\\et
 718              		.file 11 "C:\\data\\workspaces\\github\\de.protos.demos\\src\\HexagonCANDemo\\etrice.runtime.c\\et
 719              		.file 12 "C:\\data\\workspaces\\github\\de.protos.demos\\src\\HexagonCANDemo\\etrice.runtime.c\\et
 720              		.file 13 "c:\\dave-3.1.10\\arm-gcc\\bin\\../lib/gcc/arm-none-eabi/4.7.4/../../../../arm-none-eabi/
 721              		.file 14 "C:\\data\\workspaces\\github\\de.protos.demos\\src\\HexagonCANDemo\\HexagonCANDemoST/pcl
 722              		.file 15 "C:/data/workspaces/github/de.protos.demos/src/HexagonCANDemo/etrice.HexagonCANDemo.demo/