   1              		.syntax unified
   2              		.cpu cortex-m4
   3              		.eabi_attribute 27, 3
   4              		.fpu fpv4-sp-d16
   5              		.eabi_attribute 20, 1
   6              		.eabi_attribute 21, 1
   7              		.eabi_attribute 23, 3
   8              		.eabi_attribute 24, 1
   9              		.eabi_attribute 25, 1
  10              		.eabi_attribute 26, 1
  11              		.eabi_attribute 30, 6
  12              		.eabi_attribute 34, 1
  13              		.eabi_attribute 18, 4
  14              		.thumb
  15              		.file	"PCANRx.c"
  16              		.text
  17              	.Ltext0:
  18              		.cfi_sections	.debug_frame
  19              		.section	.text.PCANRxPort_msgReceived,"ax",%progbits
  20              		.align	2
  21              		.global	PCANRxPort_msgReceived
  22              		.thumb
  23              		.thumb_func
  25              	PCANRxPort_msgReceived:
  26              	.LFB0:
  27              		.file 1 "C:/data/workspaces/github/de.protos.demos/src/HexagonCANDemo/etrice.HexagonCANDemo.demo/s
   1:C:/data/workspaces/github/de.protos.demos/src/HexagonCANDemo/etrice.HexagonCANDemo.demo/src-gen-st/room/basic/service/can\PCANRx.c **** /**
   2:C:/data/workspaces/github/de.protos.demos/src/HexagonCANDemo/etrice.HexagonCANDemo.demo/src-gen-st/room/basic/service/can\PCANRx.c ****  * @author generated by eTrice
   3:C:/data/workspaces/github/de.protos.demos/src/HexagonCANDemo/etrice.HexagonCANDemo.demo/src-gen-st/room/basic/service/can\PCANRx.c ****  *
   4:C:/data/workspaces/github/de.protos.demos/src/HexagonCANDemo/etrice.HexagonCANDemo.demo/src-gen-st/room/basic/service/can\PCANRx.c ****  * Source File of ProtocolClass PCANRx
   5:C:/data/workspaces/github/de.protos.demos/src/HexagonCANDemo/etrice.HexagonCANDemo.demo/src-gen-st/room/basic/service/can\PCANRx.c ****  * 
   6:C:/data/workspaces/github/de.protos.demos/src/HexagonCANDemo/etrice.HexagonCANDemo.demo/src-gen-st/room/basic/service/can\PCANRx.c ****  */
   7:C:/data/workspaces/github/de.protos.demos/src/HexagonCANDemo/etrice.HexagonCANDemo.demo/src-gen-st/room/basic/service/can\PCANRx.c **** 
   8:C:/data/workspaces/github/de.protos.demos/src/HexagonCANDemo/etrice.HexagonCANDemo.demo/src-gen-st/room/basic/service/can\PCANRx.c **** #include "PCANRx.h"
   9:C:/data/workspaces/github/de.protos.demos/src/HexagonCANDemo/etrice.HexagonCANDemo.demo/src-gen-st/room/basic/service/can\PCANRx.c **** #include "debugging/etMSCLogger.h"
  10:C:/data/workspaces/github/de.protos.demos/src/HexagonCANDemo/etrice.HexagonCANDemo.demo/src-gen-st/room/basic/service/can\PCANRx.c **** #include "PCANRx_Utils.h"
  11:C:/data/workspaces/github/de.protos.demos/src/HexagonCANDemo/etrice.HexagonCANDemo.demo/src-gen-st/room/basic/service/can\PCANRx.c **** 
  12:C:/data/workspaces/github/de.protos.demos/src/HexagonCANDemo/etrice.HexagonCANDemo.demo/src-gen-st/room/basic/service/can\PCANRx.c **** 
  13:C:/data/workspaces/github/de.protos.demos/src/HexagonCANDemo/etrice.HexagonCANDemo.demo/src-gen-st/room/basic/service/can\PCANRx.c **** /*--------------------- port methods */
  14:C:/data/workspaces/github/de.protos.demos/src/HexagonCANDemo/etrice.HexagonCANDemo.demo/src-gen-st/room/basic/service/can\PCANRx.c **** 
  15:C:/data/workspaces/github/de.protos.demos/src/HexagonCANDemo/etrice.HexagonCANDemo.demo/src-gen-st/room/basic/service/can\PCANRx.c **** void PCANRxPort_msgReceived(const PCANRxPort* self, pclCANMsg* data__et) {
  28              		.loc 1 15 0
  29              		.cfi_startproc
  30              		@ args = 0, pretend = 0, frame = 8
  31              		@ frame_needed = 1, uses_anonymous_args = 0
  32 0000 80B5     		push	{r7, lr}
  33              	.LCFI0:
  34              		.cfi_def_cfa_offset 8
  35              		.cfi_offset 7, -8
  36              		.cfi_offset 14, -4
  37 0002 82B0     		sub	sp, sp, #8
  38              	.LCFI1:
  39              		.cfi_def_cfa_offset 16
  40 0004 00AF     		add	r7, sp, #0
  41              	.LCFI2:
  42              		.cfi_def_cfa_register 7
  43 0006 7860     		str	r0, [r7, #4]
  44 0008 3960     		str	r1, [r7, #0]
  16:C:/data/workspaces/github/de.protos.demos/src/HexagonCANDemo/etrice.HexagonCANDemo.demo/src-gen-st/room/basic/service/can\PCANRx.c **** 	ET_MSC_LOGGER_SYNC_ENTRY("PCANRxPort", "msgReceived")
  17:C:/data/workspaces/github/de.protos.demos/src/HexagonCANDemo/etrice.HexagonCANDemo.demo/src-gen-st/room/basic/service/can\PCANRx.c **** 		etPort_sendMessage(self, PCANRx_OUT_msgReceived, sizeof(pclCANMsg), data__et);
  45              		.loc 1 17 0
  46 000a 7868     		ldr	r0, [r7, #4]
  47 000c 4FF00101 		mov	r1, #1
  48 0010 4FF01002 		mov	r2, #16
  49 0014 3B68     		ldr	r3, [r7, #0]
  50 0016 FFF7FEFF 		bl	etPort_sendMessage
  18:C:/data/workspaces/github/de.protos.demos/src/HexagonCANDemo/etrice.HexagonCANDemo.demo/src-gen-st/room/basic/service/can\PCANRx.c **** 	ET_MSC_LOGGER_SYNC_EXIT
  19:C:/data/workspaces/github/de.protos.demos/src/HexagonCANDemo/etrice.HexagonCANDemo.demo/src-gen-st/room/basic/service/can\PCANRx.c **** }
  51              		.loc 1 19 0
  52 001a 07F10807 		add	r7, r7, #8
  53 001e BD46     		mov	sp, r7
  54 0020 80BD     		pop	{r7, pc}
  55              		.cfi_endproc
  56              	.LFE0:
  58 0022 00BF     		.section	.text.PCANRxReplPort_msgReceived_broadcast,"ax",%progbits
  59              		.align	2
  60              		.global	PCANRxReplPort_msgReceived_broadcast
  61              		.thumb
  62              		.thumb_func
  64              	PCANRxReplPort_msgReceived_broadcast:
  65              	.LFB1:
  20:C:/data/workspaces/github/de.protos.demos/src/HexagonCANDemo/etrice.HexagonCANDemo.demo/src-gen-st/room/basic/service/can\PCANRx.c **** 
  21:C:/data/workspaces/github/de.protos.demos/src/HexagonCANDemo/etrice.HexagonCANDemo.demo/src-gen-st/room/basic/service/can\PCANRx.c **** void PCANRxReplPort_msgReceived_broadcast(const PCANRxReplPort* self, pclCANMsg* data__et) {
  66              		.loc 1 21 0
  67              		.cfi_startproc
  68              		@ args = 0, pretend = 0, frame = 16
  69              		@ frame_needed = 1, uses_anonymous_args = 0
  70 0000 80B5     		push	{r7, lr}
  71              	.LCFI3:
  72              		.cfi_def_cfa_offset 8
  73              		.cfi_offset 7, -8
  74              		.cfi_offset 14, -4
  75 0002 84B0     		sub	sp, sp, #16
  76              	.LCFI4:
  77              		.cfi_def_cfa_offset 24
  78 0004 00AF     		add	r7, sp, #0
  79              	.LCFI5:
  80              		.cfi_def_cfa_register 7
  81 0006 7860     		str	r0, [r7, #4]
  82 0008 3960     		str	r1, [r7, #0]
  22:C:/data/workspaces/github/de.protos.demos/src/HexagonCANDemo/etrice.HexagonCANDemo.demo/src-gen-st/room/basic/service/can\PCANRx.c **** 	int i;
  23:C:/data/workspaces/github/de.protos.demos/src/HexagonCANDemo/etrice.HexagonCANDemo.demo/src-gen-st/room/basic/service/can\PCANRx.c **** 	ET_MSC_LOGGER_SYNC_ENTRY("PCANRxReplPort", "msgReceived")
  24:C:/data/workspaces/github/de.protos.demos/src/HexagonCANDemo/etrice.HexagonCANDemo.demo/src-gen-st/room/basic/service/can\PCANRx.c **** 	for (i=0; i<((etReplPort*)self)->size; ++i) {
  83              		.loc 1 24 0
  84 000a 4FF00003 		mov	r3, #0
  85 000e FB60     		str	r3, [r7, #12]
  86 0010 11E0     		b	.L3
  87              	.L4:
  25:C:/data/workspaces/github/de.protos.demos/src/HexagonCANDemo/etrice.HexagonCANDemo.demo/src-gen-st/room/basic/service/can\PCANRx.c **** 		etPort_sendMessage((&((etReplPort*)self)->ports[i].port), PCANRx_OUT_msgReceived, sizeof(pclCANMs
  88              		.loc 1 25 0 discriminator 2
  89 0012 7B68     		ldr	r3, [r7, #4]
  90 0014 5A68     		ldr	r2, [r3, #4]
  91 0016 FB68     		ldr	r3, [r7, #12]
  92 0018 4FEA0313 		lsl	r3, r3, #4
  93 001c D318     		adds	r3, r2, r3
  94 001e 1846     		mov	r0, r3
  95 0020 4FF00101 		mov	r1, #1
  96 0024 4FF01002 		mov	r2, #16
  97 0028 3B68     		ldr	r3, [r7, #0]
  98 002a FFF7FEFF 		bl	etPort_sendMessage
  24:C:/data/workspaces/github/de.protos.demos/src/HexagonCANDemo/etrice.HexagonCANDemo.demo/src-gen-st/room/basic/service/can\PCANRx.c **** 	for (i=0; i<((etReplPort*)self)->size; ++i) {
  99              		.loc 1 24 0 discriminator 2
 100 002e FB68     		ldr	r3, [r7, #12]
 101 0030 03F10103 		add	r3, r3, #1
 102 0034 FB60     		str	r3, [r7, #12]
 103              	.L3:
  24:C:/data/workspaces/github/de.protos.demos/src/HexagonCANDemo/etrice.HexagonCANDemo.demo/src-gen-st/room/basic/service/can\PCANRx.c **** 	for (i=0; i<((etReplPort*)self)->size; ++i) {
 104              		.loc 1 24 0 is_stmt 0 discriminator 1
 105 0036 7B68     		ldr	r3, [r7, #4]
 106 0038 1B88     		ldrh	r3, [r3, #0]
 107 003a 1AB2     		sxth	r2, r3
 108 003c FB68     		ldr	r3, [r7, #12]
 109 003e 9A42     		cmp	r2, r3
 110 0040 E7DC     		bgt	.L4
  26:C:/data/workspaces/github/de.protos.demos/src/HexagonCANDemo/etrice.HexagonCANDemo.demo/src-gen-st/room/basic/service/can\PCANRx.c **** 	}
  27:C:/data/workspaces/github/de.protos.demos/src/HexagonCANDemo/etrice.HexagonCANDemo.demo/src-gen-st/room/basic/service/can\PCANRx.c **** 	ET_MSC_LOGGER_SYNC_EXIT
  28:C:/data/workspaces/github/de.protos.demos/src/HexagonCANDemo/etrice.HexagonCANDemo.demo/src-gen-st/room/basic/service/can\PCANRx.c **** }
 111              		.loc 1 28 0 is_stmt 1
 112 0042 07F11007 		add	r7, r7, #16
 113 0046 BD46     		mov	sp, r7
 114 0048 80BD     		pop	{r7, pc}
 115              		.cfi_endproc
 116              	.LFE1:
 118 004a 00BF     		.section	.text.PCANRxReplPort_msgReceived,"ax",%progbits
 119              		.align	2
 120              		.global	PCANRxReplPort_msgReceived
 121              		.thumb
 122              		.thumb_func
 124              	PCANRxReplPort_msgReceived:
 125              	.LFB2:
  29:C:/data/workspaces/github/de.protos.demos/src/HexagonCANDemo/etrice.HexagonCANDemo.demo/src-gen-st/room/basic/service/can\PCANRx.c **** 
  30:C:/data/workspaces/github/de.protos.demos/src/HexagonCANDemo/etrice.HexagonCANDemo.demo/src-gen-st/room/basic/service/can\PCANRx.c **** void PCANRxReplPort_msgReceived(const PCANRxReplPort* self, int idx__et, pclCANMsg* data__et) {
 126              		.loc 1 30 0
 127              		.cfi_startproc
 128              		@ args = 0, pretend = 0, frame = 16
 129              		@ frame_needed = 1, uses_anonymous_args = 0
 130 0000 80B5     		push	{r7, lr}
 131              	.LCFI6:
 132              		.cfi_def_cfa_offset 8
 133              		.cfi_offset 7, -8
 134              		.cfi_offset 14, -4
 135 0002 84B0     		sub	sp, sp, #16
 136              	.LCFI7:
 137              		.cfi_def_cfa_offset 24
 138 0004 00AF     		add	r7, sp, #0
 139              	.LCFI8:
 140              		.cfi_def_cfa_register 7
 141 0006 F860     		str	r0, [r7, #12]
 142 0008 B960     		str	r1, [r7, #8]
 143 000a 7A60     		str	r2, [r7, #4]
  31:C:/data/workspaces/github/de.protos.demos/src/HexagonCANDemo/etrice.HexagonCANDemo.demo/src-gen-st/room/basic/service/can\PCANRx.c **** 	ET_MSC_LOGGER_SYNC_ENTRY("PCANRxReplPort", "msgReceived")
  32:C:/data/workspaces/github/de.protos.demos/src/HexagonCANDemo/etrice.HexagonCANDemo.demo/src-gen-st/room/basic/service/can\PCANRx.c **** 	if (0<=idx__et && idx__et<((etReplPort*)self)->size) {
 144              		.loc 1 32 0
 145 000c BB68     		ldr	r3, [r7, #8]
 146 000e 002B     		cmp	r3, #0
 147 0010 13DB     		blt	.L5
 148              		.loc 1 32 0 is_stmt 0 discriminator 1
 149 0012 FB68     		ldr	r3, [r7, #12]
 150 0014 1B88     		ldrh	r3, [r3, #0]
 151 0016 1AB2     		sxth	r2, r3
 152 0018 BB68     		ldr	r3, [r7, #8]
 153 001a 9A42     		cmp	r2, r3
 154 001c 0DDD     		ble	.L5
  33:C:/data/workspaces/github/de.protos.demos/src/HexagonCANDemo/etrice.HexagonCANDemo.demo/src-gen-st/room/basic/service/can\PCANRx.c **** 		etPort_sendMessage((&((etReplPort*)self)->ports[idx__et].port), PCANRx_OUT_msgReceived, sizeof(pc
 155              		.loc 1 33 0 is_stmt 1
 156 001e FB68     		ldr	r3, [r7, #12]
 157 0020 5A68     		ldr	r2, [r3, #4]
 158 0022 BB68     		ldr	r3, [r7, #8]
 159 0024 4FEA0313 		lsl	r3, r3, #4
 160 0028 D318     		adds	r3, r2, r3
 161 002a 1846     		mov	r0, r3
 162 002c 4FF00101 		mov	r1, #1
 163 0030 4FF01002 		mov	r2, #16
 164 0034 7B68     		ldr	r3, [r7, #4]
 165 0036 FFF7FEFF 		bl	etPort_sendMessage
 166              	.L5:
  34:C:/data/workspaces/github/de.protos.demos/src/HexagonCANDemo/etrice.HexagonCANDemo.demo/src-gen-st/room/basic/service/can\PCANRx.c **** 	}
  35:C:/data/workspaces/github/de.protos.demos/src/HexagonCANDemo/etrice.HexagonCANDemo.demo/src-gen-st/room/basic/service/can\PCANRx.c **** 	ET_MSC_LOGGER_SYNC_EXIT
  36:C:/data/workspaces/github/de.protos.demos/src/HexagonCANDemo/etrice.HexagonCANDemo.demo/src-gen-st/room/basic/service/can\PCANRx.c **** }
 167              		.loc 1 36 0
 168 003a 07F11007 		add	r7, r7, #16
 169 003e BD46     		mov	sp, r7
 170 0040 80BD     		pop	{r7, pc}
 171              		.cfi_endproc
 172              	.LFE2:
 174 0042 00BF     		.section	.text.PCANRxReplPort_getReplication,"ax",%progbits
 175              		.align	2
 176              		.global	PCANRxReplPort_getReplication
 177              		.thumb
 178              		.thumb_func
 180              	PCANRxReplPort_getReplication:
 181              	.LFB3:
  37:C:/data/workspaces/github/de.protos.demos/src/HexagonCANDemo/etrice.HexagonCANDemo.demo/src-gen-st/room/basic/service/can\PCANRx.c **** 
  38:C:/data/workspaces/github/de.protos.demos/src/HexagonCANDemo/etrice.HexagonCANDemo.demo/src-gen-st/room/basic/service/can\PCANRx.c **** etInt32 PCANRxReplPort_getReplication(const PCANRxReplPort* self) {
 182              		.loc 1 38 0
 183              		.cfi_startproc
 184              		@ args = 0, pretend = 0, frame = 8
 185              		@ frame_needed = 1, uses_anonymous_args = 0
 186              		@ link register save eliminated.
 187 0000 80B4     		push	{r7}
 188              	.LCFI9:
 189              		.cfi_def_cfa_offset 4
 190              		.cfi_offset 7, -4
 191 0002 83B0     		sub	sp, sp, #12
 192              	.LCFI10:
 193              		.cfi_def_cfa_offset 16
 194 0004 00AF     		add	r7, sp, #0
 195              	.LCFI11:
 196              		.cfi_def_cfa_register 7
 197 0006 7860     		str	r0, [r7, #4]
  39:C:/data/workspaces/github/de.protos.demos/src/HexagonCANDemo/etrice.HexagonCANDemo.demo/src-gen-st/room/basic/service/can\PCANRx.c **** 	return ((etReplPort*)self)->size;
 198              		.loc 1 39 0
 199 0008 7B68     		ldr	r3, [r7, #4]
 200 000a 1B88     		ldrh	r3, [r3, #0]
 201 000c 1BB2     		sxth	r3, r3
  40:C:/data/workspaces/github/de.protos.demos/src/HexagonCANDemo/etrice.HexagonCANDemo.demo/src-gen-st/room/basic/service/can\PCANRx.c **** }
 202              		.loc 1 40 0
 203 000e 1846     		mov	r0, r3
 204 0010 07F10C07 		add	r7, r7, #12
 205 0014 BD46     		mov	sp, r7
 206 0016 80BC     		pop	{r7}
 207 0018 7047     		bx	lr
 208              		.cfi_endproc
 209              	.LFE3:
 211 001a 00BF     		.section	.text.PCANRxConjPort_init,"ax",%progbits
 212              		.align	2
 213              		.global	PCANRxConjPort_init
 214              		.thumb
 215              		.thumb_func
 217              	PCANRxConjPort_init:
 218              	.LFB4:
  41:C:/data/workspaces/github/de.protos.demos/src/HexagonCANDemo/etrice.HexagonCANDemo.demo/src-gen-st/room/basic/service/can\PCANRx.c **** 
  42:C:/data/workspaces/github/de.protos.demos/src/HexagonCANDemo/etrice.HexagonCANDemo.demo/src-gen-st/room/basic/service/can\PCANRx.c **** 
  43:C:/data/workspaces/github/de.protos.demos/src/HexagonCANDemo/etrice.HexagonCANDemo.demo/src-gen-st/room/basic/service/can\PCANRx.c **** 
  44:C:/data/workspaces/github/de.protos.demos/src/HexagonCANDemo/etrice.HexagonCANDemo.demo/src-gen-st/room/basic/service/can\PCANRx.c **** void PCANRxConjPort_init(const PCANRxConjPort* self, uint32 data__et) {
 219              		.loc 1 44 0
 220              		.cfi_startproc
 221              		@ args = 0, pretend = 0, frame = 8
 222              		@ frame_needed = 1, uses_anonymous_args = 0
 223 0000 80B5     		push	{r7, lr}
 224              	.LCFI12:
 225              		.cfi_def_cfa_offset 8
 226              		.cfi_offset 7, -8
 227              		.cfi_offset 14, -4
 228 0002 82B0     		sub	sp, sp, #8
 229              	.LCFI13:
 230              		.cfi_def_cfa_offset 16
 231 0004 00AF     		add	r7, sp, #0
 232              	.LCFI14:
 233              		.cfi_def_cfa_register 7
 234 0006 7860     		str	r0, [r7, #4]
 235 0008 3960     		str	r1, [r7, #0]
  45:C:/data/workspaces/github/de.protos.demos/src/HexagonCANDemo/etrice.HexagonCANDemo.demo/src-gen-st/room/basic/service/can\PCANRx.c **** 	ET_MSC_LOGGER_SYNC_ENTRY("PCANRxConjPort", "init")
  46:C:/data/workspaces/github/de.protos.demos/src/HexagonCANDemo/etrice.HexagonCANDemo.demo/src-gen-st/room/basic/service/can\PCANRx.c **** 	if(data__et != ET_CAN_CHANNEL_NOT_DEFINED) pChannel = data__et;
 236              		.loc 1 46 0
 237 000a 3B68     		ldr	r3, [r7, #0]
 238 000c B3F1FF3F 		cmp	r3, #-1
 239 0010 03D0     		beq	.L10
 240              		.loc 1 46 0 is_stmt 0 discriminator 1
 241 0012 7B68     		ldr	r3, [r7, #4]
 242 0014 1B68     		ldr	r3, [r3, #0]
 243 0016 3A68     		ldr	r2, [r7, #0]
 244 0018 1A60     		str	r2, [r3, #0]
 245              	.L10:
  47:C:/data/workspaces/github/de.protos.demos/src/HexagonCANDemo/etrice.HexagonCANDemo.demo/src-gen-st/room/basic/service/can\PCANRx.c **** 	etPort_sendMessage(self, PCANRx_IN_init, sizeof(uint32), &pChannel);
 246              		.loc 1 47 0 is_stmt 1
 247 001a 7B68     		ldr	r3, [r7, #4]
 248 001c 1B68     		ldr	r3, [r3, #0]
 249 001e 7868     		ldr	r0, [r7, #4]
 250 0020 4FF00201 		mov	r1, #2
 251 0024 4FF00402 		mov	r2, #4
 252 0028 FFF7FEFF 		bl	etPort_sendMessage
  48:C:/data/workspaces/github/de.protos.demos/src/HexagonCANDemo/etrice.HexagonCANDemo.demo/src-gen-st/room/basic/service/can\PCANRx.c **** 	ET_MSC_LOGGER_SYNC_EXIT
  49:C:/data/workspaces/github/de.protos.demos/src/HexagonCANDemo/etrice.HexagonCANDemo.demo/src-gen-st/room/basic/service/can\PCANRx.c **** }
 253              		.loc 1 49 0
 254 002c 07F10807 		add	r7, r7, #8
 255 0030 BD46     		mov	sp, r7
 256 0032 80BD     		pop	{r7, pc}
 257              		.cfi_endproc
 258              	.LFE4:
 260              		.section	.text.PCANRxConjReplPort_init_broadcast,"ax",%progbits
 261              		.align	2
 262              		.global	PCANRxConjReplPort_init_broadcast
 263              		.thumb
 264              		.thumb_func
 266              	PCANRxConjReplPort_init_broadcast:
 267              	.LFB5:
  50:C:/data/workspaces/github/de.protos.demos/src/HexagonCANDemo/etrice.HexagonCANDemo.demo/src-gen-st/room/basic/service/can\PCANRx.c **** 
  51:C:/data/workspaces/github/de.protos.demos/src/HexagonCANDemo/etrice.HexagonCANDemo.demo/src-gen-st/room/basic/service/can\PCANRx.c **** void PCANRxConjReplPort_init_broadcast(const PCANRxConjReplPort* self, uint32 data__et) {
 268              		.loc 1 51 0
 269              		.cfi_startproc
 270              		@ args = 0, pretend = 0, frame = 16
 271              		@ frame_needed = 1, uses_anonymous_args = 0
 272 0000 80B5     		push	{r7, lr}
 273              	.LCFI15:
 274              		.cfi_def_cfa_offset 8
 275              		.cfi_offset 7, -8
 276              		.cfi_offset 14, -4
 277 0002 84B0     		sub	sp, sp, #16
 278              	.LCFI16:
 279              		.cfi_def_cfa_offset 24
 280 0004 00AF     		add	r7, sp, #0
 281              	.LCFI17:
 282              		.cfi_def_cfa_register 7
 283 0006 7860     		str	r0, [r7, #4]
 284 0008 3960     		str	r1, [r7, #0]
  52:C:/data/workspaces/github/de.protos.demos/src/HexagonCANDemo/etrice.HexagonCANDemo.demo/src-gen-st/room/basic/service/can\PCANRx.c **** 	int i;
  53:C:/data/workspaces/github/de.protos.demos/src/HexagonCANDemo/etrice.HexagonCANDemo.demo/src-gen-st/room/basic/service/can\PCANRx.c **** 	for (i=0; i<((etReplPort*)self)->size; ++i) {
 285              		.loc 1 53 0
 286 000a 4FF00003 		mov	r3, #0
 287 000e FB60     		str	r3, [r7, #12]
 288 0010 0DE0     		b	.L12
 289              	.L13:
  54:C:/data/workspaces/github/de.protos.demos/src/HexagonCANDemo/etrice.HexagonCANDemo.demo/src-gen-st/room/basic/service/can\PCANRx.c **** 		PCANRxConjPort_init(&((etReplPort*)self)->ports[i].port, data__et);
 290              		.loc 1 54 0 discriminator 2
 291 0012 7B68     		ldr	r3, [r7, #4]
 292 0014 5A68     		ldr	r2, [r3, #4]
 293 0016 FB68     		ldr	r3, [r7, #12]
 294 0018 4FEA0313 		lsl	r3, r3, #4
 295 001c D318     		adds	r3, r2, r3
 296 001e 1846     		mov	r0, r3
 297 0020 3968     		ldr	r1, [r7, #0]
 298 0022 FFF7FEFF 		bl	PCANRxConjPort_init
  53:C:/data/workspaces/github/de.protos.demos/src/HexagonCANDemo/etrice.HexagonCANDemo.demo/src-gen-st/room/basic/service/can\PCANRx.c **** 	for (i=0; i<((etReplPort*)self)->size; ++i) {
 299              		.loc 1 53 0 discriminator 2
 300 0026 FB68     		ldr	r3, [r7, #12]
 301 0028 03F10103 		add	r3, r3, #1
 302 002c FB60     		str	r3, [r7, #12]
 303              	.L12:
  53:C:/data/workspaces/github/de.protos.demos/src/HexagonCANDemo/etrice.HexagonCANDemo.demo/src-gen-st/room/basic/service/can\PCANRx.c **** 	for (i=0; i<((etReplPort*)self)->size; ++i) {
 304              		.loc 1 53 0 is_stmt 0 discriminator 1
 305 002e 7B68     		ldr	r3, [r7, #4]
 306 0030 1B88     		ldrh	r3, [r3, #0]
 307 0032 1AB2     		sxth	r2, r3
 308 0034 FB68     		ldr	r3, [r7, #12]
 309 0036 9A42     		cmp	r2, r3
 310 0038 EBDC     		bgt	.L13
  55:C:/data/workspaces/github/de.protos.demos/src/HexagonCANDemo/etrice.HexagonCANDemo.demo/src-gen-st/room/basic/service/can\PCANRx.c **** 	}					
  56:C:/data/workspaces/github/de.protos.demos/src/HexagonCANDemo/etrice.HexagonCANDemo.demo/src-gen-st/room/basic/service/can\PCANRx.c **** }
 311              		.loc 1 56 0 is_stmt 1
 312 003a 07F11007 		add	r7, r7, #16
 313 003e BD46     		mov	sp, r7
 314 0040 80BD     		pop	{r7, pc}
 315              		.cfi_endproc
 316              	.LFE5:
 318 0042 00BF     		.section	.text.PCANRxConjReplPort_init,"ax",%progbits
 319              		.align	2
 320              		.global	PCANRxConjReplPort_init
 321              		.thumb
 322              		.thumb_func
 324              	PCANRxConjReplPort_init:
 325              	.LFB6:
  57:C:/data/workspaces/github/de.protos.demos/src/HexagonCANDemo/etrice.HexagonCANDemo.demo/src-gen-st/room/basic/service/can\PCANRx.c **** 
  58:C:/data/workspaces/github/de.protos.demos/src/HexagonCANDemo/etrice.HexagonCANDemo.demo/src-gen-st/room/basic/service/can\PCANRx.c **** void PCANRxConjReplPort_init(const PCANRxConjReplPort* self, int idx__et, uint32 data__et) {
 326              		.loc 1 58 0
 327              		.cfi_startproc
 328              		@ args = 0, pretend = 0, frame = 16
 329              		@ frame_needed = 1, uses_anonymous_args = 0
 330 0000 80B5     		push	{r7, lr}
 331              	.LCFI18:
 332              		.cfi_def_cfa_offset 8
 333              		.cfi_offset 7, -8
 334              		.cfi_offset 14, -4
 335 0002 84B0     		sub	sp, sp, #16
 336              	.LCFI19:
 337              		.cfi_def_cfa_offset 24
 338 0004 00AF     		add	r7, sp, #0
 339              	.LCFI20:
 340              		.cfi_def_cfa_register 7
 341 0006 F860     		str	r0, [r7, #12]
 342 0008 B960     		str	r1, [r7, #8]
 343 000a 7A60     		str	r2, [r7, #4]
  59:C:/data/workspaces/github/de.protos.demos/src/HexagonCANDemo/etrice.HexagonCANDemo.demo/src-gen-st/room/basic/service/can\PCANRx.c **** 	PCANRxConjPort_init(&((etReplPort*)self)->ports[idx__et].port, data__et);
 344              		.loc 1 59 0
 345 000c FB68     		ldr	r3, [r7, #12]
 346 000e 5A68     		ldr	r2, [r3, #4]
 347 0010 BB68     		ldr	r3, [r7, #8]
 348 0012 4FEA0313 		lsl	r3, r3, #4
 349 0016 D318     		adds	r3, r2, r3
 350 0018 1846     		mov	r0, r3
 351 001a 7968     		ldr	r1, [r7, #4]
 352 001c FFF7FEFF 		bl	PCANRxConjPort_init
  60:C:/data/workspaces/github/de.protos.demos/src/HexagonCANDemo/etrice.HexagonCANDemo.demo/src-gen-st/room/basic/service/can\PCANRx.c **** }
 353              		.loc 1 60 0
 354 0020 07F11007 		add	r7, r7, #16
 355 0024 BD46     		mov	sp, r7
 356 0026 80BD     		pop	{r7, pc}
 357              		.cfi_endproc
 358              	.LFE6:
 360              		.section	.text.PCANRxConjPort_readMsg,"ax",%progbits
 361              		.align	2
 362              		.global	PCANRxConjPort_readMsg
 363              		.thumb
 364              		.thumb_func
 366              	PCANRxConjPort_readMsg:
 367              	.LFB7:
  61:C:/data/workspaces/github/de.protos.demos/src/HexagonCANDemo/etrice.HexagonCANDemo.demo/src-gen-st/room/basic/service/can\PCANRx.c **** 
  62:C:/data/workspaces/github/de.protos.demos/src/HexagonCANDemo/etrice.HexagonCANDemo.demo/src-gen-st/room/basic/service/can\PCANRx.c **** 
  63:C:/data/workspaces/github/de.protos.demos/src/HexagonCANDemo/etrice.HexagonCANDemo.demo/src-gen-st/room/basic/service/can\PCANRx.c **** void PCANRxConjPort_readMsg(const PCANRxConjPort* self) {
 368              		.loc 1 63 0
 369              		.cfi_startproc
 370              		@ args = 0, pretend = 0, frame = 8
 371              		@ frame_needed = 1, uses_anonymous_args = 0
 372 0000 80B5     		push	{r7, lr}
 373              	.LCFI21:
 374              		.cfi_def_cfa_offset 8
 375              		.cfi_offset 7, -8
 376              		.cfi_offset 14, -4
 377 0002 82B0     		sub	sp, sp, #8
 378              	.LCFI22:
 379              		.cfi_def_cfa_offset 16
 380 0004 00AF     		add	r7, sp, #0
 381              	.LCFI23:
 382              		.cfi_def_cfa_register 7
 383 0006 7860     		str	r0, [r7, #4]
  64:C:/data/workspaces/github/de.protos.demos/src/HexagonCANDemo/etrice.HexagonCANDemo.demo/src-gen-st/room/basic/service/can\PCANRx.c **** 	ET_MSC_LOGGER_SYNC_ENTRY("PCANRxConjPort", "readMsg")
  65:C:/data/workspaces/github/de.protos.demos/src/HexagonCANDemo/etrice.HexagonCANDemo.demo/src-gen-st/room/basic/service/can\PCANRx.c **** 		etPort_sendMessage(self, PCANRx_IN_readMsg, 0, NULL);
 384              		.loc 1 65 0
 385 0008 7868     		ldr	r0, [r7, #4]
 386 000a 4FF00301 		mov	r1, #3
 387 000e 4FF00002 		mov	r2, #0
 388 0012 4FF00003 		mov	r3, #0
 389 0016 FFF7FEFF 		bl	etPort_sendMessage
  66:C:/data/workspaces/github/de.protos.demos/src/HexagonCANDemo/etrice.HexagonCANDemo.demo/src-gen-st/room/basic/service/can\PCANRx.c **** 	ET_MSC_LOGGER_SYNC_EXIT
  67:C:/data/workspaces/github/de.protos.demos/src/HexagonCANDemo/etrice.HexagonCANDemo.demo/src-gen-st/room/basic/service/can\PCANRx.c **** }
 390              		.loc 1 67 0
 391 001a 07F10807 		add	r7, r7, #8
 392 001e BD46     		mov	sp, r7
 393 0020 80BD     		pop	{r7, pc}
 394              		.cfi_endproc
 395              	.LFE7:
 397 0022 00BF     		.section	.text.PCANRxConjReplPort_readMsg_broadcast,"ax",%progbits
 398              		.align	2
 399              		.global	PCANRxConjReplPort_readMsg_broadcast
 400              		.thumb
 401              		.thumb_func
 403              	PCANRxConjReplPort_readMsg_broadcast:
 404              	.LFB8:
  68:C:/data/workspaces/github/de.protos.demos/src/HexagonCANDemo/etrice.HexagonCANDemo.demo/src-gen-st/room/basic/service/can\PCANRx.c **** 
  69:C:/data/workspaces/github/de.protos.demos/src/HexagonCANDemo/etrice.HexagonCANDemo.demo/src-gen-st/room/basic/service/can\PCANRx.c **** void PCANRxConjReplPort_readMsg_broadcast(const PCANRxConjReplPort* self) {
 405              		.loc 1 69 0
 406              		.cfi_startproc
 407              		@ args = 0, pretend = 0, frame = 16
 408              		@ frame_needed = 1, uses_anonymous_args = 0
 409 0000 80B5     		push	{r7, lr}
 410              	.LCFI24:
 411              		.cfi_def_cfa_offset 8
 412              		.cfi_offset 7, -8
 413              		.cfi_offset 14, -4
 414 0002 84B0     		sub	sp, sp, #16
 415              	.LCFI25:
 416              		.cfi_def_cfa_offset 24
 417 0004 00AF     		add	r7, sp, #0
 418              	.LCFI26:
 419              		.cfi_def_cfa_register 7
 420 0006 7860     		str	r0, [r7, #4]
  70:C:/data/workspaces/github/de.protos.demos/src/HexagonCANDemo/etrice.HexagonCANDemo.demo/src-gen-st/room/basic/service/can\PCANRx.c **** 	int i;
  71:C:/data/workspaces/github/de.protos.demos/src/HexagonCANDemo/etrice.HexagonCANDemo.demo/src-gen-st/room/basic/service/can\PCANRx.c **** 	ET_MSC_LOGGER_SYNC_ENTRY("PCANRxConjReplPort", "readMsg")
  72:C:/data/workspaces/github/de.protos.demos/src/HexagonCANDemo/etrice.HexagonCANDemo.demo/src-gen-st/room/basic/service/can\PCANRx.c **** 	for (i=0; i<((etReplPort*)self)->size; ++i) {
 421              		.loc 1 72 0
 422 0008 4FF00003 		mov	r3, #0
 423 000c FB60     		str	r3, [r7, #12]
 424 000e 12E0     		b	.L17
 425              	.L18:
  73:C:/data/workspaces/github/de.protos.demos/src/HexagonCANDemo/etrice.HexagonCANDemo.demo/src-gen-st/room/basic/service/can\PCANRx.c **** 		etPort_sendMessage((&((etReplPort*)self)->ports[i].port), PCANRx_IN_readMsg, 0, NULL);
 426              		.loc 1 73 0 discriminator 2
 427 0010 7B68     		ldr	r3, [r7, #4]
 428 0012 5A68     		ldr	r2, [r3, #4]
 429 0014 FB68     		ldr	r3, [r7, #12]
 430 0016 4FEA0313 		lsl	r3, r3, #4
 431 001a D318     		adds	r3, r2, r3
 432 001c 1846     		mov	r0, r3
 433 001e 4FF00301 		mov	r1, #3
 434 0022 4FF00002 		mov	r2, #0
 435 0026 4FF00003 		mov	r3, #0
 436 002a FFF7FEFF 		bl	etPort_sendMessage
  72:C:/data/workspaces/github/de.protos.demos/src/HexagonCANDemo/etrice.HexagonCANDemo.demo/src-gen-st/room/basic/service/can\PCANRx.c **** 	for (i=0; i<((etReplPort*)self)->size; ++i) {
 437              		.loc 1 72 0 discriminator 2
 438 002e FB68     		ldr	r3, [r7, #12]
 439 0030 03F10103 		add	r3, r3, #1
 440 0034 FB60     		str	r3, [r7, #12]
 441              	.L17:
  72:C:/data/workspaces/github/de.protos.demos/src/HexagonCANDemo/etrice.HexagonCANDemo.demo/src-gen-st/room/basic/service/can\PCANRx.c **** 	for (i=0; i<((etReplPort*)self)->size; ++i) {
 442              		.loc 1 72 0 is_stmt 0 discriminator 1
 443 0036 7B68     		ldr	r3, [r7, #4]
 444 0038 1B88     		ldrh	r3, [r3, #0]
 445 003a 1AB2     		sxth	r2, r3
 446 003c FB68     		ldr	r3, [r7, #12]
 447 003e 9A42     		cmp	r2, r3
 448 0040 E6DC     		bgt	.L18
  74:C:/data/workspaces/github/de.protos.demos/src/HexagonCANDemo/etrice.HexagonCANDemo.demo/src-gen-st/room/basic/service/can\PCANRx.c **** 	}
  75:C:/data/workspaces/github/de.protos.demos/src/HexagonCANDemo/etrice.HexagonCANDemo.demo/src-gen-st/room/basic/service/can\PCANRx.c **** 	ET_MSC_LOGGER_SYNC_EXIT
  76:C:/data/workspaces/github/de.protos.demos/src/HexagonCANDemo/etrice.HexagonCANDemo.demo/src-gen-st/room/basic/service/can\PCANRx.c **** }
 449              		.loc 1 76 0 is_stmt 1
 450 0042 07F11007 		add	r7, r7, #16
 451 0046 BD46     		mov	sp, r7
 452 0048 80BD     		pop	{r7, pc}
 453              		.cfi_endproc
 454              	.LFE8:
 456 004a 00BF     		.section	.text.PCANRxConjReplPort_readMsg,"ax",%progbits
 457              		.align	2
 458              		.global	PCANRxConjReplPort_readMsg
 459              		.thumb
 460              		.thumb_func
 462              	PCANRxConjReplPort_readMsg:
 463              	.LFB9:
  77:C:/data/workspaces/github/de.protos.demos/src/HexagonCANDemo/etrice.HexagonCANDemo.demo/src-gen-st/room/basic/service/can\PCANRx.c **** 
  78:C:/data/workspaces/github/de.protos.demos/src/HexagonCANDemo/etrice.HexagonCANDemo.demo/src-gen-st/room/basic/service/can\PCANRx.c **** void PCANRxConjReplPort_readMsg(const PCANRxConjReplPort* self, int idx__et) {
 464              		.loc 1 78 0
 465              		.cfi_startproc
 466              		@ args = 0, pretend = 0, frame = 8
 467              		@ frame_needed = 1, uses_anonymous_args = 0
 468 0000 80B5     		push	{r7, lr}
 469              	.LCFI27:
 470              		.cfi_def_cfa_offset 8
 471              		.cfi_offset 7, -8
 472              		.cfi_offset 14, -4
 473 0002 82B0     		sub	sp, sp, #8
 474              	.LCFI28:
 475              		.cfi_def_cfa_offset 16
 476 0004 00AF     		add	r7, sp, #0
 477              	.LCFI29:
 478              		.cfi_def_cfa_register 7
 479 0006 7860     		str	r0, [r7, #4]
 480 0008 3960     		str	r1, [r7, #0]
  79:C:/data/workspaces/github/de.protos.demos/src/HexagonCANDemo/etrice.HexagonCANDemo.demo/src-gen-st/room/basic/service/can\PCANRx.c **** 	ET_MSC_LOGGER_SYNC_ENTRY("PCANRxConjReplPort", "readMsg")
  80:C:/data/workspaces/github/de.protos.demos/src/HexagonCANDemo/etrice.HexagonCANDemo.demo/src-gen-st/room/basic/service/can\PCANRx.c **** 	if (0<=idx__et && idx__et<((etReplPort*)self)->size) {
 481              		.loc 1 80 0
 482 000a 3B68     		ldr	r3, [r7, #0]
 483 000c 002B     		cmp	r3, #0
 484 000e 14DB     		blt	.L19
 485              		.loc 1 80 0 is_stmt 0 discriminator 1
 486 0010 7B68     		ldr	r3, [r7, #4]
 487 0012 1B88     		ldrh	r3, [r3, #0]
 488 0014 1AB2     		sxth	r2, r3
 489 0016 3B68     		ldr	r3, [r7, #0]
 490 0018 9A42     		cmp	r2, r3
 491 001a 0EDD     		ble	.L19
  81:C:/data/workspaces/github/de.protos.demos/src/HexagonCANDemo/etrice.HexagonCANDemo.demo/src-gen-st/room/basic/service/can\PCANRx.c **** 		etPort_sendMessage((&((etReplPort*)self)->ports[idx__et].port), PCANRx_IN_readMsg, 0, NULL);
 492              		.loc 1 81 0 is_stmt 1
 493 001c 7B68     		ldr	r3, [r7, #4]
 494 001e 5A68     		ldr	r2, [r3, #4]
 495 0020 3B68     		ldr	r3, [r7, #0]
 496 0022 4FEA0313 		lsl	r3, r3, #4
 497 0026 D318     		adds	r3, r2, r3
 498 0028 1846     		mov	r0, r3
 499 002a 4FF00301 		mov	r1, #3
 500 002e 4FF00002 		mov	r2, #0
 501 0032 4FF00003 		mov	r3, #0
 502 0036 FFF7FEFF 		bl	etPort_sendMessage
 503              	.L19:
  82:C:/data/workspaces/github/de.protos.demos/src/HexagonCANDemo/etrice.HexagonCANDemo.demo/src-gen-st/room/basic/service/can\PCANRx.c **** 	}
  83:C:/data/workspaces/github/de.protos.demos/src/HexagonCANDemo/etrice.HexagonCANDemo.demo/src-gen-st/room/basic/service/can\PCANRx.c **** 	ET_MSC_LOGGER_SYNC_EXIT
  84:C:/data/workspaces/github/de.protos.demos/src/HexagonCANDemo/etrice.HexagonCANDemo.demo/src-gen-st/room/basic/service/can\PCANRx.c **** }
 504              		.loc 1 84 0
 505 003a 07F10807 		add	r7, r7, #8
 506 003e BD46     		mov	sp, r7
 507 0040 80BD     		pop	{r7, pc}
 508              		.cfi_endproc
 509              	.LFE9:
 511 0042 00BF     		.section	.text.PCANRxConjPort_listenOnMsg,"ax",%progbits
 512              		.align	2
 513              		.global	PCANRxConjPort_listenOnMsg
 514              		.thumb
 515              		.thumb_func
 517              	PCANRxConjPort_listenOnMsg:
 518              	.LFB10:
  85:C:/data/workspaces/github/de.protos.demos/src/HexagonCANDemo/etrice.HexagonCANDemo.demo/src-gen-st/room/basic/service/can\PCANRx.c **** 
  86:C:/data/workspaces/github/de.protos.demos/src/HexagonCANDemo/etrice.HexagonCANDemo.demo/src-gen-st/room/basic/service/can\PCANRx.c **** 
  87:C:/data/workspaces/github/de.protos.demos/src/HexagonCANDemo/etrice.HexagonCANDemo.demo/src-gen-st/room/basic/service/can\PCANRx.c **** void PCANRxConjPort_listenOnMsg(const PCANRxConjPort* self, pclCANMsg* data__et) {
 519              		.loc 1 87 0
 520              		.cfi_startproc
 521              		@ args = 0, pretend = 0, frame = 8
 522              		@ frame_needed = 1, uses_anonymous_args = 0
 523 0000 80B5     		push	{r7, lr}
 524              	.LCFI30:
 525              		.cfi_def_cfa_offset 8
 526              		.cfi_offset 7, -8
 527              		.cfi_offset 14, -4
 528 0002 82B0     		sub	sp, sp, #8
 529              	.LCFI31:
 530              		.cfi_def_cfa_offset 16
 531 0004 00AF     		add	r7, sp, #0
 532              	.LCFI32:
 533              		.cfi_def_cfa_register 7
 534 0006 7860     		str	r0, [r7, #4]
 535 0008 3960     		str	r1, [r7, #0]
  88:C:/data/workspaces/github/de.protos.demos/src/HexagonCANDemo/etrice.HexagonCANDemo.demo/src-gen-st/room/basic/service/can\PCANRx.c **** 	ET_MSC_LOGGER_SYNC_ENTRY("PCANRxConjPort", "listenOnMsg")
  89:C:/data/workspaces/github/de.protos.demos/src/HexagonCANDemo/etrice.HexagonCANDemo.demo/src-gen-st/room/basic/service/can\PCANRx.c **** 		etPort_sendMessage(self, PCANRx_IN_listenOnMsg, sizeof(pclCANMsg), data__et);
 536              		.loc 1 89 0
 537 000a 7868     		ldr	r0, [r7, #4]
 538 000c 4FF00401 		mov	r1, #4
 539 0010 4FF01002 		mov	r2, #16
 540 0014 3B68     		ldr	r3, [r7, #0]
 541 0016 FFF7FEFF 		bl	etPort_sendMessage
  90:C:/data/workspaces/github/de.protos.demos/src/HexagonCANDemo/etrice.HexagonCANDemo.demo/src-gen-st/room/basic/service/can\PCANRx.c **** 	ET_MSC_LOGGER_SYNC_EXIT
  91:C:/data/workspaces/github/de.protos.demos/src/HexagonCANDemo/etrice.HexagonCANDemo.demo/src-gen-st/room/basic/service/can\PCANRx.c **** }
 542              		.loc 1 91 0
 543 001a 07F10807 		add	r7, r7, #8
 544 001e BD46     		mov	sp, r7
 545 0020 80BD     		pop	{r7, pc}
 546              		.cfi_endproc
 547              	.LFE10:
 549 0022 00BF     		.section	.text.PCANRxConjReplPort_listenOnMsg_broadcast,"ax",%progbits
 550              		.align	2
 551              		.global	PCANRxConjReplPort_listenOnMsg_broadcast
 552              		.thumb
 553              		.thumb_func
 555              	PCANRxConjReplPort_listenOnMsg_broadcast:
 556              	.LFB11:
  92:C:/data/workspaces/github/de.protos.demos/src/HexagonCANDemo/etrice.HexagonCANDemo.demo/src-gen-st/room/basic/service/can\PCANRx.c **** 
  93:C:/data/workspaces/github/de.protos.demos/src/HexagonCANDemo/etrice.HexagonCANDemo.demo/src-gen-st/room/basic/service/can\PCANRx.c **** void PCANRxConjReplPort_listenOnMsg_broadcast(const PCANRxConjReplPort* self, pclCANMsg* data__et) 
 557              		.loc 1 93 0
 558              		.cfi_startproc
 559              		@ args = 0, pretend = 0, frame = 16
 560              		@ frame_needed = 1, uses_anonymous_args = 0
 561 0000 80B5     		push	{r7, lr}
 562              	.LCFI33:
 563              		.cfi_def_cfa_offset 8
 564              		.cfi_offset 7, -8
 565              		.cfi_offset 14, -4
 566 0002 84B0     		sub	sp, sp, #16
 567              	.LCFI34:
 568              		.cfi_def_cfa_offset 24
 569 0004 00AF     		add	r7, sp, #0
 570              	.LCFI35:
 571              		.cfi_def_cfa_register 7
 572 0006 7860     		str	r0, [r7, #4]
 573 0008 3960     		str	r1, [r7, #0]
  94:C:/data/workspaces/github/de.protos.demos/src/HexagonCANDemo/etrice.HexagonCANDemo.demo/src-gen-st/room/basic/service/can\PCANRx.c **** 	int i;
  95:C:/data/workspaces/github/de.protos.demos/src/HexagonCANDemo/etrice.HexagonCANDemo.demo/src-gen-st/room/basic/service/can\PCANRx.c **** 	ET_MSC_LOGGER_SYNC_ENTRY("PCANRxConjReplPort", "listenOnMsg")
  96:C:/data/workspaces/github/de.protos.demos/src/HexagonCANDemo/etrice.HexagonCANDemo.demo/src-gen-st/room/basic/service/can\PCANRx.c **** 	for (i=0; i<((etReplPort*)self)->size; ++i) {
 574              		.loc 1 96 0
 575 000a 4FF00003 		mov	r3, #0
 576 000e FB60     		str	r3, [r7, #12]
 577 0010 11E0     		b	.L23
 578              	.L24:
  97:C:/data/workspaces/github/de.protos.demos/src/HexagonCANDemo/etrice.HexagonCANDemo.demo/src-gen-st/room/basic/service/can\PCANRx.c **** 		etPort_sendMessage((&((etReplPort*)self)->ports[i].port), PCANRx_IN_listenOnMsg, sizeof(pclCANMsg
 579              		.loc 1 97 0 discriminator 2
 580 0012 7B68     		ldr	r3, [r7, #4]
 581 0014 5A68     		ldr	r2, [r3, #4]
 582 0016 FB68     		ldr	r3, [r7, #12]
 583 0018 4FEA0313 		lsl	r3, r3, #4
 584 001c D318     		adds	r3, r2, r3
 585 001e 1846     		mov	r0, r3
 586 0020 4FF00401 		mov	r1, #4
 587 0024 4FF01002 		mov	r2, #16
 588 0028 3B68     		ldr	r3, [r7, #0]
 589 002a FFF7FEFF 		bl	etPort_sendMessage
  96:C:/data/workspaces/github/de.protos.demos/src/HexagonCANDemo/etrice.HexagonCANDemo.demo/src-gen-st/room/basic/service/can\PCANRx.c **** 	for (i=0; i<((etReplPort*)self)->size; ++i) {
 590              		.loc 1 96 0 discriminator 2
 591 002e FB68     		ldr	r3, [r7, #12]
 592 0030 03F10103 		add	r3, r3, #1
 593 0034 FB60     		str	r3, [r7, #12]
 594              	.L23:
  96:C:/data/workspaces/github/de.protos.demos/src/HexagonCANDemo/etrice.HexagonCANDemo.demo/src-gen-st/room/basic/service/can\PCANRx.c **** 	for (i=0; i<((etReplPort*)self)->size; ++i) {
 595              		.loc 1 96 0 is_stmt 0 discriminator 1
 596 0036 7B68     		ldr	r3, [r7, #4]
 597 0038 1B88     		ldrh	r3, [r3, #0]
 598 003a 1AB2     		sxth	r2, r3
 599 003c FB68     		ldr	r3, [r7, #12]
 600 003e 9A42     		cmp	r2, r3
 601 0040 E7DC     		bgt	.L24
  98:C:/data/workspaces/github/de.protos.demos/src/HexagonCANDemo/etrice.HexagonCANDemo.demo/src-gen-st/room/basic/service/can\PCANRx.c **** 	}
  99:C:/data/workspaces/github/de.protos.demos/src/HexagonCANDemo/etrice.HexagonCANDemo.demo/src-gen-st/room/basic/service/can\PCANRx.c **** 	ET_MSC_LOGGER_SYNC_EXIT
 100:C:/data/workspaces/github/de.protos.demos/src/HexagonCANDemo/etrice.HexagonCANDemo.demo/src-gen-st/room/basic/service/can\PCANRx.c **** }
 602              		.loc 1 100 0 is_stmt 1
 603 0042 07F11007 		add	r7, r7, #16
 604 0046 BD46     		mov	sp, r7
 605 0048 80BD     		pop	{r7, pc}
 606              		.cfi_endproc
 607              	.LFE11:
 609 004a 00BF     		.section	.text.PCANRxConjReplPort_listenOnMsg,"ax",%progbits
 610              		.align	2
 611              		.global	PCANRxConjReplPort_listenOnMsg
 612              		.thumb
 613              		.thumb_func
 615              	PCANRxConjReplPort_listenOnMsg:
 616              	.LFB12:
 101:C:/data/workspaces/github/de.protos.demos/src/HexagonCANDemo/etrice.HexagonCANDemo.demo/src-gen-st/room/basic/service/can\PCANRx.c **** 
 102:C:/data/workspaces/github/de.protos.demos/src/HexagonCANDemo/etrice.HexagonCANDemo.demo/src-gen-st/room/basic/service/can\PCANRx.c **** void PCANRxConjReplPort_listenOnMsg(const PCANRxConjReplPort* self, int idx__et, pclCANMsg* data__e
 617              		.loc 1 102 0
 618              		.cfi_startproc
 619              		@ args = 0, pretend = 0, frame = 16
 620              		@ frame_needed = 1, uses_anonymous_args = 0
 621 0000 80B5     		push	{r7, lr}
 622              	.LCFI36:
 623              		.cfi_def_cfa_offset 8
 624              		.cfi_offset 7, -8
 625              		.cfi_offset 14, -4
 626 0002 84B0     		sub	sp, sp, #16
 627              	.LCFI37:
 628              		.cfi_def_cfa_offset 24
 629 0004 00AF     		add	r7, sp, #0
 630              	.LCFI38:
 631              		.cfi_def_cfa_register 7
 632 0006 F860     		str	r0, [r7, #12]
 633 0008 B960     		str	r1, [r7, #8]
 634 000a 7A60     		str	r2, [r7, #4]
 103:C:/data/workspaces/github/de.protos.demos/src/HexagonCANDemo/etrice.HexagonCANDemo.demo/src-gen-st/room/basic/service/can\PCANRx.c **** 	ET_MSC_LOGGER_SYNC_ENTRY("PCANRxConjReplPort", "listenOnMsg")
 104:C:/data/workspaces/github/de.protos.demos/src/HexagonCANDemo/etrice.HexagonCANDemo.demo/src-gen-st/room/basic/service/can\PCANRx.c **** 	if (0<=idx__et && idx__et<((etReplPort*)self)->size) {
 635              		.loc 1 104 0
 636 000c BB68     		ldr	r3, [r7, #8]
 637 000e 002B     		cmp	r3, #0
 638 0010 13DB     		blt	.L25
 639              		.loc 1 104 0 is_stmt 0 discriminator 1
 640 0012 FB68     		ldr	r3, [r7, #12]
 641 0014 1B88     		ldrh	r3, [r3, #0]
 642 0016 1AB2     		sxth	r2, r3
 643 0018 BB68     		ldr	r3, [r7, #8]
 644 001a 9A42     		cmp	r2, r3
 645 001c 0DDD     		ble	.L25
 105:C:/data/workspaces/github/de.protos.demos/src/HexagonCANDemo/etrice.HexagonCANDemo.demo/src-gen-st/room/basic/service/can\PCANRx.c **** 		etPort_sendMessage((&((etReplPort*)self)->ports[idx__et].port), PCANRx_IN_listenOnMsg, sizeof(pcl
 646              		.loc 1 105 0 is_stmt 1
 647 001e FB68     		ldr	r3, [r7, #12]
 648 0020 5A68     		ldr	r2, [r3, #4]
 649 0022 BB68     		ldr	r3, [r7, #8]
 650 0024 4FEA0313 		lsl	r3, r3, #4
 651 0028 D318     		adds	r3, r2, r3
 652 002a 1846     		mov	r0, r3
 653 002c 4FF00401 		mov	r1, #4
 654 0030 4FF01002 		mov	r2, #16
 655 0034 7B68     		ldr	r3, [r7, #4]
 656 0036 FFF7FEFF 		bl	etPort_sendMessage
 657              	.L25:
 106:C:/data/workspaces/github/de.protos.demos/src/HexagonCANDemo/etrice.HexagonCANDemo.demo/src-gen-st/room/basic/service/can\PCANRx.c **** 	}
 107:C:/data/workspaces/github/de.protos.demos/src/HexagonCANDemo/etrice.HexagonCANDemo.demo/src-gen-st/room/basic/service/can\PCANRx.c **** 	ET_MSC_LOGGER_SYNC_EXIT
 108:C:/data/workspaces/github/de.protos.demos/src/HexagonCANDemo/etrice.HexagonCANDemo.demo/src-gen-st/room/basic/service/can\PCANRx.c **** }
 658              		.loc 1 108 0
 659 003a 07F11007 		add	r7, r7, #16
 660 003e BD46     		mov	sp, r7
 661 0040 80BD     		pop	{r7, pc}
 662              		.cfi_endproc
 663              	.LFE12:
 665 0042 00BF     		.section	.text.PCANRxConjPort_transmitRequest,"ax",%progbits
 666              		.align	2
 667              		.global	PCANRxConjPort_transmitRequest
 668              		.thumb
 669              		.thumb_func
 671              	PCANRxConjPort_transmitRequest:
 672              	.LFB13:
 109:C:/data/workspaces/github/de.protos.demos/src/HexagonCANDemo/etrice.HexagonCANDemo.demo/src-gen-st/room/basic/service/can\PCANRx.c **** 
 110:C:/data/workspaces/github/de.protos.demos/src/HexagonCANDemo/etrice.HexagonCANDemo.demo/src-gen-st/room/basic/service/can\PCANRx.c **** 
 111:C:/data/workspaces/github/de.protos.demos/src/HexagonCANDemo/etrice.HexagonCANDemo.demo/src-gen-st/room/basic/service/can\PCANRx.c **** void PCANRxConjPort_transmitRequest(const PCANRxConjPort* self) {
 673              		.loc 1 111 0
 674              		.cfi_startproc
 675              		@ args = 0, pretend = 0, frame = 8
 676              		@ frame_needed = 1, uses_anonymous_args = 0
 677 0000 80B5     		push	{r7, lr}
 678              	.LCFI39:
 679              		.cfi_def_cfa_offset 8
 680              		.cfi_offset 7, -8
 681              		.cfi_offset 14, -4
 682 0002 82B0     		sub	sp, sp, #8
 683              	.LCFI40:
 684              		.cfi_def_cfa_offset 16
 685 0004 00AF     		add	r7, sp, #0
 686              	.LCFI41:
 687              		.cfi_def_cfa_register 7
 688 0006 7860     		str	r0, [r7, #4]
 112:C:/data/workspaces/github/de.protos.demos/src/HexagonCANDemo/etrice.HexagonCANDemo.demo/src-gen-st/room/basic/service/can\PCANRx.c **** 	ET_MSC_LOGGER_SYNC_ENTRY("PCANRxConjPort", "transmitRequest")
 113:C:/data/workspaces/github/de.protos.demos/src/HexagonCANDemo/etrice.HexagonCANDemo.demo/src-gen-st/room/basic/service/can\PCANRx.c **** 		etPort_sendMessage(self, PCANRx_IN_transmitRequest, 0, NULL);
 689              		.loc 1 113 0
 690 0008 7868     		ldr	r0, [r7, #4]
 691 000a 4FF00501 		mov	r1, #5
 692 000e 4FF00002 		mov	r2, #0
 693 0012 4FF00003 		mov	r3, #0
 694 0016 FFF7FEFF 		bl	etPort_sendMessage
 114:C:/data/workspaces/github/de.protos.demos/src/HexagonCANDemo/etrice.HexagonCANDemo.demo/src-gen-st/room/basic/service/can\PCANRx.c **** 	ET_MSC_LOGGER_SYNC_EXIT
 115:C:/data/workspaces/github/de.protos.demos/src/HexagonCANDemo/etrice.HexagonCANDemo.demo/src-gen-st/room/basic/service/can\PCANRx.c **** }
 695              		.loc 1 115 0
 696 001a 07F10807 		add	r7, r7, #8
 697 001e BD46     		mov	sp, r7
 698 0020 80BD     		pop	{r7, pc}
 699              		.cfi_endproc
 700              	.LFE13:
 702 0022 00BF     		.section	.text.PCANRxConjReplPort_transmitRequest_broadcast,"ax",%progbits
 703              		.align	2
 704              		.global	PCANRxConjReplPort_transmitRequest_broadcast
 705              		.thumb
 706              		.thumb_func
 708              	PCANRxConjReplPort_transmitRequest_broadcast:
 709              	.LFB14:
 116:C:/data/workspaces/github/de.protos.demos/src/HexagonCANDemo/etrice.HexagonCANDemo.demo/src-gen-st/room/basic/service/can\PCANRx.c **** 
 117:C:/data/workspaces/github/de.protos.demos/src/HexagonCANDemo/etrice.HexagonCANDemo.demo/src-gen-st/room/basic/service/can\PCANRx.c **** void PCANRxConjReplPort_transmitRequest_broadcast(const PCANRxConjReplPort* self) {
 710              		.loc 1 117 0
 711              		.cfi_startproc
 712              		@ args = 0, pretend = 0, frame = 16
 713              		@ frame_needed = 1, uses_anonymous_args = 0
 714 0000 80B5     		push	{r7, lr}
 715              	.LCFI42:
 716              		.cfi_def_cfa_offset 8
 717              		.cfi_offset 7, -8
 718              		.cfi_offset 14, -4
 719 0002 84B0     		sub	sp, sp, #16
 720              	.LCFI43:
 721              		.cfi_def_cfa_offset 24
 722 0004 00AF     		add	r7, sp, #0
 723              	.LCFI44:
 724              		.cfi_def_cfa_register 7
 725 0006 7860     		str	r0, [r7, #4]
 118:C:/data/workspaces/github/de.protos.demos/src/HexagonCANDemo/etrice.HexagonCANDemo.demo/src-gen-st/room/basic/service/can\PCANRx.c **** 	int i;
 119:C:/data/workspaces/github/de.protos.demos/src/HexagonCANDemo/etrice.HexagonCANDemo.demo/src-gen-st/room/basic/service/can\PCANRx.c **** 	ET_MSC_LOGGER_SYNC_ENTRY("PCANRxConjReplPort", "transmitRequest")
 120:C:/data/workspaces/github/de.protos.demos/src/HexagonCANDemo/etrice.HexagonCANDemo.demo/src-gen-st/room/basic/service/can\PCANRx.c **** 	for (i=0; i<((etReplPort*)self)->size; ++i) {
 726              		.loc 1 120 0
 727 0008 4FF00003 		mov	r3, #0
 728 000c FB60     		str	r3, [r7, #12]
 729 000e 12E0     		b	.L29
 730              	.L30:
 121:C:/data/workspaces/github/de.protos.demos/src/HexagonCANDemo/etrice.HexagonCANDemo.demo/src-gen-st/room/basic/service/can\PCANRx.c **** 		etPort_sendMessage((&((etReplPort*)self)->ports[i].port), PCANRx_IN_transmitRequest, 0, NULL);
 731              		.loc 1 121 0 discriminator 2
 732 0010 7B68     		ldr	r3, [r7, #4]
 733 0012 5A68     		ldr	r2, [r3, #4]
 734 0014 FB68     		ldr	r3, [r7, #12]
 735 0016 4FEA0313 		lsl	r3, r3, #4
 736 001a D318     		adds	r3, r2, r3
 737 001c 1846     		mov	r0, r3
 738 001e 4FF00501 		mov	r1, #5
 739 0022 4FF00002 		mov	r2, #0
 740 0026 4FF00003 		mov	r3, #0
 741 002a FFF7FEFF 		bl	etPort_sendMessage
 120:C:/data/workspaces/github/de.protos.demos/src/HexagonCANDemo/etrice.HexagonCANDemo.demo/src-gen-st/room/basic/service/can\PCANRx.c **** 	for (i=0; i<((etReplPort*)self)->size; ++i) {
 742              		.loc 1 120 0 discriminator 2
 743 002e FB68     		ldr	r3, [r7, #12]
 744 0030 03F10103 		add	r3, r3, #1
 745 0034 FB60     		str	r3, [r7, #12]
 746              	.L29:
 120:C:/data/workspaces/github/de.protos.demos/src/HexagonCANDemo/etrice.HexagonCANDemo.demo/src-gen-st/room/basic/service/can\PCANRx.c **** 	for (i=0; i<((etReplPort*)self)->size; ++i) {
 747              		.loc 1 120 0 is_stmt 0 discriminator 1
 748 0036 7B68     		ldr	r3, [r7, #4]
 749 0038 1B88     		ldrh	r3, [r3, #0]
 750 003a 1AB2     		sxth	r2, r3
 751 003c FB68     		ldr	r3, [r7, #12]
 752 003e 9A42     		cmp	r2, r3
 753 0040 E6DC     		bgt	.L30
 122:C:/data/workspaces/github/de.protos.demos/src/HexagonCANDemo/etrice.HexagonCANDemo.demo/src-gen-st/room/basic/service/can\PCANRx.c **** 	}
 123:C:/data/workspaces/github/de.protos.demos/src/HexagonCANDemo/etrice.HexagonCANDemo.demo/src-gen-st/room/basic/service/can\PCANRx.c **** 	ET_MSC_LOGGER_SYNC_EXIT
 124:C:/data/workspaces/github/de.protos.demos/src/HexagonCANDemo/etrice.HexagonCANDemo.demo/src-gen-st/room/basic/service/can\PCANRx.c **** }
 754              		.loc 1 124 0 is_stmt 1
 755 0042 07F11007 		add	r7, r7, #16
 756 0046 BD46     		mov	sp, r7
 757 0048 80BD     		pop	{r7, pc}
 758              		.cfi_endproc
 759              	.LFE14:
 761 004a 00BF     		.section	.text.PCANRxConjReplPort_transmitRequest,"ax",%progbits
 762              		.align	2
 763              		.global	PCANRxConjReplPort_transmitRequest
 764              		.thumb
 765              		.thumb_func
 767              	PCANRxConjReplPort_transmitRequest:
 768              	.LFB15:
 125:C:/data/workspaces/github/de.protos.demos/src/HexagonCANDemo/etrice.HexagonCANDemo.demo/src-gen-st/room/basic/service/can\PCANRx.c **** 
 126:C:/data/workspaces/github/de.protos.demos/src/HexagonCANDemo/etrice.HexagonCANDemo.demo/src-gen-st/room/basic/service/can\PCANRx.c **** void PCANRxConjReplPort_transmitRequest(const PCANRxConjReplPort* self, int idx__et) {
 769              		.loc 1 126 0
 770              		.cfi_startproc
 771              		@ args = 0, pretend = 0, frame = 8
 772              		@ frame_needed = 1, uses_anonymous_args = 0
 773 0000 80B5     		push	{r7, lr}
 774              	.LCFI45:
 775              		.cfi_def_cfa_offset 8
 776              		.cfi_offset 7, -8
 777              		.cfi_offset 14, -4
 778 0002 82B0     		sub	sp, sp, #8
 779              	.LCFI46:
 780              		.cfi_def_cfa_offset 16
 781 0004 00AF     		add	r7, sp, #0
 782              	.LCFI47:
 783              		.cfi_def_cfa_register 7
 784 0006 7860     		str	r0, [r7, #4]
 785 0008 3960     		str	r1, [r7, #0]
 127:C:/data/workspaces/github/de.protos.demos/src/HexagonCANDemo/etrice.HexagonCANDemo.demo/src-gen-st/room/basic/service/can\PCANRx.c **** 	ET_MSC_LOGGER_SYNC_ENTRY("PCANRxConjReplPort", "transmitRequest")
 128:C:/data/workspaces/github/de.protos.demos/src/HexagonCANDemo/etrice.HexagonCANDemo.demo/src-gen-st/room/basic/service/can\PCANRx.c **** 	if (0<=idx__et && idx__et<((etReplPort*)self)->size) {
 786              		.loc 1 128 0
 787 000a 3B68     		ldr	r3, [r7, #0]
 788 000c 002B     		cmp	r3, #0
 789 000e 14DB     		blt	.L31
 790              		.loc 1 128 0 is_stmt 0 discriminator 1
 791 0010 7B68     		ldr	r3, [r7, #4]
 792 0012 1B88     		ldrh	r3, [r3, #0]
 793 0014 1AB2     		sxth	r2, r3
 794 0016 3B68     		ldr	r3, [r7, #0]
 795 0018 9A42     		cmp	r2, r3
 796 001a 0EDD     		ble	.L31
 129:C:/data/workspaces/github/de.protos.demos/src/HexagonCANDemo/etrice.HexagonCANDemo.demo/src-gen-st/room/basic/service/can\PCANRx.c **** 		etPort_sendMessage((&((etReplPort*)self)->ports[idx__et].port), PCANRx_IN_transmitRequest, 0, NUL
 797              		.loc 1 129 0 is_stmt 1
 798 001c 7B68     		ldr	r3, [r7, #4]
 799 001e 5A68     		ldr	r2, [r3, #4]
 800 0020 3B68     		ldr	r3, [r7, #0]
 801 0022 4FEA0313 		lsl	r3, r3, #4
 802 0026 D318     		adds	r3, r2, r3
 803 0028 1846     		mov	r0, r3
 804 002a 4FF00501 		mov	r1, #5
 805 002e 4FF00002 		mov	r2, #0
 806 0032 4FF00003 		mov	r3, #0
 807 0036 FFF7FEFF 		bl	etPort_sendMessage
 808              	.L31:
 130:C:/data/workspaces/github/de.protos.demos/src/HexagonCANDemo/etrice.HexagonCANDemo.demo/src-gen-st/room/basic/service/can\PCANRx.c **** 	}
 131:C:/data/workspaces/github/de.protos.demos/src/HexagonCANDemo/etrice.HexagonCANDemo.demo/src-gen-st/room/basic/service/can\PCANRx.c **** 	ET_MSC_LOGGER_SYNC_EXIT
 132:C:/data/workspaces/github/de.protos.demos/src/HexagonCANDemo/etrice.HexagonCANDemo.demo/src-gen-st/room/basic/service/can\PCANRx.c **** }
 809              		.loc 1 132 0
 810 003a 07F10807 		add	r7, r7, #8
 811 003e BD46     		mov	sp, r7
 812 0040 80BD     		pop	{r7, pc}
 813              		.cfi_endproc
 814              	.LFE15:
 816 0042 00BF     		.section	.text.PCANRxConjReplPort_getReplication,"ax",%progbits
 817              		.align	2
 818              		.global	PCANRxConjReplPort_getReplication
 819              		.thumb
 820              		.thumb_func
 822              	PCANRxConjReplPort_getReplication:
 823              	.LFB16:
 133:C:/data/workspaces/github/de.protos.demos/src/HexagonCANDemo/etrice.HexagonCANDemo.demo/src-gen-st/room/basic/service/can\PCANRx.c **** 
 134:C:/data/workspaces/github/de.protos.demos/src/HexagonCANDemo/etrice.HexagonCANDemo.demo/src-gen-st/room/basic/service/can\PCANRx.c **** /* begin PCANRxConjPort specific */
 135:C:/data/workspaces/github/de.protos.demos/src/HexagonCANDemo/etrice.HexagonCANDemo.demo/src-gen-st/room/basic/service/can\PCANRx.c **** 
 136:C:/data/workspaces/github/de.protos.demos/src/HexagonCANDemo/etrice.HexagonCANDemo.demo/src-gen-st/room/basic/service/can\PCANRx.c **** /*--------------------- operations ---------------------*/
 137:C:/data/workspaces/github/de.protos.demos/src/HexagonCANDemo/etrice.HexagonCANDemo.demo/src-gen-st/room/basic/service/can\PCANRx.c **** /* end PCANRxConjPort specific */
 138:C:/data/workspaces/github/de.protos.demos/src/HexagonCANDemo/etrice.HexagonCANDemo.demo/src-gen-st/room/basic/service/can\PCANRx.c **** 
 139:C:/data/workspaces/github/de.protos.demos/src/HexagonCANDemo/etrice.HexagonCANDemo.demo/src-gen-st/room/basic/service/can\PCANRx.c **** etInt32 PCANRxConjReplPort_getReplication(const PCANRxConjReplPort* self) {
 824              		.loc 1 139 0
 825              		.cfi_startproc
 826              		@ args = 0, pretend = 0, frame = 8
 827              		@ frame_needed = 1, uses_anonymous_args = 0
 828              		@ link register save eliminated.
 829 0000 80B4     		push	{r7}
 830              	.LCFI48:
 831              		.cfi_def_cfa_offset 4
 832              		.cfi_offset 7, -4
 833 0002 83B0     		sub	sp, sp, #12
 834              	.LCFI49:
 835              		.cfi_def_cfa_offset 16
 836 0004 00AF     		add	r7, sp, #0
 837              	.LCFI50:
 838              		.cfi_def_cfa_register 7
 839 0006 7860     		str	r0, [r7, #4]
 140:C:/data/workspaces/github/de.protos.demos/src/HexagonCANDemo/etrice.HexagonCANDemo.demo/src-gen-st/room/basic/service/can\PCANRx.c **** 	return ((etReplPort*)self)->size;
 840              		.loc 1 140 0
 841 0008 7B68     		ldr	r3, [r7, #4]
 842 000a 1B88     		ldrh	r3, [r3, #0]
 843 000c 1BB2     		sxth	r3, r3
 141:C:/data/workspaces/github/de.protos.demos/src/HexagonCANDemo/etrice.HexagonCANDemo.demo/src-gen-st/room/basic/service/can\PCANRx.c **** }
 844              		.loc 1 141 0
 845 000e 1846     		mov	r0, r3
 846 0010 07F10C07 		add	r7, r7, #12
 847 0014 BD46     		mov	sp, r7
 848 0016 80BC     		pop	{r7}
 849 0018 7047     		bx	lr
 850              		.cfi_endproc
 851              	.LFE16:
 853 001a 00BF     		.text
 854              	.Letext0:
 855              		.file 2 "C:\\data\\workspaces\\github\\de.protos.demos\\src\\HexagonCANDemo\\etrice.runtime.c\\etR
 856              		.file 3 "C:\\data\\workspaces\\github\\de.protos.demos\\src\\HexagonCANDemo\\etrice.runtime.c\\etR
 857              		.file 4 "C:\\data\\workspaces\\github\\de.protos.demos\\src\\HexagonCANDemo\\etrice.runtime.c\\etR
 858              		.file 5 "C:\\data\\workspaces\\github\\de.protos.demos\\src\\HexagonCANDemo\\etrice.runtime.c\\etR
 859              		.file 6 "C:\\data\\workspaces\\github\\de.protos.demos\\src\\HexagonCANDemo\\etrice.runtime.c\\etR
 860              		.file 7 "C:\\data\\workspaces\\github\\de.protos.demos\\src\\HexagonCANDemo\\etrice.runtime.c\\etR
 861              		.file 8 "C:\\data\\workspaces\\github\\de.protos.demos\\src\\HexagonCANDemo\\etrice.runtime.c\\etR
 862              		.file 9 "C:\\data\\workspaces\\github\\de.protos.demos\\src\\HexagonCANDemo\\etrice.runtime.c\\etR
 863              		.file 10 "C:\\data\\workspaces\\github\\de.protos.demos\\src\\HexagonCANDemo\\etrice.runtime.c\\et
 864              		.file 11 "C:\\data\\workspaces\\github\\de.protos.demos\\src\\HexagonCANDemo\\etrice.runtime.c\\et
 865              		.file 12 "C:\\data\\workspaces\\github\\de.protos.demos\\src\\HexagonCANDemo\\etrice.runtime.c\\et
 866              		.file 13 "c:\\dave-3.1.10\\arm-gcc\\bin\\../lib/gcc/arm-none-eabi/4.7.4/../../../../arm-none-eabi/
 867              		.file 14 "C:\\data\\workspaces\\github\\de.protos.demos\\src\\HexagonCANDemo\\HexagonCANDemoST/pcl
 868              		.file 15 "C:/data/workspaces/github/de.protos.demos/src/HexagonCANDemo/etrice.HexagonCANDemo.demo/