   1              		.syntax unified
   2              		.cpu cortex-m4
   3              		.eabi_attribute 27, 3
   4              		.fpu fpv4-sp-d16
   5              		.eabi_attribute 20, 1
   6              		.eabi_attribute 21, 1
   7              		.eabi_attribute 23, 3
   8              		.eabi_attribute 24, 1
   9              		.eabi_attribute 25, 1
  10              		.eabi_attribute 26, 1
  11              		.eabi_attribute 30, 6
  12              		.eabi_attribute 34, 1
  13              		.eabi_attribute 18, 4
  14              		.thumb
  15              		.file	"etSystemProtocol.c"
  16              		.text
  17              	.Ltext0:
  18              		.cfi_sections	.debug_frame
  19              		.section	.text.etSystemProtocolReplPort_getReplication,"ax",%progbits
  20              		.align	2
  21              		.global	etSystemProtocolReplPort_getReplication
  22              		.thumb
  23              		.thumb_func
  25              	etSystemProtocolReplPort_getReplication:
  26              	.LFB0:
  27              		.file 1 "../etRuntime/src/common/messaging/etSystemProtocol.c"
   1:../etRuntime/src/common/messaging/etSystemProtocol.c **** /**
   2:../etRuntime/src/common/messaging/etSystemProtocol.c ****  * @author generated by eTrice
   3:../etRuntime/src/common/messaging/etSystemProtocol.c ****  *
   4:../etRuntime/src/common/messaging/etSystemProtocol.c ****  * Source File of ProtocolClass etSystemProtocol
   5:../etRuntime/src/common/messaging/etSystemProtocol.c ****  * 
   6:../etRuntime/src/common/messaging/etSystemProtocol.c ****  */
   7:../etRuntime/src/common/messaging/etSystemProtocol.c **** 
   8:../etRuntime/src/common/messaging/etSystemProtocol.c **** #include "etSystemProtocol.h"
   9:../etRuntime/src/common/messaging/etSystemProtocol.c **** #include "debugging/etMSCLogger.h"
  10:../etRuntime/src/common/messaging/etSystemProtocol.c **** 
  11:../etRuntime/src/common/messaging/etSystemProtocol.c **** 
  12:../etRuntime/src/common/messaging/etSystemProtocol.c **** /*--------------------- port methods */
  13:../etRuntime/src/common/messaging/etSystemProtocol.c **** 
  14:../etRuntime/src/common/messaging/etSystemProtocol.c **** 
  15:../etRuntime/src/common/messaging/etSystemProtocol.c **** /* getReplication */
  16:../etRuntime/src/common/messaging/etSystemProtocol.c **** etInt32 etSystemProtocolReplPort_getReplication(const etSystemProtocolReplPort* self) {
  28              		.loc 1 16 0
  29              		.cfi_startproc
  30              		@ args = 0, pretend = 0, frame = 8
  31              		@ frame_needed = 1, uses_anonymous_args = 0
  32              		@ link register save eliminated.
  33 0000 80B4     		push	{r7}
  34              	.LCFI0:
  35              		.cfi_def_cfa_offset 4
  36              		.cfi_offset 7, -4
  37 0002 83B0     		sub	sp, sp, #12
  38              	.LCFI1:
  39              		.cfi_def_cfa_offset 16
  40 0004 00AF     		add	r7, sp, #0
  41              	.LCFI2:
  42              		.cfi_def_cfa_register 7
  43 0006 7860     		str	r0, [r7, #4]
  17:../etRuntime/src/common/messaging/etSystemProtocol.c **** 	return ((etReplPort*)self)->size;
  44              		.loc 1 17 0
  45 0008 7B68     		ldr	r3, [r7, #4]
  46 000a 1B88     		ldrh	r3, [r3, #0]
  47 000c 1BB2     		sxth	r3, r3
  18:../etRuntime/src/common/messaging/etSystemProtocol.c **** }
  48              		.loc 1 18 0
  49 000e 1846     		mov	r0, r3
  50 0010 07F10C07 		add	r7, r7, #12
  51 0014 BD46     		mov	sp, r7
  52 0016 80BC     		pop	{r7}
  53 0018 7047     		bx	lr
  54              		.cfi_endproc
  55              	.LFE0:
  57 001a 00BF     		.section	.text.etSystemProtocolConjPort_poll,"ax",%progbits
  58              		.align	2
  59              		.global	etSystemProtocolConjPort_poll
  60              		.thumb
  61              		.thumb_func
  63              	etSystemProtocolConjPort_poll:
  64              	.LFB1:
  19:../etRuntime/src/common/messaging/etSystemProtocol.c **** 
  20:../etRuntime/src/common/messaging/etSystemProtocol.c **** 
  21:../etRuntime/src/common/messaging/etSystemProtocol.c **** 
  22:../etRuntime/src/common/messaging/etSystemProtocol.c **** void etSystemProtocolConjPort_poll(const etSystemProtocolConjPort* self) {
  65              		.loc 1 22 0
  66              		.cfi_startproc
  67              		@ args = 0, pretend = 0, frame = 8
  68              		@ frame_needed = 1, uses_anonymous_args = 0
  69 0000 80B5     		push	{r7, lr}
  70              	.LCFI3:
  71              		.cfi_def_cfa_offset 8
  72              		.cfi_offset 7, -8
  73              		.cfi_offset 14, -4
  74 0002 82B0     		sub	sp, sp, #8
  75              	.LCFI4:
  76              		.cfi_def_cfa_offset 16
  77 0004 00AF     		add	r7, sp, #0
  78              	.LCFI5:
  79              		.cfi_def_cfa_register 7
  80 0006 7860     		str	r0, [r7, #4]
  23:../etRuntime/src/common/messaging/etSystemProtocol.c **** 	ET_MSC_LOGGER_SYNC_ENTRY("etSystemProtocolConjPort", "poll")
  24:../etRuntime/src/common/messaging/etSystemProtocol.c **** 		etPort_sendMessage(self, etSystemProtocol_IN_poll, 0, NULL);
  81              		.loc 1 24 0
  82 0008 7868     		ldr	r0, [r7, #4]
  83 000a 4FF00101 		mov	r1, #1
  84 000e 4FF00002 		mov	r2, #0
  85 0012 4FF00003 		mov	r3, #0
  86 0016 FFF7FEFF 		bl	etPort_sendMessage
  25:../etRuntime/src/common/messaging/etSystemProtocol.c **** 	ET_MSC_LOGGER_SYNC_EXIT
  26:../etRuntime/src/common/messaging/etSystemProtocol.c **** }
  87              		.loc 1 26 0
  88 001a 07F10807 		add	r7, r7, #8
  89 001e BD46     		mov	sp, r7
  90 0020 80BD     		pop	{r7, pc}
  91              		.cfi_endproc
  92              	.LFE1:
  94 0022 00BF     		.section	.text.etSystemProtocolConjReplPort_poll_broadcast,"ax",%progbits
  95              		.align	2
  96              		.global	etSystemProtocolConjReplPort_poll_broadcast
  97              		.thumb
  98              		.thumb_func
 100              	etSystemProtocolConjReplPort_poll_broadcast:
 101              	.LFB2:
  27:../etRuntime/src/common/messaging/etSystemProtocol.c **** 
  28:../etRuntime/src/common/messaging/etSystemProtocol.c **** void etSystemProtocolConjReplPort_poll_broadcast(const etSystemProtocolConjReplPort* self) {
 102              		.loc 1 28 0
 103              		.cfi_startproc
 104              		@ args = 0, pretend = 0, frame = 16
 105              		@ frame_needed = 1, uses_anonymous_args = 0
 106 0000 80B5     		push	{r7, lr}
 107              	.LCFI6:
 108              		.cfi_def_cfa_offset 8
 109              		.cfi_offset 7, -8
 110              		.cfi_offset 14, -4
 111 0002 84B0     		sub	sp, sp, #16
 112              	.LCFI7:
 113              		.cfi_def_cfa_offset 24
 114 0004 00AF     		add	r7, sp, #0
 115              	.LCFI8:
 116              		.cfi_def_cfa_register 7
 117 0006 7860     		str	r0, [r7, #4]
  29:../etRuntime/src/common/messaging/etSystemProtocol.c **** 	int i;
  30:../etRuntime/src/common/messaging/etSystemProtocol.c **** 	ET_MSC_LOGGER_SYNC_ENTRY("etSystemProtocolConjReplPort", "poll")
  31:../etRuntime/src/common/messaging/etSystemProtocol.c **** 	for (i=0; i<((etReplPort*)self)->size; ++i) {
 118              		.loc 1 31 0
 119 0008 4FF00003 		mov	r3, #0
 120 000c FB60     		str	r3, [r7, #12]
 121 000e 12E0     		b	.L5
 122              	.L6:
  32:../etRuntime/src/common/messaging/etSystemProtocol.c **** 		etPort_sendMessage(((etPort*)&((etReplPort*)self)->ports[i]), etSystemProtocol_IN_poll, 0, NULL);
 123              		.loc 1 32 0 discriminator 2
 124 0010 7B68     		ldr	r3, [r7, #4]
 125 0012 5A68     		ldr	r2, [r3, #4]
 126 0014 FB68     		ldr	r3, [r7, #12]
 127 0016 4FEA0313 		lsl	r3, r3, #4
 128 001a D318     		adds	r3, r2, r3
 129 001c 1846     		mov	r0, r3
 130 001e 4FF00101 		mov	r1, #1
 131 0022 4FF00002 		mov	r2, #0
 132 0026 4FF00003 		mov	r3, #0
 133 002a FFF7FEFF 		bl	etPort_sendMessage
  31:../etRuntime/src/common/messaging/etSystemProtocol.c **** 	for (i=0; i<((etReplPort*)self)->size; ++i) {
 134              		.loc 1 31 0 discriminator 2
 135 002e FB68     		ldr	r3, [r7, #12]
 136 0030 03F10103 		add	r3, r3, #1
 137 0034 FB60     		str	r3, [r7, #12]
 138              	.L5:
  31:../etRuntime/src/common/messaging/etSystemProtocol.c **** 	for (i=0; i<((etReplPort*)self)->size; ++i) {
 139              		.loc 1 31 0 is_stmt 0 discriminator 1
 140 0036 7B68     		ldr	r3, [r7, #4]
 141 0038 1B88     		ldrh	r3, [r3, #0]
 142 003a 1AB2     		sxth	r2, r3
 143 003c FB68     		ldr	r3, [r7, #12]
 144 003e 9A42     		cmp	r2, r3
 145 0040 E6DC     		bgt	.L6
  33:../etRuntime/src/common/messaging/etSystemProtocol.c **** 	}
  34:../etRuntime/src/common/messaging/etSystemProtocol.c **** 	ET_MSC_LOGGER_SYNC_EXIT
  35:../etRuntime/src/common/messaging/etSystemProtocol.c **** }
 146              		.loc 1 35 0 is_stmt 1
 147 0042 07F11007 		add	r7, r7, #16
 148 0046 BD46     		mov	sp, r7
 149 0048 80BD     		pop	{r7, pc}
 150              		.cfi_endproc
 151              	.LFE2:
 153 004a 00BF     		.section	.text.etSystemProtocolConjReplPort_poll,"ax",%progbits
 154              		.align	2
 155              		.global	etSystemProtocolConjReplPort_poll
 156              		.thumb
 157              		.thumb_func
 159              	etSystemProtocolConjReplPort_poll:
 160              	.LFB3:
  36:../etRuntime/src/common/messaging/etSystemProtocol.c **** 
  37:../etRuntime/src/common/messaging/etSystemProtocol.c **** void etSystemProtocolConjReplPort_poll(const etSystemProtocolConjReplPort* self, int idx) {
 161              		.loc 1 37 0
 162              		.cfi_startproc
 163              		@ args = 0, pretend = 0, frame = 8
 164              		@ frame_needed = 1, uses_anonymous_args = 0
 165 0000 80B5     		push	{r7, lr}
 166              	.LCFI9:
 167              		.cfi_def_cfa_offset 8
 168              		.cfi_offset 7, -8
 169              		.cfi_offset 14, -4
 170 0002 82B0     		sub	sp, sp, #8
 171              	.LCFI10:
 172              		.cfi_def_cfa_offset 16
 173 0004 00AF     		add	r7, sp, #0
 174              	.LCFI11:
 175              		.cfi_def_cfa_register 7
 176 0006 7860     		str	r0, [r7, #4]
 177 0008 3960     		str	r1, [r7, #0]
  38:../etRuntime/src/common/messaging/etSystemProtocol.c **** 	ET_MSC_LOGGER_SYNC_ENTRY("etSystemProtocolConjReplPort", "poll")
  39:../etRuntime/src/common/messaging/etSystemProtocol.c **** 	if (0<=idx && idx<((etReplPort*)self)->size) {
 178              		.loc 1 39 0
 179 000a 3B68     		ldr	r3, [r7, #0]
 180 000c 002B     		cmp	r3, #0
 181 000e 14DB     		blt	.L7
 182              		.loc 1 39 0 is_stmt 0 discriminator 1
 183 0010 7B68     		ldr	r3, [r7, #4]
 184 0012 1B88     		ldrh	r3, [r3, #0]
 185 0014 1AB2     		sxth	r2, r3
 186 0016 3B68     		ldr	r3, [r7, #0]
 187 0018 9A42     		cmp	r2, r3
 188 001a 0EDD     		ble	.L7
  40:../etRuntime/src/common/messaging/etSystemProtocol.c **** 		etPort_sendMessage(((etPort*)&((etReplPort*)self)->ports[idx]), etSystemProtocol_IN_poll, 0, NULL
 189              		.loc 1 40 0 is_stmt 1
 190 001c 7B68     		ldr	r3, [r7, #4]
 191 001e 5A68     		ldr	r2, [r3, #4]
 192 0020 3B68     		ldr	r3, [r7, #0]
 193 0022 4FEA0313 		lsl	r3, r3, #4
 194 0026 D318     		adds	r3, r2, r3
 195 0028 1846     		mov	r0, r3
 196 002a 4FF00101 		mov	r1, #1
 197 002e 4FF00002 		mov	r2, #0
 198 0032 4FF00003 		mov	r3, #0
 199 0036 FFF7FEFF 		bl	etPort_sendMessage
 200              	.L7:
  41:../etRuntime/src/common/messaging/etSystemProtocol.c **** 	}
  42:../etRuntime/src/common/messaging/etSystemProtocol.c **** 	ET_MSC_LOGGER_SYNC_EXIT
  43:../etRuntime/src/common/messaging/etSystemProtocol.c **** }
 201              		.loc 1 43 0
 202 003a 07F10807 		add	r7, r7, #8
 203 003e BD46     		mov	sp, r7
 204 0040 80BD     		pop	{r7, pc}
 205              		.cfi_endproc
 206              	.LFE3:
 208 0042 00BF     		.section	.text.etSystemProtocolConjPort_terminate,"ax",%progbits
 209              		.align	2
 210              		.global	etSystemProtocolConjPort_terminate
 211              		.thumb
 212              		.thumb_func
 214              	etSystemProtocolConjPort_terminate:
 215              	.LFB4:
  44:../etRuntime/src/common/messaging/etSystemProtocol.c **** 
  45:../etRuntime/src/common/messaging/etSystemProtocol.c **** void etSystemProtocolConjPort_terminate(const etSystemProtocolConjPort* self) {
 216              		.loc 1 45 0
 217              		.cfi_startproc
 218              		@ args = 0, pretend = 0, frame = 8
 219              		@ frame_needed = 1, uses_anonymous_args = 0
 220 0000 80B5     		push	{r7, lr}
 221              	.LCFI12:
 222              		.cfi_def_cfa_offset 8
 223              		.cfi_offset 7, -8
 224              		.cfi_offset 14, -4
 225 0002 82B0     		sub	sp, sp, #8
 226              	.LCFI13:
 227              		.cfi_def_cfa_offset 16
 228 0004 00AF     		add	r7, sp, #0
 229              	.LCFI14:
 230              		.cfi_def_cfa_register 7
 231 0006 7860     		str	r0, [r7, #4]
  46:../etRuntime/src/common/messaging/etSystemProtocol.c **** 	ET_MSC_LOGGER_SYNC_ENTRY("etSystemProtocolConjPort", "terminate")
  47:../etRuntime/src/common/messaging/etSystemProtocol.c **** 		etPort_sendMessage(self, etSystemProtocol_IN_terminate, 0, NULL);
 232              		.loc 1 47 0
 233 0008 7868     		ldr	r0, [r7, #4]
 234 000a 4FF00201 		mov	r1, #2
 235 000e 4FF00002 		mov	r2, #0
 236 0012 4FF00003 		mov	r3, #0
 237 0016 FFF7FEFF 		bl	etPort_sendMessage
  48:../etRuntime/src/common/messaging/etSystemProtocol.c **** 	ET_MSC_LOGGER_SYNC_EXIT
  49:../etRuntime/src/common/messaging/etSystemProtocol.c **** }
 238              		.loc 1 49 0
 239 001a 07F10807 		add	r7, r7, #8
 240 001e BD46     		mov	sp, r7
 241 0020 80BD     		pop	{r7, pc}
 242              		.cfi_endproc
 243              	.LFE4:
 245 0022 00BF     		.section	.text.etSystemProtocolConjReplPort_terminate_broadcast,"ax",%progbits
 246              		.align	2
 247              		.global	etSystemProtocolConjReplPort_terminate_broadcast
 248              		.thumb
 249              		.thumb_func
 251              	etSystemProtocolConjReplPort_terminate_broadcast:
 252              	.LFB5:
  50:../etRuntime/src/common/messaging/etSystemProtocol.c **** 
  51:../etRuntime/src/common/messaging/etSystemProtocol.c **** void etSystemProtocolConjReplPort_terminate_broadcast(const etSystemProtocolConjReplPort* self) {
 253              		.loc 1 51 0
 254              		.cfi_startproc
 255              		@ args = 0, pretend = 0, frame = 16
 256              		@ frame_needed = 1, uses_anonymous_args = 0
 257 0000 80B5     		push	{r7, lr}
 258              	.LCFI15:
 259              		.cfi_def_cfa_offset 8
 260              		.cfi_offset 7, -8
 261              		.cfi_offset 14, -4
 262 0002 84B0     		sub	sp, sp, #16
 263              	.LCFI16:
 264              		.cfi_def_cfa_offset 24
 265 0004 00AF     		add	r7, sp, #0
 266              	.LCFI17:
 267              		.cfi_def_cfa_register 7
 268 0006 7860     		str	r0, [r7, #4]
  52:../etRuntime/src/common/messaging/etSystemProtocol.c **** 	int i;
  53:../etRuntime/src/common/messaging/etSystemProtocol.c **** 	ET_MSC_LOGGER_SYNC_ENTRY("etSystemProtocolConjReplPort", "terminate")
  54:../etRuntime/src/common/messaging/etSystemProtocol.c **** 	for (i=0; i<((etReplPort*)self)->size; ++i) {
 269              		.loc 1 54 0
 270 0008 4FF00003 		mov	r3, #0
 271 000c FB60     		str	r3, [r7, #12]
 272 000e 12E0     		b	.L11
 273              	.L12:
  55:../etRuntime/src/common/messaging/etSystemProtocol.c **** 		etPort_sendMessage(((etPort*)&((etReplPort*)self)->ports[i]), etSystemProtocol_IN_terminate, 0, N
 274              		.loc 1 55 0 discriminator 2
 275 0010 7B68     		ldr	r3, [r7, #4]
 276 0012 5A68     		ldr	r2, [r3, #4]
 277 0014 FB68     		ldr	r3, [r7, #12]
 278 0016 4FEA0313 		lsl	r3, r3, #4
 279 001a D318     		adds	r3, r2, r3
 280 001c 1846     		mov	r0, r3
 281 001e 4FF00201 		mov	r1, #2
 282 0022 4FF00002 		mov	r2, #0
 283 0026 4FF00003 		mov	r3, #0
 284 002a FFF7FEFF 		bl	etPort_sendMessage
  54:../etRuntime/src/common/messaging/etSystemProtocol.c **** 	for (i=0; i<((etReplPort*)self)->size; ++i) {
 285              		.loc 1 54 0 discriminator 2
 286 002e FB68     		ldr	r3, [r7, #12]
 287 0030 03F10103 		add	r3, r3, #1
 288 0034 FB60     		str	r3, [r7, #12]
 289              	.L11:
  54:../etRuntime/src/common/messaging/etSystemProtocol.c **** 	for (i=0; i<((etReplPort*)self)->size; ++i) {
 290              		.loc 1 54 0 is_stmt 0 discriminator 1
 291 0036 7B68     		ldr	r3, [r7, #4]
 292 0038 1B88     		ldrh	r3, [r3, #0]
 293 003a 1AB2     		sxth	r2, r3
 294 003c FB68     		ldr	r3, [r7, #12]
 295 003e 9A42     		cmp	r2, r3
 296 0040 E6DC     		bgt	.L12
  56:../etRuntime/src/common/messaging/etSystemProtocol.c **** 	}
  57:../etRuntime/src/common/messaging/etSystemProtocol.c **** 	ET_MSC_LOGGER_SYNC_EXIT
  58:../etRuntime/src/common/messaging/etSystemProtocol.c **** }
 297              		.loc 1 58 0 is_stmt 1
 298 0042 07F11007 		add	r7, r7, #16
 299 0046 BD46     		mov	sp, r7
 300 0048 80BD     		pop	{r7, pc}
 301              		.cfi_endproc
 302              	.LFE5:
 304 004a 00BF     		.section	.text.etSystemProtocolConjReplPort_terminate,"ax",%progbits
 305              		.align	2
 306              		.global	etSystemProtocolConjReplPort_terminate
 307              		.thumb
 308              		.thumb_func
 310              	etSystemProtocolConjReplPort_terminate:
 311              	.LFB6:
  59:../etRuntime/src/common/messaging/etSystemProtocol.c **** 
  60:../etRuntime/src/common/messaging/etSystemProtocol.c **** void etSystemProtocolConjReplPort_terminate(const etSystemProtocolConjReplPort* self, int idx) {
 312              		.loc 1 60 0
 313              		.cfi_startproc
 314              		@ args = 0, pretend = 0, frame = 8
 315              		@ frame_needed = 1, uses_anonymous_args = 0
 316 0000 80B5     		push	{r7, lr}
 317              	.LCFI18:
 318              		.cfi_def_cfa_offset 8
 319              		.cfi_offset 7, -8
 320              		.cfi_offset 14, -4
 321 0002 82B0     		sub	sp, sp, #8
 322              	.LCFI19:
 323              		.cfi_def_cfa_offset 16
 324 0004 00AF     		add	r7, sp, #0
 325              	.LCFI20:
 326              		.cfi_def_cfa_register 7
 327 0006 7860     		str	r0, [r7, #4]
 328 0008 3960     		str	r1, [r7, #0]
  61:../etRuntime/src/common/messaging/etSystemProtocol.c **** 	ET_MSC_LOGGER_SYNC_ENTRY("etSystemProtocolConjReplPort", "terminate")
  62:../etRuntime/src/common/messaging/etSystemProtocol.c **** 	if (0<=idx && idx<((etReplPort*)self)->size) {
 329              		.loc 1 62 0
 330 000a 3B68     		ldr	r3, [r7, #0]
 331 000c 002B     		cmp	r3, #0
 332 000e 14DB     		blt	.L13
 333              		.loc 1 62 0 is_stmt 0 discriminator 1
 334 0010 7B68     		ldr	r3, [r7, #4]
 335 0012 1B88     		ldrh	r3, [r3, #0]
 336 0014 1AB2     		sxth	r2, r3
 337 0016 3B68     		ldr	r3, [r7, #0]
 338 0018 9A42     		cmp	r2, r3
 339 001a 0EDD     		ble	.L13
  63:../etRuntime/src/common/messaging/etSystemProtocol.c **** 		etPort_sendMessage(((etPort*)&((etReplPort*)self)->ports[idx]), etSystemProtocol_IN_terminate, 0,
 340              		.loc 1 63 0 is_stmt 1
 341 001c 7B68     		ldr	r3, [r7, #4]
 342 001e 5A68     		ldr	r2, [r3, #4]
 343 0020 3B68     		ldr	r3, [r7, #0]
 344 0022 4FEA0313 		lsl	r3, r3, #4
 345 0026 D318     		adds	r3, r2, r3
 346 0028 1846     		mov	r0, r3
 347 002a 4FF00201 		mov	r1, #2
 348 002e 4FF00002 		mov	r2, #0
 349 0032 4FF00003 		mov	r3, #0
 350 0036 FFF7FEFF 		bl	etPort_sendMessage
 351              	.L13:
  64:../etRuntime/src/common/messaging/etSystemProtocol.c **** 	}
  65:../etRuntime/src/common/messaging/etSystemProtocol.c **** 	ET_MSC_LOGGER_SYNC_EXIT
  66:../etRuntime/src/common/messaging/etSystemProtocol.c **** }
 352              		.loc 1 66 0
 353 003a 07F10807 		add	r7, r7, #8
 354 003e BD46     		mov	sp, r7
 355 0040 80BD     		pop	{r7, pc}
 356              		.cfi_endproc
 357              	.LFE6:
 359 0042 00BF     		.section	.text.etSystemProtocolConjReplPort_getReplication,"ax",%progbits
 360              		.align	2
 361              		.global	etSystemProtocolConjReplPort_getReplication
 362              		.thumb
 363              		.thumb_func
 365              	etSystemProtocolConjReplPort_getReplication:
 366              	.LFB7:
  67:../etRuntime/src/common/messaging/etSystemProtocol.c **** 
  68:../etRuntime/src/common/messaging/etSystemProtocol.c **** 
  69:../etRuntime/src/common/messaging/etSystemProtocol.c **** /* getReplication */
  70:../etRuntime/src/common/messaging/etSystemProtocol.c **** etInt32 etSystemProtocolConjReplPort_getReplication(const etSystemProtocolConjReplPort* self) {
 367              		.loc 1 70 0
 368              		.cfi_startproc
 369              		@ args = 0, pretend = 0, frame = 8
 370              		@ frame_needed = 1, uses_anonymous_args = 0
 371              		@ link register save eliminated.
 372 0000 80B4     		push	{r7}
 373              	.LCFI21:
 374              		.cfi_def_cfa_offset 4
 375              		.cfi_offset 7, -4
 376 0002 83B0     		sub	sp, sp, #12
 377              	.LCFI22:
 378              		.cfi_def_cfa_offset 16
 379 0004 00AF     		add	r7, sp, #0
 380              	.LCFI23:
 381              		.cfi_def_cfa_register 7
 382 0006 7860     		str	r0, [r7, #4]
  71:../etRuntime/src/common/messaging/etSystemProtocol.c **** 	return ((etReplPort*)self)->size;
 383              		.loc 1 71 0
 384 0008 7B68     		ldr	r3, [r7, #4]
 385 000a 1B88     		ldrh	r3, [r3, #0]
 386 000c 1BB2     		sxth	r3, r3
  72:../etRuntime/src/common/messaging/etSystemProtocol.c **** }
 387              		.loc 1 72 0
 388 000e 1846     		mov	r0, r3
 389 0010 07F10C07 		add	r7, r7, #12
 390 0014 BD46     		mov	sp, r7
 391 0016 80BC     		pop	{r7}
 392 0018 7047     		bx	lr
 393              		.cfi_endproc
 394              	.LFE7:
 396 001a 00BF     		.section	.rodata
 397              		.align	2
 398              	.LC0:
 399 0000 4D494E00 		.ascii	"MIN\000"
 400              		.align	2
 401              	.LC1:
 402 0004 706F6C6C 		.ascii	"poll\000"
 402      00
 403 0009 000000   		.align	2
 404              	.LC2:
 405 000c 7465726D 		.ascii	"terminate\000"
 405      696E6174 
 405      6500
 406 0016 0000     		.align	2
 407              	.LC3:
 408 0018 4D415800 		.ascii	"MAX\000"
 409              		.align	2
 412              	etSystemProtocol_messageStrings:
 413 001c 00000000 		.word	.LC0
 414 0020 04000000 		.word	.LC1
 415 0024 0C000000 		.word	.LC2
 416 0028 18000000 		.word	.LC3
 417              		.align	2
 418              	.LC4:
 419 002c 4D657373 		.ascii	"Message ID out of range\000"
 419      61676520 
 419      4944206F 
 419      7574206F 
 419      66207261 
 420              		.section	.text.etSystemProtocol_getMessageString,"ax",%progbits
 421              		.align	2
 422              		.global	etSystemProtocol_getMessageString
 423              		.thumb
 424              		.thumb_func
 426              	etSystemProtocol_getMessageString:
 427              	.LFB8:
  73:../etRuntime/src/common/messaging/etSystemProtocol.c **** 
  74:../etRuntime/src/common/messaging/etSystemProtocol.c **** 
  75:../etRuntime/src/common/messaging/etSystemProtocol.c **** 
  76:../etRuntime/src/common/messaging/etSystemProtocol.c **** /*--------------------- debug helpers */
  77:../etRuntime/src/common/messaging/etSystemProtocol.c **** 
  78:../etRuntime/src/common/messaging/etSystemProtocol.c **** /* message names as strings for debugging (generate MSC) */
  79:../etRuntime/src/common/messaging/etSystemProtocol.c **** static const char* const etSystemProtocol_messageStrings[] = {"MIN", "poll", "terminate", "MAX"};
  80:../etRuntime/src/common/messaging/etSystemProtocol.c **** 
  81:../etRuntime/src/common/messaging/etSystemProtocol.c **** const char* etSystemProtocol_getMessageString(int msg_id) {
 428              		.loc 1 81 0
 429              		.cfi_startproc
 430              		@ args = 0, pretend = 0, frame = 8
 431              		@ frame_needed = 1, uses_anonymous_args = 0
 432              		@ link register save eliminated.
 433 0000 80B4     		push	{r7}
 434              	.LCFI24:
 435              		.cfi_def_cfa_offset 4
 436              		.cfi_offset 7, -4
 437 0002 83B0     		sub	sp, sp, #12
 438              	.LCFI25:
 439              		.cfi_def_cfa_offset 16
 440 0004 00AF     		add	r7, sp, #0
 441              	.LCFI26:
 442              		.cfi_def_cfa_register 7
 443 0006 7860     		str	r0, [r7, #4]
  82:../etRuntime/src/common/messaging/etSystemProtocol.c **** 	if (msg_id<etSystemProtocol_MSG_MIN || msg_id>etSystemProtocol_MSG_MAX+1){
 444              		.loc 1 82 0
 445 0008 7B68     		ldr	r3, [r7, #4]
 446 000a 002B     		cmp	r3, #0
 447 000c 02DB     		blt	.L18
 448              		.loc 1 82 0 is_stmt 0 discriminator 1
 449 000e 7B68     		ldr	r3, [r7, #4]
 450 0010 042B     		cmp	r3, #4
 451 0012 04DD     		ble	.L19
 452              	.L18:
  83:../etRuntime/src/common/messaging/etSystemProtocol.c **** 		/* id out of range */
  84:../etRuntime/src/common/messaging/etSystemProtocol.c **** 		return "Message ID out of range";
 453              		.loc 1 84 0 is_stmt 1
 454 0014 40F20003 		movw	r3, #:lower16:.LC4
 455 0018 C0F20003 		movt	r3, #:upper16:.LC4
 456 001c 06E0     		b	.L20
 457              	.L19:
  85:../etRuntime/src/common/messaging/etSystemProtocol.c **** 	}
  86:../etRuntime/src/common/messaging/etSystemProtocol.c **** 	else{
  87:../etRuntime/src/common/messaging/etSystemProtocol.c **** 		return etSystemProtocol_messageStrings[msg_id];
 458              		.loc 1 87 0
 459 001e 40F20003 		movw	r3, #:lower16:etSystemProtocol_messageStrings
 460 0022 C0F20003 		movt	r3, #:upper16:etSystemProtocol_messageStrings
 461 0026 7A68     		ldr	r2, [r7, #4]
 462 0028 53F82230 		ldr	r3, [r3, r2, lsl #2]
 463              	.L20:
  88:../etRuntime/src/common/messaging/etSystemProtocol.c **** 	}
  89:../etRuntime/src/common/messaging/etSystemProtocol.c **** }
 464              		.loc 1 89 0
 465 002c 1846     		mov	r0, r3
 466 002e 07F10C07 		add	r7, r7, #12
 467 0032 BD46     		mov	sp, r7
 468 0034 80BC     		pop	{r7}
 469 0036 7047     		bx	lr
 470              		.cfi_endproc
 471              	.LFE8:
 473              		.text
 474              	.Letext0:
 475              		.file 2 "C:\\data\\workspaces\\github\\de.protos.demos\\src\\HexagonCANDemo\\etrice.runtime.c\\etR
 476              		.file 3 "C:\\data\\workspaces\\github\\de.protos.demos\\src\\HexagonCANDemo\\etrice.runtime.c\\etR
 477              		.file 4 "C:\\data\\workspaces\\github\\de.protos.demos\\src\\HexagonCANDemo\\etrice.runtime.c\\etR
 478              		.file 5 "C:\\data\\workspaces\\github\\de.protos.demos\\src\\HexagonCANDemo\\etrice.runtime.c\\etR
 479              		.file 6 "C:\\data\\workspaces\\github\\de.protos.demos\\src\\HexagonCANDemo\\etrice.runtime.c\\etR
 480              		.file 7 "C:\\data\\workspaces\\github\\de.protos.demos\\src\\HexagonCANDemo\\etrice.runtime.c\\etR
 481              		.file 8 "C:\\data\\workspaces\\github\\de.protos.demos\\src\\HexagonCANDemo\\etrice.runtime.c\\etR
 482              		.file 9 "C:\\data\\workspaces\\github\\de.protos.demos\\src\\HexagonCANDemo\\etrice.runtime.c\\etR
 483              		.file 10 "C:\\data\\workspaces\\github\\de.protos.demos\\src\\HexagonCANDemo\\etrice.runtime.c\\et
 484              		.file 11 "C:\\data\\workspaces\\github\\de.protos.demos\\src\\HexagonCANDemo\\etrice.runtime.c\\et
 485              		.file 12 "C:\\data\\workspaces\\github\\de.protos.demos\\src\\HexagonCANDemo\\etrice.runtime.c\\et
 486              		.file 13 "../etRuntime/src/common/messaging/etSystemProtocol.h"