   1              		.syntax unified
   2              		.cpu cortex-m4
   3              		.eabi_attribute 27, 3
   4              		.fpu fpv4-sp-d16
   5              		.eabi_attribute 20, 1
   6              		.eabi_attribute 21, 1
   7              		.eabi_attribute 23, 3
   8              		.eabi_attribute 24, 1
   9              		.eabi_attribute 25, 1
  10              		.eabi_attribute 26, 1
  11              		.eabi_attribute 30, 6
  12              		.eabi_attribute 34, 1
  13              		.eabi_attribute 18, 4
  14              		.thumb
  15              		.file	"StartDaveTimer.c"
  16              		.text
  17              	.Ltext0:
  18              		.cfi_sections	.debug_frame
  19              		.section	.text.timerCallback,"ax",%progbits
  20              		.align	2
  21              		.global	timerCallback
  22              		.thumb
  23              		.thumb_func
  25              	timerCallback:
  26              	.LFB112:
  27              		.file 1 "../StartDaveTimer.c"
   1:../StartDaveTimer.c **** /*
   2:../StartDaveTimer.c ****  * StartDaveTimer.c
   3:../StartDaveTimer.c ****  *
   4:../StartDaveTimer.c ****  *  Created on: 09.11.2014
   5:../StartDaveTimer.c ****  *      Author: TJung
   6:../StartDaveTimer.c ****  */
   7:../StartDaveTimer.c **** 
   8:../StartDaveTimer.c **** #include "DAVE3.h"
   9:../StartDaveTimer.c **** 
  10:../StartDaveTimer.c **** void etTick_Handler(void);
  11:../StartDaveTimer.c **** 
  12:../StartDaveTimer.c **** void timerCallback(void * arg){
  28              		.loc 1 12 0
  29              		.cfi_startproc
  30              		@ args = 0, pretend = 0, frame = 8
  31              		@ frame_needed = 1, uses_anonymous_args = 0
  32 0000 80B5     		push	{r7, lr}
  33              	.LCFI0:
  34              		.cfi_def_cfa_offset 8
  35              		.cfi_offset 7, -8
  36              		.cfi_offset 14, -4
  37 0002 82B0     		sub	sp, sp, #8
  38              	.LCFI1:
  39              		.cfi_def_cfa_offset 16
  40 0004 00AF     		add	r7, sp, #0
  41              	.LCFI2:
  42              		.cfi_def_cfa_register 7
  43 0006 7860     		str	r0, [r7, #4]
  13:../StartDaveTimer.c **** 	etTick_Handler();
  44              		.loc 1 13 0
  45 0008 FFF7FEFF 		bl	etTick_Handler
  14:../StartDaveTimer.c **** }
  46              		.loc 1 14 0
  47 000c 07F10807 		add	r7, r7, #8
  48 0010 BD46     		mov	sp, r7
  49 0012 80BD     		pop	{r7, pc}
  50              		.cfi_endproc
  51              	.LFE112:
  53              		.section	.text.StartDaveTimer,"ax",%progbits
  54              		.align	2
  55              		.global	StartDaveTimer
  56              		.thumb
  57              		.thumb_func
  59              	StartDaveTimer:
  60              	.LFB113:
  15:../StartDaveTimer.c **** 
  16:../StartDaveTimer.c **** 
  17:../StartDaveTimer.c **** typedef void (*SYSTM001_TimerCallBackPtr)(void* ParamToCallBack);
  18:../StartDaveTimer.c **** 
  19:../StartDaveTimer.c **** void StartDaveTimer(void){
  61              		.loc 1 19 0
  62              		.cfi_startproc
  63              		@ args = 0, pretend = 0, frame = 8
  64              		@ frame_needed = 1, uses_anonymous_args = 0
  65 0000 80B5     		push	{r7, lr}
  66              	.LCFI3:
  67              		.cfi_def_cfa_offset 8
  68              		.cfi_offset 7, -8
  69              		.cfi_offset 14, -4
  70 0002 82B0     		sub	sp, sp, #8
  71              	.LCFI4:
  72              		.cfi_def_cfa_offset 16
  73 0004 00AF     		add	r7, sp, #0
  74              	.LCFI5:
  75              		.cfi_def_cfa_register 7
  20:../StartDaveTimer.c **** handle_t timer;
  21:../StartDaveTimer.c **** 
  22:../StartDaveTimer.c **** 	timer = SYSTM001_CreateTimer(1,SYSTM001_PERIODIC,(SYSTM001_TimerCallBackPtr*) timerCallback,(void*
  76              		.loc 1 22 0
  77 0006 4FF00100 		mov	r0, #1
  78 000a 4FF00101 		mov	r1, #1
  79 000e 40F20002 		movw	r2, #:lower16:timerCallback
  80 0012 C0F20002 		movt	r2, #:upper16:timerCallback
  81 0016 4FF00003 		mov	r3, #0
  82 001a FFF7FEFF 		bl	SYSTM001_CreateTimer
  83 001e 7860     		str	r0, [r7, #4]
  23:../StartDaveTimer.c **** 	SYSTM001_StartTimer(timer);
  84              		.loc 1 23 0
  85 0020 7868     		ldr	r0, [r7, #4]
  86 0022 FFF7FEFF 		bl	SYSTM001_StartTimer
  24:../StartDaveTimer.c **** }
  87              		.loc 1 24 0
  88 0026 07F10807 		add	r7, r7, #8
  89 002a BD46     		mov	sp, r7
  90 002c 80BD     		pop	{r7, pc}
  91              		.cfi_endproc
  92              	.LFE113:
  94 002e 00BF     		.text
  95              	.Letext0:
  96              		.file 2 "c:\\dave-3.1.10\\arm-gcc\\bin\\../lib/gcc/arm-none-eabi/4.7.4/../../../../arm-none-eabi/i
  97              		.file 3 "C:\\data\\workspaces\\github\\de.protos.demos\\src\\HexagonCANDemo\\HexagonCANDemoST\\Dav
  98              		.file 4 "C:\\data\\workspaces\\github\\de.protos.demos\\src\\HexagonCANDemo\\HexagonCANDemoST\\Dav
  99              		.file 5 "C:\\DAVE-3.1.10\\eclipse\\/../CMSIS/Include/core_cm4.h"