   1              		.cpu cortex-m0
   2              		.fpu softvfp
   3              		.eabi_attribute 20, 1
   4              		.eabi_attribute 21, 1
   5              		.eabi_attribute 23, 3
   6              		.eabi_attribute 24, 1
   7              		.eabi_attribute 25, 1
   8              		.eabi_attribute 26, 1
   9              		.eabi_attribute 30, 6
  10              		.eabi_attribute 34, 0
  11              		.eabi_attribute 18, 4
  12              		.code	16
  13              		.file	"PUART001.c"
  14              		.text
  15              	.Ltext0:
  16              		.cfi_sections	.debug_frame
  17              		.section	.text.PUART001ReplPort_getReplication,"ax",%progbits
  18              		.align	2
  19              		.global	PUART001ReplPort_getReplication
  20              		.code	16
  21              		.thumb_func
  23              	PUART001ReplPort_getReplication:
  24              	.LFB33:
  25              		.file 1 "C:/data/workspaces/github/de.protos.demos/src/XMC2GoBlinky/etrice.XMC2GoBlinky.demo/src-g
   1:C:/data/workspaces/github/de.protos.demos/src/XMC2GoBlinky/etrice.XMC2GoBlinky.demo/src-gen-mt/DaveInterface\PUART001.c **** /**
   2:C:/data/workspaces/github/de.protos.demos/src/XMC2GoBlinky/etrice.XMC2GoBlinky.demo/src-gen-mt/DaveInterface\PUART001.c ****  * @author generated by eTrice
   3:C:/data/workspaces/github/de.protos.demos/src/XMC2GoBlinky/etrice.XMC2GoBlinky.demo/src-gen-mt/DaveInterface\PUART001.c ****  *
   4:C:/data/workspaces/github/de.protos.demos/src/XMC2GoBlinky/etrice.XMC2GoBlinky.demo/src-gen-mt/DaveInterface\PUART001.c ****  * Source File of ProtocolClass PUART001
   5:C:/data/workspaces/github/de.protos.demos/src/XMC2GoBlinky/etrice.XMC2GoBlinky.demo/src-gen-mt/DaveInterface\PUART001.c ****  * 
   6:C:/data/workspaces/github/de.protos.demos/src/XMC2GoBlinky/etrice.XMC2GoBlinky.demo/src-gen-mt/DaveInterface\PUART001.c ****  */
   7:C:/data/workspaces/github/de.protos.demos/src/XMC2GoBlinky/etrice.XMC2GoBlinky.demo/src-gen-mt/DaveInterface\PUART001.c **** 
   8:C:/data/workspaces/github/de.protos.demos/src/XMC2GoBlinky/etrice.XMC2GoBlinky.demo/src-gen-mt/DaveInterface\PUART001.c **** #include "PUART001.h"
   9:C:/data/workspaces/github/de.protos.demos/src/XMC2GoBlinky/etrice.XMC2GoBlinky.demo/src-gen-mt/DaveInterface\PUART001.c **** #include "debugging/etMSCLogger.h"
  10:C:/data/workspaces/github/de.protos.demos/src/XMC2GoBlinky/etrice.XMC2GoBlinky.demo/src-gen-mt/DaveInterface\PUART001.c **** #include "PUART001_Utils.h"
  11:C:/data/workspaces/github/de.protos.demos/src/XMC2GoBlinky/etrice.XMC2GoBlinky.demo/src-gen-mt/DaveInterface\PUART001.c **** 
  12:C:/data/workspaces/github/de.protos.demos/src/XMC2GoBlinky/etrice.XMC2GoBlinky.demo/src-gen-mt/DaveInterface\PUART001.c **** 
  13:C:/data/workspaces/github/de.protos.demos/src/XMC2GoBlinky/etrice.XMC2GoBlinky.demo/src-gen-mt/DaveInterface\PUART001.c **** /*--------------------- port methods */
  14:C:/data/workspaces/github/de.protos.demos/src/XMC2GoBlinky/etrice.XMC2GoBlinky.demo/src-gen-mt/DaveInterface\PUART001.c **** etInt32 PUART001ReplPort_getReplication(const PUART001ReplPort* self) {
  26              		.loc 1 14 0
  27              		.cfi_startproc
  28 0000 80B5     		push	{r7, lr}
  29              	.LCFI0:
  30              		.cfi_def_cfa_offset 8
  31              		.cfi_offset 7, -8
  32              		.cfi_offset 14, -4
  33 0002 82B0     		sub	sp, sp, #8
  34              	.LCFI1:
  35              		.cfi_def_cfa_offset 16
  36 0004 00AF     		add	r7, sp, #0
  37              	.LCFI2:
  38              		.cfi_def_cfa_register 7
  39 0006 7860     		str	r0, [r7, #4]
  15:C:/data/workspaces/github/de.protos.demos/src/XMC2GoBlinky/etrice.XMC2GoBlinky.demo/src-gen-mt/DaveInterface\PUART001.c **** 	return ((etReplPort*)self)->size;
  40              		.loc 1 15 0
  41 0008 7B68     		ldr	r3, [r7, #4]
  42 000a 1B88     		ldrh	r3, [r3]
  43 000c 1BB2     		sxth	r3, r3
  16:C:/data/workspaces/github/de.protos.demos/src/XMC2GoBlinky/etrice.XMC2GoBlinky.demo/src-gen-mt/DaveInterface\PUART001.c **** }
  44              		.loc 1 16 0
  45 000e 181C     		mov	r0, r3
  46 0010 BD46     		mov	sp, r7
  47 0012 02B0     		add	sp, sp, #8
  48              		@ sp needed for prologue
  49 0014 80BD     		pop	{r7, pc}
  50              		.cfi_endproc
  51              	.LFE33:
  53 0016 C046     		.section	.text.PUART001ConjPort_dummy,"ax",%progbits
  54              		.align	2
  55              		.global	PUART001ConjPort_dummy
  56              		.code	16
  57              		.thumb_func
  59              	PUART001ConjPort_dummy:
  60              	.LFB34:
  17:C:/data/workspaces/github/de.protos.demos/src/XMC2GoBlinky/etrice.XMC2GoBlinky.demo/src-gen-mt/DaveInterface\PUART001.c **** 
  18:C:/data/workspaces/github/de.protos.demos/src/XMC2GoBlinky/etrice.XMC2GoBlinky.demo/src-gen-mt/DaveInterface\PUART001.c **** 
  19:C:/data/workspaces/github/de.protos.demos/src/XMC2GoBlinky/etrice.XMC2GoBlinky.demo/src-gen-mt/DaveInterface\PUART001.c **** 
  20:C:/data/workspaces/github/de.protos.demos/src/XMC2GoBlinky/etrice.XMC2GoBlinky.demo/src-gen-mt/DaveInterface\PUART001.c **** void PUART001ConjPort_dummy(const PUART001ConjPort* self) {
  61              		.loc 1 20 0
  62              		.cfi_startproc
  63 0000 80B5     		push	{r7, lr}
  64              	.LCFI3:
  65              		.cfi_def_cfa_offset 8
  66              		.cfi_offset 7, -8
  67              		.cfi_offset 14, -4
  68 0002 82B0     		sub	sp, sp, #8
  69              	.LCFI4:
  70              		.cfi_def_cfa_offset 16
  71 0004 00AF     		add	r7, sp, #0
  72              	.LCFI5:
  73              		.cfi_def_cfa_register 7
  74 0006 7860     		str	r0, [r7, #4]
  21:C:/data/workspaces/github/de.protos.demos/src/XMC2GoBlinky/etrice.XMC2GoBlinky.demo/src-gen-mt/DaveInterface\PUART001.c **** 	ET_MSC_LOGGER_SYNC_ENTRY("PUART001ConjPort", "dummy")
  22:C:/data/workspaces/github/de.protos.demos/src/XMC2GoBlinky/etrice.XMC2GoBlinky.demo/src-gen-mt/DaveInterface\PUART001.c **** 		etPort_sendMessage(self, PUART001_IN_dummy, 0, NULL);
  75              		.loc 1 22 0
  76 0008 7B68     		ldr	r3, [r7, #4]
  77 000a 181C     		mov	r0, r3
  78 000c 0121     		mov	r1, #1
  79 000e 0022     		mov	r2, #0
  80 0010 0023     		mov	r3, #0
  81 0012 FFF7FEFF 		bl	etPort_sendMessage
  23:C:/data/workspaces/github/de.protos.demos/src/XMC2GoBlinky/etrice.XMC2GoBlinky.demo/src-gen-mt/DaveInterface\PUART001.c **** 	ET_MSC_LOGGER_SYNC_EXIT
  24:C:/data/workspaces/github/de.protos.demos/src/XMC2GoBlinky/etrice.XMC2GoBlinky.demo/src-gen-mt/DaveInterface\PUART001.c **** }
  82              		.loc 1 24 0
  83 0016 BD46     		mov	sp, r7
  84 0018 02B0     		add	sp, sp, #8
  85              		@ sp needed for prologue
  86 001a 80BD     		pop	{r7, pc}
  87              		.cfi_endproc
  88              	.LFE34:
  90              		.section	.text.PUART001ConjReplPort_dummy_broadcast,"ax",%progbits
  91              		.align	2
  92              		.global	PUART001ConjReplPort_dummy_broadcast
  93              		.code	16
  94              		.thumb_func
  96              	PUART001ConjReplPort_dummy_broadcast:
  97              	.LFB35:
  25:C:/data/workspaces/github/de.protos.demos/src/XMC2GoBlinky/etrice.XMC2GoBlinky.demo/src-gen-mt/DaveInterface\PUART001.c **** 
  26:C:/data/workspaces/github/de.protos.demos/src/XMC2GoBlinky/etrice.XMC2GoBlinky.demo/src-gen-mt/DaveInterface\PUART001.c **** void PUART001ConjReplPort_dummy_broadcast(const PUART001ConjReplPort* self) {
  98              		.loc 1 26 0
  99              		.cfi_startproc
 100 0000 80B5     		push	{r7, lr}
 101              	.LCFI6:
 102              		.cfi_def_cfa_offset 8
 103              		.cfi_offset 7, -8
 104              		.cfi_offset 14, -4
 105 0002 84B0     		sub	sp, sp, #16
 106              	.LCFI7:
 107              		.cfi_def_cfa_offset 24
 108 0004 00AF     		add	r7, sp, #0
 109              	.LCFI8:
 110              		.cfi_def_cfa_register 7
 111 0006 7860     		str	r0, [r7, #4]
  27:C:/data/workspaces/github/de.protos.demos/src/XMC2GoBlinky/etrice.XMC2GoBlinky.demo/src-gen-mt/DaveInterface\PUART001.c **** 	int i;
  28:C:/data/workspaces/github/de.protos.demos/src/XMC2GoBlinky/etrice.XMC2GoBlinky.demo/src-gen-mt/DaveInterface\PUART001.c **** 	ET_MSC_LOGGER_SYNC_ENTRY("PUART001ConjReplPort", "dummy")
  29:C:/data/workspaces/github/de.protos.demos/src/XMC2GoBlinky/etrice.XMC2GoBlinky.demo/src-gen-mt/DaveInterface\PUART001.c **** 	for (i=0; i<((etReplPort*)self)->size; ++i) {
 112              		.loc 1 29 0
 113 0008 0023     		mov	r3, #0
 114 000a FB60     		str	r3, [r7, #12]
 115 000c 0DE0     		b	.L5
 116              	.L6:
  30:C:/data/workspaces/github/de.protos.demos/src/XMC2GoBlinky/etrice.XMC2GoBlinky.demo/src-gen-mt/DaveInterface\PUART001.c **** 		etPort_sendMessage((&((etReplPort*)self)->ports[i].port), PUART001_IN_dummy, 0, NULL);
 117              		.loc 1 30 0 discriminator 2
 118 000e 7B68     		ldr	r3, [r7, #4]
 119 0010 5A68     		ldr	r2, [r3, #4]
 120 0012 FB68     		ldr	r3, [r7, #12]
 121 0014 1B01     		lsl	r3, r3, #4
 122 0016 D318     		add	r3, r2, r3
 123 0018 181C     		mov	r0, r3
 124 001a 0121     		mov	r1, #1
 125 001c 0022     		mov	r2, #0
 126 001e 0023     		mov	r3, #0
 127 0020 FFF7FEFF 		bl	etPort_sendMessage
  29:C:/data/workspaces/github/de.protos.demos/src/XMC2GoBlinky/etrice.XMC2GoBlinky.demo/src-gen-mt/DaveInterface\PUART001.c **** 	for (i=0; i<((etReplPort*)self)->size; ++i) {
 128              		.loc 1 29 0 discriminator 2
 129 0024 FB68     		ldr	r3, [r7, #12]
 130 0026 0133     		add	r3, r3, #1
 131 0028 FB60     		str	r3, [r7, #12]
 132              	.L5:
  29:C:/data/workspaces/github/de.protos.demos/src/XMC2GoBlinky/etrice.XMC2GoBlinky.demo/src-gen-mt/DaveInterface\PUART001.c **** 	for (i=0; i<((etReplPort*)self)->size; ++i) {
 133              		.loc 1 29 0 is_stmt 0 discriminator 1
 134 002a 7B68     		ldr	r3, [r7, #4]
 135 002c 1B88     		ldrh	r3, [r3]
 136 002e 1AB2     		sxth	r2, r3
 137 0030 FB68     		ldr	r3, [r7, #12]
 138 0032 9A42     		cmp	r2, r3
 139 0034 EBDC     		bgt	.L6
  31:C:/data/workspaces/github/de.protos.demos/src/XMC2GoBlinky/etrice.XMC2GoBlinky.demo/src-gen-mt/DaveInterface\PUART001.c **** 	}
  32:C:/data/workspaces/github/de.protos.demos/src/XMC2GoBlinky/etrice.XMC2GoBlinky.demo/src-gen-mt/DaveInterface\PUART001.c **** 	ET_MSC_LOGGER_SYNC_EXIT
  33:C:/data/workspaces/github/de.protos.demos/src/XMC2GoBlinky/etrice.XMC2GoBlinky.demo/src-gen-mt/DaveInterface\PUART001.c **** }
 140              		.loc 1 33 0 is_stmt 1
 141 0036 BD46     		mov	sp, r7
 142 0038 04B0     		add	sp, sp, #16
 143              		@ sp needed for prologue
 144 003a 80BD     		pop	{r7, pc}
 145              		.cfi_endproc
 146              	.LFE35:
 148              		.section	.text.PUART001ConjReplPort_dummy,"ax",%progbits
 149              		.align	2
 150              		.global	PUART001ConjReplPort_dummy
 151              		.code	16
 152              		.thumb_func
 154              	PUART001ConjReplPort_dummy:
 155              	.LFB36:
  34:C:/data/workspaces/github/de.protos.demos/src/XMC2GoBlinky/etrice.XMC2GoBlinky.demo/src-gen-mt/DaveInterface\PUART001.c **** 
  35:C:/data/workspaces/github/de.protos.demos/src/XMC2GoBlinky/etrice.XMC2GoBlinky.demo/src-gen-mt/DaveInterface\PUART001.c **** void PUART001ConjReplPort_dummy(const PUART001ConjReplPort* self, int idx__et) {
 156              		.loc 1 35 0
 157              		.cfi_startproc
 158 0000 80B5     		push	{r7, lr}
 159              	.LCFI9:
 160              		.cfi_def_cfa_offset 8
 161              		.cfi_offset 7, -8
 162              		.cfi_offset 14, -4
 163 0002 82B0     		sub	sp, sp, #8
 164              	.LCFI10:
 165              		.cfi_def_cfa_offset 16
 166 0004 00AF     		add	r7, sp, #0
 167              	.LCFI11:
 168              		.cfi_def_cfa_register 7
 169 0006 7860     		str	r0, [r7, #4]
 170 0008 3960     		str	r1, [r7]
  36:C:/data/workspaces/github/de.protos.demos/src/XMC2GoBlinky/etrice.XMC2GoBlinky.demo/src-gen-mt/DaveInterface\PUART001.c **** 	ET_MSC_LOGGER_SYNC_ENTRY("PUART001ConjReplPort", "dummy")
  37:C:/data/workspaces/github/de.protos.demos/src/XMC2GoBlinky/etrice.XMC2GoBlinky.demo/src-gen-mt/DaveInterface\PUART001.c **** 	if (0<=idx__et && idx__et<((etReplPort*)self)->size) {
 171              		.loc 1 37 0
 172 000a 3B68     		ldr	r3, [r7]
 173 000c 002B     		cmp	r3, #0
 174 000e 10DB     		blt	.L7
 175              		.loc 1 37 0 is_stmt 0 discriminator 1
 176 0010 7B68     		ldr	r3, [r7, #4]
 177 0012 1B88     		ldrh	r3, [r3]
 178 0014 1AB2     		sxth	r2, r3
 179 0016 3B68     		ldr	r3, [r7]
 180 0018 9A42     		cmp	r2, r3
 181 001a 0ADD     		ble	.L7
  38:C:/data/workspaces/github/de.protos.demos/src/XMC2GoBlinky/etrice.XMC2GoBlinky.demo/src-gen-mt/DaveInterface\PUART001.c **** 		etPort_sendMessage((&((etReplPort*)self)->ports[idx__et].port), PUART001_IN_dummy, 0, NULL);
 182              		.loc 1 38 0 is_stmt 1
 183 001c 7B68     		ldr	r3, [r7, #4]
 184 001e 5A68     		ldr	r2, [r3, #4]
 185 0020 3B68     		ldr	r3, [r7]
 186 0022 1B01     		lsl	r3, r3, #4
 187 0024 D318     		add	r3, r2, r3
 188 0026 181C     		mov	r0, r3
 189 0028 0121     		mov	r1, #1
 190 002a 0022     		mov	r2, #0
 191 002c 0023     		mov	r3, #0
 192 002e FFF7FEFF 		bl	etPort_sendMessage
 193              	.L7:
  39:C:/data/workspaces/github/de.protos.demos/src/XMC2GoBlinky/etrice.XMC2GoBlinky.demo/src-gen-mt/DaveInterface\PUART001.c **** 	}
  40:C:/data/workspaces/github/de.protos.demos/src/XMC2GoBlinky/etrice.XMC2GoBlinky.demo/src-gen-mt/DaveInterface\PUART001.c **** 	ET_MSC_LOGGER_SYNC_EXIT
  41:C:/data/workspaces/github/de.protos.demos/src/XMC2GoBlinky/etrice.XMC2GoBlinky.demo/src-gen-mt/DaveInterface\PUART001.c **** }
 194              		.loc 1 41 0
 195 0032 BD46     		mov	sp, r7
 196 0034 02B0     		add	sp, sp, #8
 197              		@ sp needed for prologue
 198 0036 80BD     		pop	{r7, pc}
 199              		.cfi_endproc
 200              	.LFE36:
 202              		.section	.text.PUART001ConjPort_setInstance,"ax",%progbits
 203              		.align	2
 204              		.global	PUART001ConjPort_setInstance
 205              		.code	16
 206              		.thumb_func
 208              	PUART001ConjPort_setInstance:
 209              	.LFB37:
  42:C:/data/workspaces/github/de.protos.demos/src/XMC2GoBlinky/etrice.XMC2GoBlinky.demo/src-gen-mt/DaveInterface\PUART001.c **** 
  43:C:/data/workspaces/github/de.protos.demos/src/XMC2GoBlinky/etrice.XMC2GoBlinky.demo/src-gen-mt/DaveInterface\PUART001.c **** /* begin PUART001ConjPort specific */
  44:C:/data/workspaces/github/de.protos.demos/src/XMC2GoBlinky/etrice.XMC2GoBlinky.demo/src-gen-mt/DaveInterface\PUART001.c **** 
  45:C:/data/workspaces/github/de.protos.demos/src/XMC2GoBlinky/etrice.XMC2GoBlinky.demo/src-gen-mt/DaveInterface\PUART001.c **** /*--------------------- operations ---------------------*/
  46:C:/data/workspaces/github/de.protos.demos/src/XMC2GoBlinky/etrice.XMC2GoBlinky.demo/src-gen-mt/DaveInterface\PUART001.c **** void PUART001ConjPort_setInstance(PUART001ConjPort* self, uint32 data) {
 210              		.loc 1 46 0
 211              		.cfi_startproc
 212 0000 80B5     		push	{r7, lr}
 213              	.LCFI12:
 214              		.cfi_def_cfa_offset 8
 215              		.cfi_offset 7, -8
 216              		.cfi_offset 14, -4
 217 0002 82B0     		sub	sp, sp, #8
 218              	.LCFI13:
 219              		.cfi_def_cfa_offset 16
 220 0004 00AF     		add	r7, sp, #0
 221              	.LCFI14:
 222              		.cfi_def_cfa_register 7
 223 0006 7860     		str	r0, [r7, #4]
 224 0008 3960     		str	r1, [r7]
  47:C:/data/workspaces/github/de.protos.demos/src/XMC2GoBlinky/etrice.XMC2GoBlinky.demo/src-gen-mt/DaveInterface\PUART001.c **** 	Handle=UART001_HandleArray[data];
 225              		.loc 1 47 0
 226 000a 7B68     		ldr	r3, [r7, #4]
 227 000c 1B68     		ldr	r3, [r3]
 228 000e 044A     		ldr	r2, .L10
 229 0010 3968     		ldr	r1, [r7]
 230 0012 8900     		lsl	r1, r1, #2
 231 0014 8A58     		ldr	r2, [r1, r2]
 232 0016 1A60     		str	r2, [r3]
  48:C:/data/workspaces/github/de.protos.demos/src/XMC2GoBlinky/etrice.XMC2GoBlinky.demo/src-gen-mt/DaveInterface\PUART001.c **** }
 233              		.loc 1 48 0
 234 0018 BD46     		mov	sp, r7
 235 001a 02B0     		add	sp, sp, #8
 236              		@ sp needed for prologue
 237 001c 80BD     		pop	{r7, pc}
 238              	.L11:
 239 001e C046     		.align	2
 240              	.L10:
 241 0020 00000000 		.word	UART001_HandleArray
 242              		.cfi_endproc
 243              	.LFE37:
 245              		.section	.text.PUART001ConjPort_readDataBytes,"ax",%progbits
 246              		.align	2
 247              		.global	PUART001ConjPort_readDataBytes
 248              		.code	16
 249              		.thumb_func
 251              	PUART001ConjPort_readDataBytes:
 252              	.LFB38:
  49:C:/data/workspaces/github/de.protos.demos/src/XMC2GoBlinky/etrice.XMC2GoBlinky.demo/src-gen-mt/DaveInterface\PUART001.c **** uint32 PUART001ConjPort_readDataBytes(PUART001ConjPort* self, uint8* buffer, uint32 count) {
 253              		.loc 1 49 0
 254              		.cfi_startproc
 255 0000 80B5     		push	{r7, lr}
 256              	.LCFI15:
 257              		.cfi_def_cfa_offset 8
 258              		.cfi_offset 7, -8
 259              		.cfi_offset 14, -4
 260 0002 84B0     		sub	sp, sp, #16
 261              	.LCFI16:
 262              		.cfi_def_cfa_offset 24
 263 0004 00AF     		add	r7, sp, #0
 264              	.LCFI17:
 265              		.cfi_def_cfa_register 7
 266 0006 F860     		str	r0, [r7, #12]
 267 0008 B960     		str	r1, [r7, #8]
 268 000a 7A60     		str	r2, [r7, #4]
  50:C:/data/workspaces/github/de.protos.demos/src/XMC2GoBlinky/etrice.XMC2GoBlinky.demo/src-gen-mt/DaveInterface\PUART001.c **** 	if (Handle != 0){
 269              		.loc 1 50 0
 270 000c FB68     		ldr	r3, [r7, #12]
 271 000e 1B68     		ldr	r3, [r3]
 272 0010 1B68     		ldr	r3, [r3]
 273 0012 002B     		cmp	r3, #0
 274 0014 0BD0     		beq	.L13
  51:C:/data/workspaces/github/de.protos.demos/src/XMC2GoBlinky/etrice.XMC2GoBlinky.demo/src-gen-mt/DaveInterface\PUART001.c **** 		return UART001_ReadDataBytes(Handle,buffer,count);}
 275              		.loc 1 51 0
 276 0016 FB68     		ldr	r3, [r7, #12]
 277 0018 1B68     		ldr	r3, [r3]
 278 001a 1968     		ldr	r1, [r3]
 279 001c BA68     		ldr	r2, [r7, #8]
 280 001e 7B68     		ldr	r3, [r7, #4]
 281 0020 081C     		mov	r0, r1
 282 0022 111C     		mov	r1, r2
 283 0024 1A1C     		mov	r2, r3
 284 0026 FFF7FEFF 		bl	UART001_ReadDataBytes
 285 002a 031C     		mov	r3, r0
 286 002c 00E0     		b	.L14
 287              	.L13:
  52:C:/data/workspaces/github/de.protos.demos/src/XMC2GoBlinky/etrice.XMC2GoBlinky.demo/src-gen-mt/DaveInterface\PUART001.c **** 	return 0;
 288              		.loc 1 52 0
 289 002e 0023     		mov	r3, #0
 290              	.L14:
  53:C:/data/workspaces/github/de.protos.demos/src/XMC2GoBlinky/etrice.XMC2GoBlinky.demo/src-gen-mt/DaveInterface\PUART001.c **** }
 291              		.loc 1 53 0
 292 0030 181C     		mov	r0, r3
 293 0032 BD46     		mov	sp, r7
 294 0034 04B0     		add	sp, sp, #16
 295              		@ sp needed for prologue
 296 0036 80BD     		pop	{r7, pc}
 297              		.cfi_endproc
 298              	.LFE38:
 300              		.section	.text.PUART001ConjPort_writeDataBytes,"ax",%progbits
 301              		.align	2
 302              		.global	PUART001ConjPort_writeDataBytes
 303              		.code	16
 304              		.thumb_func
 306              	PUART001ConjPort_writeDataBytes:
 307              	.LFB39:
  54:C:/data/workspaces/github/de.protos.demos/src/XMC2GoBlinky/etrice.XMC2GoBlinky.demo/src-gen-mt/DaveInterface\PUART001.c **** uint32 PUART001ConjPort_writeDataBytes(PUART001ConjPort* self, uint8* buffer, uint32 count) {
 308              		.loc 1 54 0
 309              		.cfi_startproc
 310 0000 80B5     		push	{r7, lr}
 311              	.LCFI18:
 312              		.cfi_def_cfa_offset 8
 313              		.cfi_offset 7, -8
 314              		.cfi_offset 14, -4
 315 0002 84B0     		sub	sp, sp, #16
 316              	.LCFI19:
 317              		.cfi_def_cfa_offset 24
 318 0004 00AF     		add	r7, sp, #0
 319              	.LCFI20:
 320              		.cfi_def_cfa_register 7
 321 0006 F860     		str	r0, [r7, #12]
 322 0008 B960     		str	r1, [r7, #8]
 323 000a 7A60     		str	r2, [r7, #4]
  55:C:/data/workspaces/github/de.protos.demos/src/XMC2GoBlinky/etrice.XMC2GoBlinky.demo/src-gen-mt/DaveInterface\PUART001.c **** 	if (Handle != 0){
 324              		.loc 1 55 0
 325 000c FB68     		ldr	r3, [r7, #12]
 326 000e 1B68     		ldr	r3, [r3]
 327 0010 1B68     		ldr	r3, [r3]
 328 0012 002B     		cmp	r3, #0
 329 0014 0BD0     		beq	.L16
  56:C:/data/workspaces/github/de.protos.demos/src/XMC2GoBlinky/etrice.XMC2GoBlinky.demo/src-gen-mt/DaveInterface\PUART001.c **** 	   return UART001_WriteDataBytes(Handle,buffer,count);}
 330              		.loc 1 56 0
 331 0016 FB68     		ldr	r3, [r7, #12]
 332 0018 1B68     		ldr	r3, [r3]
 333 001a 1968     		ldr	r1, [r3]
 334 001c BA68     		ldr	r2, [r7, #8]
 335 001e 7B68     		ldr	r3, [r7, #4]
 336 0020 081C     		mov	r0, r1
 337 0022 111C     		mov	r1, r2
 338 0024 1A1C     		mov	r2, r3
 339 0026 FFF7FEFF 		bl	UART001_WriteDataBytes
 340 002a 031C     		mov	r3, r0
 341 002c 00E0     		b	.L17
 342              	.L16:
  57:C:/data/workspaces/github/de.protos.demos/src/XMC2GoBlinky/etrice.XMC2GoBlinky.demo/src-gen-mt/DaveInterface\PUART001.c **** 	return 0;
 343              		.loc 1 57 0
 344 002e 0023     		mov	r3, #0
 345              	.L17:
  58:C:/data/workspaces/github/de.protos.demos/src/XMC2GoBlinky/etrice.XMC2GoBlinky.demo/src-gen-mt/DaveInterface\PUART001.c **** }
 346              		.loc 1 58 0
 347 0030 181C     		mov	r0, r3
 348 0032 BD46     		mov	sp, r7
 349 0034 04B0     		add	sp, sp, #16
 350              		@ sp needed for prologue
 351 0036 80BD     		pop	{r7, pc}
 352              		.cfi_endproc
 353              	.LFE39:
 355              		.section	.text.PUART001ConjReplPort_getReplication,"ax",%progbits
 356              		.align	2
 357              		.global	PUART001ConjReplPort_getReplication
 358              		.code	16
 359              		.thumb_func
 361              	PUART001ConjReplPort_getReplication:
 362              	.LFB40:
  59:C:/data/workspaces/github/de.protos.demos/src/XMC2GoBlinky/etrice.XMC2GoBlinky.demo/src-gen-mt/DaveInterface\PUART001.c **** /* end PUART001ConjPort specific */
  60:C:/data/workspaces/github/de.protos.demos/src/XMC2GoBlinky/etrice.XMC2GoBlinky.demo/src-gen-mt/DaveInterface\PUART001.c **** 
  61:C:/data/workspaces/github/de.protos.demos/src/XMC2GoBlinky/etrice.XMC2GoBlinky.demo/src-gen-mt/DaveInterface\PUART001.c **** etInt32 PUART001ConjReplPort_getReplication(const PUART001ConjReplPort* self) {
 363              		.loc 1 61 0
 364              		.cfi_startproc
 365 0000 80B5     		push	{r7, lr}
 366              	.LCFI21:
 367              		.cfi_def_cfa_offset 8
 368              		.cfi_offset 7, -8
 369              		.cfi_offset 14, -4
 370 0002 82B0     		sub	sp, sp, #8
 371              	.LCFI22:
 372              		.cfi_def_cfa_offset 16
 373 0004 00AF     		add	r7, sp, #0
 374              	.LCFI23:
 375              		.cfi_def_cfa_register 7
 376 0006 7860     		str	r0, [r7, #4]
  62:C:/data/workspaces/github/de.protos.demos/src/XMC2GoBlinky/etrice.XMC2GoBlinky.demo/src-gen-mt/DaveInterface\PUART001.c **** 	return ((etReplPort*)self)->size;
 377              		.loc 1 62 0
 378 0008 7B68     		ldr	r3, [r7, #4]
 379 000a 1B88     		ldrh	r3, [r3]
 380 000c 1BB2     		sxth	r3, r3
  63:C:/data/workspaces/github/de.protos.demos/src/XMC2GoBlinky/etrice.XMC2GoBlinky.demo/src-gen-mt/DaveInterface\PUART001.c **** }
 381              		.loc 1 63 0
 382 000e 181C     		mov	r0, r3
 383 0010 BD46     		mov	sp, r7
 384 0012 02B0     		add	sp, sp, #8
 385              		@ sp needed for prologue
 386 0014 80BD     		pop	{r7, pc}
 387              		.cfi_endproc
 388              	.LFE40:
 390 0016 C046     		.text
 391              	.Letext0:
 392              		.file 2 "c:\\dave-3.1.10\\arm-gcc\\bin\\../lib/gcc/arm-none-eabi/4.7.4/../../../../arm-none-eabi/i
 393              		.file 3 "C:\\data\\workspaces\\github\\de.protos.demos\\src\\XMC2GoBlinky\\etrice.runtime.c.FreeRT
 394              		.file 4 "C:\\data\\workspaces\\github\\de.protos.demos\\src\\XMC2GoBlinky\\etrice.runtime.c.FreeRT
 395              		.file 5 "C:\\data\\workspaces\\github\\de.protos.demos\\src\\XMC2GoBlinky\\etrice.runtime.c.FreeRT
 396              		.file 6 "C:\\data\\workspaces\\github\\de.protos.demos\\src\\XMC2GoBlinky\\etrice.runtime.c.FreeRT
 397              		.file 7 "C:\\data\\workspaces\\github\\de.protos.demos\\src\\XMC2GoBlinky\\etrice.runtime.c.FreeRT
 398              		.file 8 "C:\\data\\workspaces\\github\\de.protos.demos\\src\\XMC2GoBlinky\\etrice.runtime.c.FreeRT
 399              		.file 9 "C:\\data\\workspaces\\github\\de.protos.demos\\src\\XMC2GoBlinky\\etrice.runtime.c.FreeRT
 400              		.file 10 "C:\\data\\workspaces\\github\\de.protos.demos\\src\\XMC2GoBlinky\\etrice.runtime.c.FreeR
 401              		.file 11 "C:\\data\\workspaces\\github\\de.protos.demos\\src\\XMC2GoBlinky\\etrice.runtime.c.FreeR
 402              		.file 12 "C:\\data\\workspaces\\github\\de.protos.demos\\src\\XMC2GoBlinky\\etrice.runtime.c.FreeR
 403              		.file 13 "C:\\data\\workspaces\\github\\de.protos.demos\\src\\XMC2GoBlinky\\etrice.runtime.c.FreeR
 404              		.file 14 "C:\\data\\workspaces\\github\\de.protos.demos\\src\\XMC2GoBlinky\\etrice.runtime.c.FreeR
 405              		.file 15 "C:\\data\\workspaces\\github\\de.protos.demos\\src\\XMC2GoBlinky\\etrice.runtime.c.FreeR
 406              		.file 16 "C:\\data\\workspaces\\github\\de.protos.demos\\src\\XMC2GoBlinky\\etrice.runtime.c.FreeR
 407              		.file 17 "C:\\data\\workspaces\\github\\de.protos.demos\\src\\XMC2GoBlinky\\etrice.runtime.c.FreeR
 408              		.file 18 "C:\\DAVE-3.1.10\\eclipse\\/../CMSIS/Infineon/XMC1100_series/Include/XMC1100.h"
 409              		.file 19 "C:\\data\\workspaces\\github\\de.protos.demos\\src\\XMC2GoBlinky\\XMC2GoBlinkyMT\\Dave\\
 410              		.file 20 "C:\\data\\workspaces\\github\\de.protos.demos\\src\\XMC2GoBlinky\\XMC2GoBlinkyMT\\Dave\\
 411              		.file 21 "C:\\data\\workspaces\\github\\de.protos.demos\\src\\XMC2GoBlinky\\XMC2GoBlinkyMT\\Dave\\
 412              		.file 22 "C:/data/workspaces/github/de.protos.demos/src/XMC2GoBlinky/etrice.XMC2GoBlinky.demo/src-
 413              		.file 23 "C:\\data\\workspaces\\github\\de.protos.demos\\src\\XMC2GoBlinky\\XMC2GoBlinkyMT\\Dave\\