   1              		.cpu cortex-m0
   2              		.fpu softvfp
   3              		.eabi_attribute 20, 1
   4              		.eabi_attribute 21, 1
   5              		.eabi_attribute 23, 3
   6              		.eabi_attribute 24, 1
   7              		.eabi_attribute 25, 1
   8              		.eabi_attribute 26, 1
   9              		.eabi_attribute 30, 6
  10              		.eabi_attribute 34, 0
  11              		.eabi_attribute 18, 4
  12              		.code	16
  13              		.file	"PWMSP001.c"
  14              		.text
  15              	.Ltext0:
  16              		.cfi_sections	.debug_frame
  17              		.section	.text.PWMSP001ReplPort_getReplication,"ax",%progbits
  18              		.align	2
  19              		.global	PWMSP001ReplPort_getReplication
  20              		.code	16
  21              		.thumb_func
  23              	PWMSP001ReplPort_getReplication:
  24              	.LFB33:
  25              		.file 1 "C:/data/workspaces/github/de.protos.demos/src/XMC2GoBlinky/etrice.XMC2GoBlinky.demo/src-g
   1:C:/data/workspaces/github/de.protos.demos/src/XMC2GoBlinky/etrice.XMC2GoBlinky.demo/src-gen-mt/DaveInterface\PWMSP001.c **** /**
   2:C:/data/workspaces/github/de.protos.demos/src/XMC2GoBlinky/etrice.XMC2GoBlinky.demo/src-gen-mt/DaveInterface\PWMSP001.c ****  * @author generated by eTrice
   3:C:/data/workspaces/github/de.protos.demos/src/XMC2GoBlinky/etrice.XMC2GoBlinky.demo/src-gen-mt/DaveInterface\PWMSP001.c ****  *
   4:C:/data/workspaces/github/de.protos.demos/src/XMC2GoBlinky/etrice.XMC2GoBlinky.demo/src-gen-mt/DaveInterface\PWMSP001.c ****  * Source File of ProtocolClass PWMSP001
   5:C:/data/workspaces/github/de.protos.demos/src/XMC2GoBlinky/etrice.XMC2GoBlinky.demo/src-gen-mt/DaveInterface\PWMSP001.c ****  * 
   6:C:/data/workspaces/github/de.protos.demos/src/XMC2GoBlinky/etrice.XMC2GoBlinky.demo/src-gen-mt/DaveInterface\PWMSP001.c ****  */
   7:C:/data/workspaces/github/de.protos.demos/src/XMC2GoBlinky/etrice.XMC2GoBlinky.demo/src-gen-mt/DaveInterface\PWMSP001.c **** 
   8:C:/data/workspaces/github/de.protos.demos/src/XMC2GoBlinky/etrice.XMC2GoBlinky.demo/src-gen-mt/DaveInterface\PWMSP001.c **** #include "PWMSP001.h"
   9:C:/data/workspaces/github/de.protos.demos/src/XMC2GoBlinky/etrice.XMC2GoBlinky.demo/src-gen-mt/DaveInterface\PWMSP001.c **** #include "debugging/etMSCLogger.h"
  10:C:/data/workspaces/github/de.protos.demos/src/XMC2GoBlinky/etrice.XMC2GoBlinky.demo/src-gen-mt/DaveInterface\PWMSP001.c **** #include "PWMSP001_Utils.h"
  11:C:/data/workspaces/github/de.protos.demos/src/XMC2GoBlinky/etrice.XMC2GoBlinky.demo/src-gen-mt/DaveInterface\PWMSP001.c **** 
  12:C:/data/workspaces/github/de.protos.demos/src/XMC2GoBlinky/etrice.XMC2GoBlinky.demo/src-gen-mt/DaveInterface\PWMSP001.c **** 
  13:C:/data/workspaces/github/de.protos.demos/src/XMC2GoBlinky/etrice.XMC2GoBlinky.demo/src-gen-mt/DaveInterface\PWMSP001.c **** /*--------------------- port methods */
  14:C:/data/workspaces/github/de.protos.demos/src/XMC2GoBlinky/etrice.XMC2GoBlinky.demo/src-gen-mt/DaveInterface\PWMSP001.c **** etInt32 PWMSP001ReplPort_getReplication(const PWMSP001ReplPort* self) {
  26              		.loc 1 14 0
  27              		.cfi_startproc
  28 0000 80B5     		push	{r7, lr}
  29              	.LCFI0:
  30              		.cfi_def_cfa_offset 8
  31              		.cfi_offset 7, -8
  32              		.cfi_offset 14, -4
  33 0002 82B0     		sub	sp, sp, #8
  34              	.LCFI1:
  35              		.cfi_def_cfa_offset 16
  36 0004 00AF     		add	r7, sp, #0
  37              	.LCFI2:
  38              		.cfi_def_cfa_register 7
  39 0006 7860     		str	r0, [r7, #4]
  15:C:/data/workspaces/github/de.protos.demos/src/XMC2GoBlinky/etrice.XMC2GoBlinky.demo/src-gen-mt/DaveInterface\PWMSP001.c **** 	return ((etReplPort*)self)->size;
  40              		.loc 1 15 0
  41 0008 7B68     		ldr	r3, [r7, #4]
  42 000a 1B88     		ldrh	r3, [r3]
  43 000c 1BB2     		sxth	r3, r3
  16:C:/data/workspaces/github/de.protos.demos/src/XMC2GoBlinky/etrice.XMC2GoBlinky.demo/src-gen-mt/DaveInterface\PWMSP001.c **** }
  44              		.loc 1 16 0
  45 000e 181C     		mov	r0, r3
  46 0010 BD46     		mov	sp, r7
  47 0012 02B0     		add	sp, sp, #8
  48              		@ sp needed for prologue
  49 0014 80BD     		pop	{r7, pc}
  50              		.cfi_endproc
  51              	.LFE33:
  53 0016 C046     		.section	.text.PWMSP001ConjPort_setInstance,"ax",%progbits
  54              		.align	2
  55              		.global	PWMSP001ConjPort_setInstance
  56              		.code	16
  57              		.thumb_func
  59              	PWMSP001ConjPort_setInstance:
  60              	.LFB34:
  17:C:/data/workspaces/github/de.protos.demos/src/XMC2GoBlinky/etrice.XMC2GoBlinky.demo/src-gen-mt/DaveInterface\PWMSP001.c **** 
  18:C:/data/workspaces/github/de.protos.demos/src/XMC2GoBlinky/etrice.XMC2GoBlinky.demo/src-gen-mt/DaveInterface\PWMSP001.c **** 
  19:C:/data/workspaces/github/de.protos.demos/src/XMC2GoBlinky/etrice.XMC2GoBlinky.demo/src-gen-mt/DaveInterface\PWMSP001.c **** /* begin PWMSP001ConjPort specific */
  20:C:/data/workspaces/github/de.protos.demos/src/XMC2GoBlinky/etrice.XMC2GoBlinky.demo/src-gen-mt/DaveInterface\PWMSP001.c **** 
  21:C:/data/workspaces/github/de.protos.demos/src/XMC2GoBlinky/etrice.XMC2GoBlinky.demo/src-gen-mt/DaveInterface\PWMSP001.c **** /*--------------------- operations ---------------------*/
  22:C:/data/workspaces/github/de.protos.demos/src/XMC2GoBlinky/etrice.XMC2GoBlinky.demo/src-gen-mt/DaveInterface\PWMSP001.c **** void PWMSP001ConjPort_setInstance(PWMSP001ConjPort* self, uint32 data) {
  61              		.loc 1 22 0
  62              		.cfi_startproc
  63 0000 80B5     		push	{r7, lr}
  64              	.LCFI3:
  65              		.cfi_def_cfa_offset 8
  66              		.cfi_offset 7, -8
  67              		.cfi_offset 14, -4
  68 0002 82B0     		sub	sp, sp, #8
  69              	.LCFI4:
  70              		.cfi_def_cfa_offset 16
  71 0004 00AF     		add	r7, sp, #0
  72              	.LCFI5:
  73              		.cfi_def_cfa_register 7
  74 0006 7860     		str	r0, [r7, #4]
  75 0008 3960     		str	r1, [r7]
  23:C:/data/workspaces/github/de.protos.demos/src/XMC2GoBlinky/etrice.XMC2GoBlinky.demo/src-gen-mt/DaveInterface\PWMSP001.c **** 	switch(data){
  76              		.loc 1 23 0
  77 000a 3B68     		ldr	r3, [r7]
  78 000c 002B     		cmp	r3, #0
  79 000e 02D0     		beq	.L5
  80 0010 012B     		cmp	r3, #1
  81 0012 05D0     		beq	.L6
  82 0014 09E0     		b	.L8
  83              	.L5:
  24:C:/data/workspaces/github/de.protos.demos/src/XMC2GoBlinky/etrice.XMC2GoBlinky.demo/src-gen-mt/DaveInterface\PWMSP001.c **** 	    case 0: Handle=&PWMSP001_Handle0;
  84              		.loc 1 24 0
  85 0016 7B68     		ldr	r3, [r7, #4]
  86 0018 1B68     		ldr	r3, [r3]
  87 001a 064A     		ldr	r2, .L9
  88 001c 1A60     		str	r2, [r3]
  25:C:/data/workspaces/github/de.protos.demos/src/XMC2GoBlinky/etrice.XMC2GoBlinky.demo/src-gen-mt/DaveInterface\PWMSP001.c **** 			break;
  89              		.loc 1 25 0
  90 001e 05E0     		b	.L3
  91              	.L6:
  26:C:/data/workspaces/github/de.protos.demos/src/XMC2GoBlinky/etrice.XMC2GoBlinky.demo/src-gen-mt/DaveInterface\PWMSP001.c **** 	    case 1: Handle=&PWMSP001_Handle1;
  92              		.loc 1 26 0
  93 0020 7B68     		ldr	r3, [r7, #4]
  94 0022 1B68     		ldr	r3, [r3]
  95 0024 044A     		ldr	r2, .L9+4
  96 0026 1A60     		str	r2, [r3]
  27:C:/data/workspaces/github/de.protos.demos/src/XMC2GoBlinky/etrice.XMC2GoBlinky.demo/src-gen-mt/DaveInterface\PWMSP001.c **** 			break;
  97              		.loc 1 27 0
  98 0028 00E0     		b	.L3
  99              	.L8:
  28:C:/data/workspaces/github/de.protos.demos/src/XMC2GoBlinky/etrice.XMC2GoBlinky.demo/src-gen-mt/DaveInterface\PWMSP001.c **** 	    default: break;
 100              		.loc 1 28 0
 101 002a C046     		mov	r8, r8
 102              	.L3:
  29:C:/data/workspaces/github/de.protos.demos/src/XMC2GoBlinky/etrice.XMC2GoBlinky.demo/src-gen-mt/DaveInterface\PWMSP001.c **** 	    }
  30:C:/data/workspaces/github/de.protos.demos/src/XMC2GoBlinky/etrice.XMC2GoBlinky.demo/src-gen-mt/DaveInterface\PWMSP001.c **** }
 103              		.loc 1 30 0
 104 002c BD46     		mov	sp, r7
 105 002e 02B0     		add	sp, sp, #8
 106              		@ sp needed for prologue
 107 0030 80BD     		pop	{r7, pc}
 108              	.L10:
 109 0032 C046     		.align	2
 110              	.L9:
 111 0034 00000000 		.word	PWMSP001_Handle0
 112 0038 00000000 		.word	PWMSP001_Handle1
 113              		.cfi_endproc
 114              	.LFE34:
 116              		.global	__aeabi_ui2f
 117              		.section	.text.PWMSP001ConjPort_setDutyCycle,"ax",%progbits
 118              		.align	2
 119              		.global	PWMSP001ConjPort_setDutyCycle
 120              		.code	16
 121              		.thumb_func
 123              	PWMSP001ConjPort_setDutyCycle:
 124              	.LFB35:
  31:C:/data/workspaces/github/de.protos.demos/src/XMC2GoBlinky/etrice.XMC2GoBlinky.demo/src-gen-mt/DaveInterface\PWMSP001.c **** void PWMSP001ConjPort_setDutyCycle(PWMSP001ConjPort* self, uint8 dc) {
 125              		.loc 1 31 0
 126              		.cfi_startproc
 127 0000 90B5     		push	{r4, r7, lr}
 128              	.LCFI6:
 129              		.cfi_def_cfa_offset 12
 130              		.cfi_offset 4, -12
 131              		.cfi_offset 7, -8
 132              		.cfi_offset 14, -4
 133 0002 83B0     		sub	sp, sp, #12
 134              	.LCFI7:
 135              		.cfi_def_cfa_offset 24
 136 0004 00AF     		add	r7, sp, #0
 137              	.LCFI8:
 138              		.cfi_def_cfa_register 7
 139 0006 7860     		str	r0, [r7, #4]
 140 0008 0A1C     		mov	r2, r1
 141 000a FB1C     		add	r3, r7, #3
 142 000c 1A70     		strb	r2, [r3]
  32:C:/data/workspaces/github/de.protos.demos/src/XMC2GoBlinky/etrice.XMC2GoBlinky.demo/src-gen-mt/DaveInterface\PWMSP001.c **** 	PWMSP001_SetDutyCycle(Handle, dc);
 143              		.loc 1 32 0
 144 000e 7B68     		ldr	r3, [r7, #4]
 145 0010 1B68     		ldr	r3, [r3]
 146 0012 1C68     		ldr	r4, [r3]
 147 0014 FB1C     		add	r3, r7, #3
 148 0016 1B78     		ldrb	r3, [r3]
 149 0018 181C     		mov	r0, r3
 150 001a FFF7FEFF 		bl	__aeabi_ui2f
 151 001e 031C     		add	r3, r0, #0
 152 0020 201C     		mov	r0, r4
 153 0022 191C     		add	r1, r3, #0
 154 0024 FFF7FEFF 		bl	PWMSP001_SetDutyCycle
  33:C:/data/workspaces/github/de.protos.demos/src/XMC2GoBlinky/etrice.XMC2GoBlinky.demo/src-gen-mt/DaveInterface\PWMSP001.c **** }
 155              		.loc 1 33 0
 156 0028 BD46     		mov	sp, r7
 157 002a 03B0     		add	sp, sp, #12
 158              		@ sp needed for prologue
 159 002c 90BD     		pop	{r4, r7, pc}
 160              		.cfi_endproc
 161              	.LFE35:
 163 002e C046     		.section	.text.PWMSP001ConjReplPort_getReplication,"ax",%progbits
 164              		.align	2
 165              		.global	PWMSP001ConjReplPort_getReplication
 166              		.code	16
 167              		.thumb_func
 169              	PWMSP001ConjReplPort_getReplication:
 170              	.LFB36:
  34:C:/data/workspaces/github/de.protos.demos/src/XMC2GoBlinky/etrice.XMC2GoBlinky.demo/src-gen-mt/DaveInterface\PWMSP001.c **** /* end PWMSP001ConjPort specific */
  35:C:/data/workspaces/github/de.protos.demos/src/XMC2GoBlinky/etrice.XMC2GoBlinky.demo/src-gen-mt/DaveInterface\PWMSP001.c **** 
  36:C:/data/workspaces/github/de.protos.demos/src/XMC2GoBlinky/etrice.XMC2GoBlinky.demo/src-gen-mt/DaveInterface\PWMSP001.c **** etInt32 PWMSP001ConjReplPort_getReplication(const PWMSP001ConjReplPort* self) {
 171              		.loc 1 36 0
 172              		.cfi_startproc
 173 0000 80B5     		push	{r7, lr}
 174              	.LCFI9:
 175              		.cfi_def_cfa_offset 8
 176              		.cfi_offset 7, -8
 177              		.cfi_offset 14, -4
 178 0002 82B0     		sub	sp, sp, #8
 179              	.LCFI10:
 180              		.cfi_def_cfa_offset 16
 181 0004 00AF     		add	r7, sp, #0
 182              	.LCFI11:
 183              		.cfi_def_cfa_register 7
 184 0006 7860     		str	r0, [r7, #4]
  37:C:/data/workspaces/github/de.protos.demos/src/XMC2GoBlinky/etrice.XMC2GoBlinky.demo/src-gen-mt/DaveInterface\PWMSP001.c **** 	return ((etReplPort*)self)->size;
 185              		.loc 1 37 0
 186 0008 7B68     		ldr	r3, [r7, #4]
 187 000a 1B88     		ldrh	r3, [r3]
 188 000c 1BB2     		sxth	r3, r3
  38:C:/data/workspaces/github/de.protos.demos/src/XMC2GoBlinky/etrice.XMC2GoBlinky.demo/src-gen-mt/DaveInterface\PWMSP001.c **** }
 189              		.loc 1 38 0
 190 000e 181C     		mov	r0, r3
 191 0010 BD46     		mov	sp, r7
 192 0012 02B0     		add	sp, sp, #8
 193              		@ sp needed for prologue
 194 0014 80BD     		pop	{r7, pc}
 195              		.cfi_endproc
 196              	.LFE36:
 198 0016 C046     		.text
 199              	.Letext0:
 200              		.file 2 "c:\\dave-3.1.10\\arm-gcc\\bin\\../lib/gcc/arm-none-eabi/4.7.4/../../../../arm-none-eabi/i
 201              		.file 3 "C:\\data\\workspaces\\github\\de.protos.demos\\src\\XMC2GoBlinky\\etrice.runtime.c.FreeRT
 202              		.file 4 "C:\\data\\workspaces\\github\\de.protos.demos\\src\\XMC2GoBlinky\\etrice.runtime.c.FreeRT
 203              		.file 5 "C:\\data\\workspaces\\github\\de.protos.demos\\src\\XMC2GoBlinky\\etrice.runtime.c.FreeRT
 204              		.file 6 "C:\\data\\workspaces\\github\\de.protos.demos\\src\\XMC2GoBlinky\\etrice.runtime.c.FreeRT
 205              		.file 7 "C:\\data\\workspaces\\github\\de.protos.demos\\src\\XMC2GoBlinky\\etrice.runtime.c.FreeRT
 206              		.file 8 "C:\\data\\workspaces\\github\\de.protos.demos\\src\\XMC2GoBlinky\\etrice.runtime.c.FreeRT
 207              		.file 9 "C:\\data\\workspaces\\github\\de.protos.demos\\src\\XMC2GoBlinky\\etrice.runtime.c.FreeRT
 208              		.file 10 "C:\\data\\workspaces\\github\\de.protos.demos\\src\\XMC2GoBlinky\\etrice.runtime.c.FreeR
 209              		.file 11 "C:\\data\\workspaces\\github\\de.protos.demos\\src\\XMC2GoBlinky\\etrice.runtime.c.FreeR
 210              		.file 12 "C:\\data\\workspaces\\github\\de.protos.demos\\src\\XMC2GoBlinky\\etrice.runtime.c.FreeR
 211              		.file 13 "C:\\data\\workspaces\\github\\de.protos.demos\\src\\XMC2GoBlinky\\etrice.runtime.c.FreeR
 212              		.file 14 "C:\\data\\workspaces\\github\\de.protos.demos\\src\\XMC2GoBlinky\\etrice.runtime.c.FreeR
 213              		.file 15 "C:\\data\\workspaces\\github\\de.protos.demos\\src\\XMC2GoBlinky\\etrice.runtime.c.FreeR
 214              		.file 16 "C:\\data\\workspaces\\github\\de.protos.demos\\src\\XMC2GoBlinky\\etrice.runtime.c.FreeR
 215              		.file 17 "C:\\data\\workspaces\\github\\de.protos.demos\\src\\XMC2GoBlinky\\etrice.runtime.c.FreeR
 216              		.file 18 "C:\\DAVE-3.1.10\\eclipse\\/../CMSIS/Infineon/XMC1100_series/Include/XMC1100.h"
 217              		.file 19 "C:\\data\\workspaces\\github\\de.protos.demos\\src\\XMC2GoBlinky\\XMC2GoBlinkyMT\\Dave\\
 218              		.file 20 "C:/data/workspaces/github/de.protos.demos/src/XMC2GoBlinky/etrice.XMC2GoBlinky.demo/src-
 219              		.file 21 "C:\\data\\workspaces\\github\\de.protos.demos\\src\\XMC2GoBlinky\\XMC2GoBlinkyMT\\Dave\\