   1              		.cpu cortex-m0
   2              		.fpu softvfp
   3              		.eabi_attribute 20, 1
   4              		.eabi_attribute 21, 1
   5              		.eabi_attribute 23, 3
   6              		.eabi_attribute 24, 1
   7              		.eabi_attribute 25, 1
   8              		.eabi_attribute 26, 1
   9              		.eabi_attribute 30, 6
  10              		.eabi_attribute 34, 0
  11              		.eabi_attribute 18, 4
  12              		.code	16
  13              		.file	"ATimingService.c"
  14              		.text
  15              	.Ltext0:
  16              		.cfi_sections	.debug_frame
  17              		.comm	tcbs,480,4
  18              		.comm	usedTcbsRoot,4,4
  19              		.comm	freeTcbsRoot,4,4
  20              		.section	.text.setState,"ax",%progbits
  21              		.align	2
  22              		.code	16
  23              		.thumb_func
  25              	setState:
  26              	.LFB0:
  27              		.file 1 "C:/data/workspaces/github/de.protos.demos/src/XMC2GoBlinky/etrice.XMC2GoBlinky.demo/src-g
   1:C:/data/workspaces/github/de.protos.demos/src/XMC2GoBlinky/etrice.XMC2GoBlinky.demo/src-gen-st/room/basic/service/timing\ATimingService.c **** /**
   2:C:/data/workspaces/github/de.protos.demos/src/XMC2GoBlinky/etrice.XMC2GoBlinky.demo/src-gen-st/room/basic/service/timing\ATimingService.c ****  * @author generated by eTrice
   3:C:/data/workspaces/github/de.protos.demos/src/XMC2GoBlinky/etrice.XMC2GoBlinky.demo/src-gen-st/room/basic/service/timing\ATimingService.c ****  *
   4:C:/data/workspaces/github/de.protos.demos/src/XMC2GoBlinky/etrice.XMC2GoBlinky.demo/src-gen-st/room/basic/service/timing\ATimingService.c ****  * Source File of ActorClass ATimingService
   5:C:/data/workspaces/github/de.protos.demos/src/XMC2GoBlinky/etrice.XMC2GoBlinky.demo/src-gen-st/room/basic/service/timing\ATimingService.c ****  * 
   6:C:/data/workspaces/github/de.protos.demos/src/XMC2GoBlinky/etrice.XMC2GoBlinky.demo/src-gen-st/room/basic/service/timing\ATimingService.c ****  */
   7:C:/data/workspaces/github/de.protos.demos/src/XMC2GoBlinky/etrice.XMC2GoBlinky.demo/src-gen-st/room/basic/service/timing\ATimingService.c **** 
   8:C:/data/workspaces/github/de.protos.demos/src/XMC2GoBlinky/etrice.XMC2GoBlinky.demo/src-gen-st/room/basic/service/timing\ATimingService.c **** #include "ATimingService.h"
   9:C:/data/workspaces/github/de.protos.demos/src/XMC2GoBlinky/etrice.XMC2GoBlinky.demo/src-gen-st/room/basic/service/timing\ATimingService.c **** 
  10:C:/data/workspaces/github/de.protos.demos/src/XMC2GoBlinky/etrice.XMC2GoBlinky.demo/src-gen-st/room/basic/service/timing\ATimingService.c **** #include "modelbase/etActor.h"
  11:C:/data/workspaces/github/de.protos.demos/src/XMC2GoBlinky/etrice.XMC2GoBlinky.demo/src-gen-st/room/basic/service/timing\ATimingService.c **** #include "debugging/etLogger.h"
  12:C:/data/workspaces/github/de.protos.demos/src/XMC2GoBlinky/etrice.XMC2GoBlinky.demo/src-gen-st/room/basic/service/timing\ATimingService.c **** #include "debugging/etMSCLogger.h"
  13:C:/data/workspaces/github/de.protos.demos/src/XMC2GoBlinky/etrice.XMC2GoBlinky.demo/src-gen-st/room/basic/service/timing\ATimingService.c **** #include "etUnit/etUnit.h"
  14:C:/data/workspaces/github/de.protos.demos/src/XMC2GoBlinky/etrice.XMC2GoBlinky.demo/src-gen-st/room/basic/service/timing\ATimingService.c **** #include "base/etMemory.h"
  15:C:/data/workspaces/github/de.protos.demos/src/XMC2GoBlinky/etrice.XMC2GoBlinky.demo/src-gen-st/room/basic/service/timing\ATimingService.c **** 
  16:C:/data/workspaces/github/de.protos.demos/src/XMC2GoBlinky/etrice.XMC2GoBlinky.demo/src-gen-st/room/basic/service/timing\ATimingService.c **** #include "room/basic/service/timing/PTimer.h"
  17:C:/data/workspaces/github/de.protos.demos/src/XMC2GoBlinky/etrice.XMC2GoBlinky.demo/src-gen-st/room/basic/service/timing\ATimingService.c **** 
  18:C:/data/workspaces/github/de.protos.demos/src/XMC2GoBlinky/etrice.XMC2GoBlinky.demo/src-gen-st/room/basic/service/timing\ATimingService.c **** #include "ATimingService_Utils.h"
  19:C:/data/workspaces/github/de.protos.demos/src/XMC2GoBlinky/etrice.XMC2GoBlinky.demo/src-gen-st/room/basic/service/timing\ATimingService.c **** 
  20:C:/data/workspaces/github/de.protos.demos/src/XMC2GoBlinky/etrice.XMC2GoBlinky.demo/src-gen-st/room/basic/service/timing\ATimingService.c **** /*--------------------- begin user code ---------------------*/
  21:C:/data/workspaces/github/de.protos.demos/src/XMC2GoBlinky/etrice.XMC2GoBlinky.demo/src-gen-st/room/basic/service/timing\ATimingService.c **** etTimerControlBlock tcbs[ET_NB_OF_TCBS];
  22:C:/data/workspaces/github/de.protos.demos/src/XMC2GoBlinky/etrice.XMC2GoBlinky.demo/src-gen-st/room/basic/service/timing\ATimingService.c **** etTimerControlBlock* usedTcbsRoot; 
  23:C:/data/workspaces/github/de.protos.demos/src/XMC2GoBlinky/etrice.XMC2GoBlinky.demo/src-gen-st/room/basic/service/timing\ATimingService.c **** etTimerControlBlock* freeTcbsRoot;
  24:C:/data/workspaces/github/de.protos.demos/src/XMC2GoBlinky/etrice.XMC2GoBlinky.demo/src-gen-st/room/basic/service/timing\ATimingService.c **** /*--------------------- end user code ---------------------*/
  25:C:/data/workspaces/github/de.protos.demos/src/XMC2GoBlinky/etrice.XMC2GoBlinky.demo/src-gen-st/room/basic/service/timing\ATimingService.c **** 
  26:C:/data/workspaces/github/de.protos.demos/src/XMC2GoBlinky/etrice.XMC2GoBlinky.demo/src-gen-st/room/basic/service/timing\ATimingService.c **** /* interface item IDs */
  27:C:/data/workspaces/github/de.protos.demos/src/XMC2GoBlinky/etrice.XMC2GoBlinky.demo/src-gen-st/room/basic/service/timing\ATimingService.c **** enum interface_items {
  28:C:/data/workspaces/github/de.protos.demos/src/XMC2GoBlinky/etrice.XMC2GoBlinky.demo/src-gen-st/room/basic/service/timing\ATimingService.c **** 	IFITEM_timer = 1
  29:C:/data/workspaces/github/de.protos.demos/src/XMC2GoBlinky/etrice.XMC2GoBlinky.demo/src-gen-st/room/basic/service/timing\ATimingService.c **** };
  30:C:/data/workspaces/github/de.protos.demos/src/XMC2GoBlinky/etrice.XMC2GoBlinky.demo/src-gen-st/room/basic/service/timing\ATimingService.c **** 
  31:C:/data/workspaces/github/de.protos.demos/src/XMC2GoBlinky/etrice.XMC2GoBlinky.demo/src-gen-st/room/basic/service/timing\ATimingService.c **** /* state IDs */
  32:C:/data/workspaces/github/de.protos.demos/src/XMC2GoBlinky/etrice.XMC2GoBlinky.demo/src-gen-st/room/basic/service/timing\ATimingService.c **** enum state_ids {
  33:C:/data/workspaces/github/de.protos.demos/src/XMC2GoBlinky/etrice.XMC2GoBlinky.demo/src-gen-st/room/basic/service/timing\ATimingService.c **** 	NO_STATE = 0,
  34:C:/data/workspaces/github/de.protos.demos/src/XMC2GoBlinky/etrice.XMC2GoBlinky.demo/src-gen-st/room/basic/service/timing\ATimingService.c **** 	STATE_TOP = 1,
  35:C:/data/workspaces/github/de.protos.demos/src/XMC2GoBlinky/etrice.XMC2GoBlinky.demo/src-gen-st/room/basic/service/timing\ATimingService.c **** 	STATE_Operational = 2,
  36:C:/data/workspaces/github/de.protos.demos/src/XMC2GoBlinky/etrice.XMC2GoBlinky.demo/src-gen-st/room/basic/service/timing\ATimingService.c **** 	STATE_MAX = 3
  37:C:/data/workspaces/github/de.protos.demos/src/XMC2GoBlinky/etrice.XMC2GoBlinky.demo/src-gen-st/room/basic/service/timing\ATimingService.c **** };
  38:C:/data/workspaces/github/de.protos.demos/src/XMC2GoBlinky/etrice.XMC2GoBlinky.demo/src-gen-st/room/basic/service/timing\ATimingService.c **** 
  39:C:/data/workspaces/github/de.protos.demos/src/XMC2GoBlinky/etrice.XMC2GoBlinky.demo/src-gen-st/room/basic/service/timing\ATimingService.c **** /* transition chains */
  40:C:/data/workspaces/github/de.protos.demos/src/XMC2GoBlinky/etrice.XMC2GoBlinky.demo/src-gen-st/room/basic/service/timing\ATimingService.c **** enum chain_ids {
  41:C:/data/workspaces/github/de.protos.demos/src/XMC2GoBlinky/etrice.XMC2GoBlinky.demo/src-gen-st/room/basic/service/timing\ATimingService.c **** 	CHAIN_TRANS_INITIAL_TO__Operational = 1,
  42:C:/data/workspaces/github/de.protos.demos/src/XMC2GoBlinky/etrice.XMC2GoBlinky.demo/src-gen-st/room/basic/service/timing\ATimingService.c **** 	CHAIN_TRANS_tr1_FROM_Operational_TO_Operational_BY_startTimeouttimer_tr1 = 2,
  43:C:/data/workspaces/github/de.protos.demos/src/XMC2GoBlinky/etrice.XMC2GoBlinky.demo/src-gen-st/room/basic/service/timing\ATimingService.c **** 	CHAIN_TRANS_tr3_FROM_Operational_TO_Operational_BY_startTimertimer_tr3 = 3,
  44:C:/data/workspaces/github/de.protos.demos/src/XMC2GoBlinky/etrice.XMC2GoBlinky.demo/src-gen-st/room/basic/service/timing\ATimingService.c **** 	CHAIN_TRANS_tr4_FROM_Operational_TO_Operational_BY_killtimer_tr4 = 4
  45:C:/data/workspaces/github/de.protos.demos/src/XMC2GoBlinky/etrice.XMC2GoBlinky.demo/src-gen-st/room/basic/service/timing\ATimingService.c **** };
  46:C:/data/workspaces/github/de.protos.demos/src/XMC2GoBlinky/etrice.XMC2GoBlinky.demo/src-gen-st/room/basic/service/timing\ATimingService.c **** 
  47:C:/data/workspaces/github/de.protos.demos/src/XMC2GoBlinky/etrice.XMC2GoBlinky.demo/src-gen-st/room/basic/service/timing\ATimingService.c **** /* triggers */
  48:C:/data/workspaces/github/de.protos.demos/src/XMC2GoBlinky/etrice.XMC2GoBlinky.demo/src-gen-st/room/basic/service/timing\ATimingService.c **** enum triggers {
  49:C:/data/workspaces/github/de.protos.demos/src/XMC2GoBlinky/etrice.XMC2GoBlinky.demo/src-gen-st/room/basic/service/timing\ATimingService.c **** 	POLLING = 0,
  50:C:/data/workspaces/github/de.protos.demos/src/XMC2GoBlinky/etrice.XMC2GoBlinky.demo/src-gen-st/room/basic/service/timing\ATimingService.c **** 	TRIG_timer__startTimer = IFITEM_timer + EVT_SHIFT*PTimer_IN_startTimer,
  51:C:/data/workspaces/github/de.protos.demos/src/XMC2GoBlinky/etrice.XMC2GoBlinky.demo/src-gen-st/room/basic/service/timing\ATimingService.c **** 	TRIG_timer__startTimeout = IFITEM_timer + EVT_SHIFT*PTimer_IN_startTimeout,
  52:C:/data/workspaces/github/de.protos.demos/src/XMC2GoBlinky/etrice.XMC2GoBlinky.demo/src-gen-st/room/basic/service/timing\ATimingService.c **** 	TRIG_timer__kill = IFITEM_timer + EVT_SHIFT*PTimer_IN_kill
  53:C:/data/workspaces/github/de.protos.demos/src/XMC2GoBlinky/etrice.XMC2GoBlinky.demo/src-gen-st/room/basic/service/timing\ATimingService.c **** };
  54:C:/data/workspaces/github/de.protos.demos/src/XMC2GoBlinky/etrice.XMC2GoBlinky.demo/src-gen-st/room/basic/service/timing\ATimingService.c **** 
  55:C:/data/workspaces/github/de.protos.demos/src/XMC2GoBlinky/etrice.XMC2GoBlinky.demo/src-gen-st/room/basic/service/timing\ATimingService.c **** 
  56:C:/data/workspaces/github/de.protos.demos/src/XMC2GoBlinky/etrice.XMC2GoBlinky.demo/src-gen-st/room/basic/service/timing\ATimingService.c **** static void setState(ATimingService* self, etInt16 new_state) {
  28              		.loc 1 56 0
  29              		.cfi_startproc
  30 0000 80B5     		push	{r7, lr}
  31              	.LCFI0:
  32              		.cfi_def_cfa_offset 8
  33              		.cfi_offset 7, -8
  34              		.cfi_offset 14, -4
  35 0002 82B0     		sub	sp, sp, #8
  36              	.LCFI1:
  37              		.cfi_def_cfa_offset 16
  38 0004 00AF     		add	r7, sp, #0
  39              	.LCFI2:
  40              		.cfi_def_cfa_register 7
  41 0006 7860     		str	r0, [r7, #4]
  42 0008 0A1C     		mov	r2, r1
  43 000a BB1C     		add	r3, r7, #2
  44 000c 1A80     		strh	r2, [r3]
  57:C:/data/workspaces/github/de.protos.demos/src/XMC2GoBlinky/etrice.XMC2GoBlinky.demo/src-gen-st/room/basic/service/timing\ATimingService.c **** 	self->state = new_state;
  45              		.loc 1 57 0
  46 000e 7B68     		ldr	r3, [r7, #4]
  47 0010 BA1C     		add	r2, r7, #2
  48 0012 1288     		ldrh	r2, [r2]
  49 0014 9A80     		strh	r2, [r3, #4]
  58:C:/data/workspaces/github/de.protos.demos/src/XMC2GoBlinky/etrice.XMC2GoBlinky.demo/src-gen-st/room/basic/service/timing\ATimingService.c **** }
  50              		.loc 1 58 0
  51 0016 BD46     		mov	sp, r7
  52 0018 02B0     		add	sp, sp, #8
  53              		@ sp needed for prologue
  54 001a 80BD     		pop	{r7, pc}
  55              		.cfi_endproc
  56              	.LFE0:
  58              		.section	.text.getState,"ax",%progbits
  59              		.align	2
  60              		.code	16
  61              		.thumb_func
  63              	getState:
  64              	.LFB1:
  59:C:/data/workspaces/github/de.protos.demos/src/XMC2GoBlinky/etrice.XMC2GoBlinky.demo/src-gen-st/room/basic/service/timing\ATimingService.c **** 
  60:C:/data/workspaces/github/de.protos.demos/src/XMC2GoBlinky/etrice.XMC2GoBlinky.demo/src-gen-st/room/basic/service/timing\ATimingService.c **** static etInt16 getState(ATimingService* self) {
  65              		.loc 1 60 0
  66              		.cfi_startproc
  67 0000 80B5     		push	{r7, lr}
  68              	.LCFI3:
  69              		.cfi_def_cfa_offset 8
  70              		.cfi_offset 7, -8
  71              		.cfi_offset 14, -4
  72 0002 82B0     		sub	sp, sp, #8
  73              	.LCFI4:
  74              		.cfi_def_cfa_offset 16
  75 0004 00AF     		add	r7, sp, #0
  76              	.LCFI5:
  77              		.cfi_def_cfa_register 7
  78 0006 7860     		str	r0, [r7, #4]
  61:C:/data/workspaces/github/de.protos.demos/src/XMC2GoBlinky/etrice.XMC2GoBlinky.demo/src-gen-st/room/basic/service/timing\ATimingService.c **** 	return self->state;
  79              		.loc 1 61 0
  80 0008 7B68     		ldr	r3, [r7, #4]
  81 000a 9B88     		ldrh	r3, [r3, #4]
  82 000c 1BB2     		sxth	r3, r3
  62:C:/data/workspaces/github/de.protos.demos/src/XMC2GoBlinky/etrice.XMC2GoBlinky.demo/src-gen-st/room/basic/service/timing\ATimingService.c **** }
  83              		.loc 1 62 0
  84 000e 181C     		mov	r0, r3
  85 0010 BD46     		mov	sp, r7
  86 0012 02B0     		add	sp, sp, #8
  87              		@ sp needed for prologue
  88 0014 80BD     		pop	{r7, pc}
  89              		.cfi_endproc
  90              	.LFE1:
  92 0016 C046     		.section	.text.entry_Operational,"ax",%progbits
  93              		.align	2
  94              		.code	16
  95              		.thumb_func
  97              	entry_Operational:
  98              	.LFB2:
  63:C:/data/workspaces/github/de.protos.demos/src/XMC2GoBlinky/etrice.XMC2GoBlinky.demo/src-gen-st/room/basic/service/timing\ATimingService.c **** 
  64:C:/data/workspaces/github/de.protos.demos/src/XMC2GoBlinky/etrice.XMC2GoBlinky.demo/src-gen-st/room/basic/service/timing\ATimingService.c **** /* Entry and Exit Codes */
  65:C:/data/workspaces/github/de.protos.demos/src/XMC2GoBlinky/etrice.XMC2GoBlinky.demo/src-gen-st/room/basic/service/timing\ATimingService.c **** static void entry_Operational(ATimingService* self) {
  99              		.loc 1 65 0
 100              		.cfi_startproc
 101 0000 80B5     		push	{r7, lr}
 102              	.LCFI6:
 103              		.cfi_def_cfa_offset 8
 104              		.cfi_offset 7, -8
 105              		.cfi_offset 14, -4
 106 0002 82B0     		sub	sp, sp, #8
 107              	.LCFI7:
 108              		.cfi_def_cfa_offset 16
 109 0004 00AF     		add	r7, sp, #0
 110              	.LCFI8:
 111              		.cfi_def_cfa_register 7
 112 0006 7860     		str	r0, [r7, #4]
  66:C:/data/workspaces/github/de.protos.demos/src/XMC2GoBlinky/etrice.XMC2GoBlinky.demo/src-gen-st/room/basic/service/timing\ATimingService.c **** 	/* prepare */
  67:C:/data/workspaces/github/de.protos.demos/src/XMC2GoBlinky/etrice.XMC2GoBlinky.demo/src-gen-st/room/basic/service/timing\ATimingService.c **** }
 113              		.loc 1 67 0
 114 0008 BD46     		mov	sp, r7
 115 000a 02B0     		add	sp, sp, #8
 116              		@ sp needed for prologue
 117 000c 80BD     		pop	{r7, pc}
 118              		.cfi_endproc
 119              	.LFE2:
 121 000e C046     		.section	.text.do_Operational,"ax",%progbits
 122              		.align	2
 123              		.code	16
 124              		.thumb_func
 126              	do_Operational:
 127              	.LFB3:
  68:C:/data/workspaces/github/de.protos.demos/src/XMC2GoBlinky/etrice.XMC2GoBlinky.demo/src-gen-st/room/basic/service/timing\ATimingService.c **** static  void do_Operational(ATimingService* self) {
 128              		.loc 1 68 0
 129              		.cfi_startproc
 130 0000 80B5     		push	{r7, lr}
 131              	.LCFI9:
 132              		.cfi_def_cfa_offset 8
 133              		.cfi_offset 7, -8
 134              		.cfi_offset 14, -4
 135 0002 86B0     		sub	sp, sp, #24
 136              	.LCFI10:
 137              		.cfi_def_cfa_offset 32
 138 0004 00AF     		add	r7, sp, #0
 139              	.LCFI11:
 140              		.cfi_def_cfa_register 7
 141 0006 7860     		str	r0, [r7, #4]
  69:C:/data/workspaces/github/de.protos.demos/src/XMC2GoBlinky/etrice.XMC2GoBlinky.demo/src-gen-st/room/basic/service/timing\ATimingService.c **** 	/* maintain timers */
  70:C:/data/workspaces/github/de.protos.demos/src/XMC2GoBlinky/etrice.XMC2GoBlinky.demo/src-gen-st/room/basic/service/timing\ATimingService.c **** 	etTimerControlBlock* temp;
  71:C:/data/workspaces/github/de.protos.demos/src/XMC2GoBlinky/etrice.XMC2GoBlinky.demo/src-gen-st/room/basic/service/timing\ATimingService.c **** 	etTime t;
  72:C:/data/workspaces/github/de.protos.demos/src/XMC2GoBlinky/etrice.XMC2GoBlinky.demo/src-gen-st/room/basic/service/timing\ATimingService.c **** 	
  73:C:/data/workspaces/github/de.protos.demos/src/XMC2GoBlinky/etrice.XMC2GoBlinky.demo/src-gen-st/room/basic/service/timing\ATimingService.c **** 	getTimeFromTarget(&t);
 142              		.loc 1 73 0
 143 0008 3B1C     		mov	r3, r7
 144 000a 0C33     		add	r3, r3, #12
 145 000c 181C     		mov	r0, r3
 146 000e FFF7FEFF 		bl	getTimeFromTarget
  74:C:/data/workspaces/github/de.protos.demos/src/XMC2GoBlinky/etrice.XMC2GoBlinky.demo/src-gen-st/room/basic/service/timing\ATimingService.c **** 	while (usedTcbsRoot !=0 ){
 147              		.loc 1 74 0
 148 0012 3CE0     		b	.L6
 149              	.L11:
  75:C:/data/workspaces/github/de.protos.demos/src/XMC2GoBlinky/etrice.XMC2GoBlinky.demo/src-gen-st/room/basic/service/timing\ATimingService.c **** 		if (isTimeGreater(&t,&(usedTcbsRoot->expTime))){
 150              		.loc 1 75 0
 151 0014 224B     		ldr	r3, .L13
 152 0016 1B68     		ldr	r3, [r3]
 153 0018 7968     		ldr	r1, [r7, #4]
 154 001a 3A1C     		mov	r2, r7
 155 001c 0C32     		add	r2, r2, #12
 156 001e 081C     		mov	r0, r1
 157 0020 111C     		mov	r1, r2
 158 0022 1A1C     		mov	r2, r3
 159 0024 FFF7FEFF 		bl	ATimingService_isTimeGreater
 160 0028 031C     		mov	r3, r0
 161 002a 002B     		cmp	r3, #0
 162 002c 34D0     		beq	.L12
  76:C:/data/workspaces/github/de.protos.demos/src/XMC2GoBlinky/etrice.XMC2GoBlinky.demo/src-gen-st/room/basic/service/timing\ATimingService.c **** 			timer_timeout(usedTcbsRoot->portIdx);
 163              		.loc 1 76 0
 164 002e 7B68     		ldr	r3, [r7, #4]
 165 0030 1B68     		ldr	r3, [r3]
 166 0032 1A1C     		mov	r2, r3
 167 0034 1A4B     		ldr	r3, .L13
 168 0036 1B68     		ldr	r3, [r3]
 169 0038 1B69     		ldr	r3, [r3, #16]
 170 003a 101C     		mov	r0, r2
 171 003c 191C     		mov	r1, r3
 172 003e FFF7FEFF 		bl	PTimerReplPort_timeout
  77:C:/data/workspaces/github/de.protos.demos/src/XMC2GoBlinky/etrice.XMC2GoBlinky.demo/src-gen-st/room/basic/service/timing\ATimingService.c **** 			temp=usedTcbsRoot;
 173              		.loc 1 77 0
 174 0042 174B     		ldr	r3, .L13
 175 0044 1B68     		ldr	r3, [r3]
 176 0046 7B61     		str	r3, [r7, #20]
  78:C:/data/workspaces/github/de.protos.demos/src/XMC2GoBlinky/etrice.XMC2GoBlinky.demo/src-gen-st/room/basic/service/timing\ATimingService.c **** 			usedTcbsRoot=usedTcbsRoot->next;
 177              		.loc 1 78 0
 178 0048 154B     		ldr	r3, .L13
 179 004a 1B68     		ldr	r3, [r3]
 180 004c 5A69     		ldr	r2, [r3, #20]
 181 004e 144B     		ldr	r3, .L13
 182 0050 1A60     		str	r2, [r3]
  79:C:/data/workspaces/github/de.protos.demos/src/XMC2GoBlinky/etrice.XMC2GoBlinky.demo/src-gen-st/room/basic/service/timing\ATimingService.c **** 			if((temp->pTime.sec==0)&&(temp->pTime.nSec==0)){
 183              		.loc 1 79 0
 184 0052 7B69     		ldr	r3, [r7, #20]
 185 0054 9B68     		ldr	r3, [r3, #8]
 186 0056 002B     		cmp	r3, #0
 187 0058 0AD1     		bne	.L8
 188              		.loc 1 79 0 is_stmt 0 discriminator 1
 189 005a 7B69     		ldr	r3, [r7, #20]
 190 005c DB68     		ldr	r3, [r3, #12]
 191 005e 002B     		cmp	r3, #0
 192 0060 06D1     		bne	.L8
  80:C:/data/workspaces/github/de.protos.demos/src/XMC2GoBlinky/etrice.XMC2GoBlinky.demo/src-gen-st/room/basic/service/timing\ATimingService.c **** 				/* single shot timer */
  81:C:/data/workspaces/github/de.protos.demos/src/XMC2GoBlinky/etrice.XMC2GoBlinky.demo/src-gen-st/room/basic/service/timing\ATimingService.c **** 				returnTcb(temp);
 193              		.loc 1 81 0 is_stmt 1
 194 0062 7A68     		ldr	r2, [r7, #4]
 195 0064 7B69     		ldr	r3, [r7, #20]
 196 0066 101C     		mov	r0, r2
 197 0068 191C     		mov	r1, r3
 198 006a FFF7FEFF 		bl	ATimingService_returnTcb
 199 006e 0EE0     		b	.L6
 200              	.L8:
  82:C:/data/workspaces/github/de.protos.demos/src/XMC2GoBlinky/etrice.XMC2GoBlinky.demo/src-gen-st/room/basic/service/timing\ATimingService.c **** 			}else{
  83:C:/data/workspaces/github/de.protos.demos/src/XMC2GoBlinky/etrice.XMC2GoBlinky.demo/src-gen-st/room/basic/service/timing\ATimingService.c **** 				/* periodic timer */
  84:C:/data/workspaces/github/de.protos.demos/src/XMC2GoBlinky/etrice.XMC2GoBlinky.demo/src-gen-st/room/basic/service/timing\ATimingService.c **** 				addTime(&temp->expTime,&temp->pTime);
 201              		.loc 1 84 0
 202 0070 7A69     		ldr	r2, [r7, #20]
 203 0072 7B69     		ldr	r3, [r7, #20]
 204 0074 0833     		add	r3, r3, #8
 205 0076 7968     		ldr	r1, [r7, #4]
 206 0078 081C     		mov	r0, r1
 207 007a 111C     		mov	r1, r2
 208 007c 1A1C     		mov	r2, r3
 209 007e FFF7FEFF 		bl	ATimingService_addTime
  85:C:/data/workspaces/github/de.protos.demos/src/XMC2GoBlinky/etrice.XMC2GoBlinky.demo/src-gen-st/room/basic/service/timing\ATimingService.c **** 				putTcbToUsedList(temp);
 210              		.loc 1 85 0
 211 0082 7A68     		ldr	r2, [r7, #4]
 212 0084 7B69     		ldr	r3, [r7, #20]
 213 0086 101C     		mov	r0, r2
 214 0088 191C     		mov	r1, r3
 215 008a FFF7FEFF 		bl	ATimingService_putTcbToUsedList
 216              	.L6:
  74:C:/data/workspaces/github/de.protos.demos/src/XMC2GoBlinky/etrice.XMC2GoBlinky.demo/src-gen-st/room/basic/service/timing\ATimingService.c **** 	while (usedTcbsRoot !=0 ){
 217              		.loc 1 74 0 discriminator 1
 218 008e 044B     		ldr	r3, .L13
 219 0090 1B68     		ldr	r3, [r3]
 220 0092 002B     		cmp	r3, #0
 221 0094 BED1     		bne	.L11
 222 0096 00E0     		b	.L5
 223              	.L12:
  86:C:/data/workspaces/github/de.protos.demos/src/XMC2GoBlinky/etrice.XMC2GoBlinky.demo/src-gen-st/room/basic/service/timing\ATimingService.c **** 				}
  87:C:/data/workspaces/github/de.protos.demos/src/XMC2GoBlinky/etrice.XMC2GoBlinky.demo/src-gen-st/room/basic/service/timing\ATimingService.c **** 			}else{
  88:C:/data/workspaces/github/de.protos.demos/src/XMC2GoBlinky/etrice.XMC2GoBlinky.demo/src-gen-st/room/basic/service/timing\ATimingService.c **** 				break;
 224              		.loc 1 88 0
 225 0098 C046     		mov	r8, r8
 226              	.L5:
  89:C:/data/workspaces/github/de.protos.demos/src/XMC2GoBlinky/etrice.XMC2GoBlinky.demo/src-gen-st/room/basic/service/timing\ATimingService.c **** 				}
  90:C:/data/workspaces/github/de.protos.demos/src/XMC2GoBlinky/etrice.XMC2GoBlinky.demo/src-gen-st/room/basic/service/timing\ATimingService.c **** 		}
  91:C:/data/workspaces/github/de.protos.demos/src/XMC2GoBlinky/etrice.XMC2GoBlinky.demo/src-gen-st/room/basic/service/timing\ATimingService.c **** }
 227              		.loc 1 91 0
 228 009a BD46     		mov	sp, r7
 229 009c 06B0     		add	sp, sp, #24
 230              		@ sp needed for prologue
 231 009e 80BD     		pop	{r7, pc}
 232              	.L14:
 233              		.align	2
 234              	.L13:
 235 00a0 00000000 		.word	usedTcbsRoot
 236              		.cfi_endproc
 237              	.LFE3:
 239              		.section	.text.action_TRANS_INITIAL_TO__Operational,"ax",%progbits
 240              		.align	2
 241              		.code	16
 242              		.thumb_func
 244              	action_TRANS_INITIAL_TO__Operational:
 245              	.LFB4:
  92:C:/data/workspaces/github/de.protos.demos/src/XMC2GoBlinky/etrice.XMC2GoBlinky.demo/src-gen-st/room/basic/service/timing\ATimingService.c **** 
  93:C:/data/workspaces/github/de.protos.demos/src/XMC2GoBlinky/etrice.XMC2GoBlinky.demo/src-gen-st/room/basic/service/timing\ATimingService.c **** /* Action Codes */
  94:C:/data/workspaces/github/de.protos.demos/src/XMC2GoBlinky/etrice.XMC2GoBlinky.demo/src-gen-st/room/basic/service/timing\ATimingService.c **** static void action_TRANS_INITIAL_TO__Operational(ATimingService* self) {
 246              		.loc 1 94 0
 247              		.cfi_startproc
 248 0000 80B5     		push	{r7, lr}
 249              	.LCFI12:
 250              		.cfi_def_cfa_offset 8
 251              		.cfi_offset 7, -8
 252              		.cfi_offset 14, -4
 253 0002 84B0     		sub	sp, sp, #16
 254              	.LCFI13:
 255              		.cfi_def_cfa_offset 24
 256 0004 00AF     		add	r7, sp, #0
 257              	.LCFI14:
 258              		.cfi_def_cfa_register 7
 259 0006 7860     		str	r0, [r7, #4]
  95:C:/data/workspaces/github/de.protos.demos/src/XMC2GoBlinky/etrice.XMC2GoBlinky.demo/src-gen-st/room/basic/service/timing\ATimingService.c **** 	int i;
  96:C:/data/workspaces/github/de.protos.demos/src/XMC2GoBlinky/etrice.XMC2GoBlinky.demo/src-gen-st/room/basic/service/timing\ATimingService.c **** 	usedTcbsRoot=0;
 260              		.loc 1 96 0
 261 0008 134B     		ldr	r3, .L18
 262 000a 0022     		mov	r2, #0
 263 000c 1A60     		str	r2, [r3]
  97:C:/data/workspaces/github/de.protos.demos/src/XMC2GoBlinky/etrice.XMC2GoBlinky.demo/src-gen-st/room/basic/service/timing\ATimingService.c **** 	freeTcbsRoot=&tcbs[0];
 264              		.loc 1 97 0
 265 000e 134B     		ldr	r3, .L18+4
 266 0010 134A     		ldr	r2, .L18+8
 267 0012 1A60     		str	r2, [r3]
  98:C:/data/workspaces/github/de.protos.demos/src/XMC2GoBlinky/etrice.XMC2GoBlinky.demo/src-gen-st/room/basic/service/timing\ATimingService.c **** 	tcbs[ET_NB_OF_TCBS-1].next=0;
 268              		.loc 1 98 0
 269 0014 124A     		ldr	r2, .L18+8
 270 0016 EE23     		mov	r3, #238
 271 0018 5B00     		lsl	r3, r3, #1
 272 001a 0021     		mov	r1, #0
 273 001c D150     		str	r1, [r2, r3]
  99:C:/data/workspaces/github/de.protos.demos/src/XMC2GoBlinky/etrice.XMC2GoBlinky.demo/src-gen-st/room/basic/service/timing\ATimingService.c **** 	for (i=0;i<ET_NB_OF_TCBS-1;i++){
 274              		.loc 1 99 0
 275 001e 0023     		mov	r3, #0
 276 0020 FB60     		str	r3, [r7, #12]
 277 0022 13E0     		b	.L16
 278              	.L17:
 100:C:/data/workspaces/github/de.protos.demos/src/XMC2GoBlinky/etrice.XMC2GoBlinky.demo/src-gen-st/room/basic/service/timing\ATimingService.c **** 		tcbs[i].next=&tcbs[i+1];
 279              		.loc 1 100 0 discriminator 2
 280 0024 FB68     		ldr	r3, [r7, #12]
 281 0026 5A1C     		add	r2, r3, #1
 282 0028 131C     		mov	r3, r2
 283 002a 5B00     		lsl	r3, r3, #1
 284 002c 9B18     		add	r3, r3, r2
 285 002e DB00     		lsl	r3, r3, #3
 286 0030 0B4A     		ldr	r2, .L18+8
 287 0032 9918     		add	r1, r3, r2
 288 0034 0A48     		ldr	r0, .L18+8
 289 0036 FA68     		ldr	r2, [r7, #12]
 290 0038 131C     		mov	r3, r2
 291 003a 5B00     		lsl	r3, r3, #1
 292 003c 9B18     		add	r3, r3, r2
 293 003e DB00     		lsl	r3, r3, #3
 294 0040 C318     		add	r3, r0, r3
 295 0042 1433     		add	r3, r3, #20
 296 0044 1960     		str	r1, [r3]
  99:C:/data/workspaces/github/de.protos.demos/src/XMC2GoBlinky/etrice.XMC2GoBlinky.demo/src-gen-st/room/basic/service/timing\ATimingService.c **** 	for (i=0;i<ET_NB_OF_TCBS-1;i++){
 297              		.loc 1 99 0 discriminator 2
 298 0046 FB68     		ldr	r3, [r7, #12]
 299 0048 0133     		add	r3, r3, #1
 300 004a FB60     		str	r3, [r7, #12]
 301              	.L16:
  99:C:/data/workspaces/github/de.protos.demos/src/XMC2GoBlinky/etrice.XMC2GoBlinky.demo/src-gen-st/room/basic/service/timing\ATimingService.c **** 	for (i=0;i<ET_NB_OF_TCBS-1;i++){
 302              		.loc 1 99 0 is_stmt 0 discriminator 1
 303 004c FB68     		ldr	r3, [r7, #12]
 304 004e 122B     		cmp	r3, #18
 305 0050 E8DD     		ble	.L17
 101:C:/data/workspaces/github/de.protos.demos/src/XMC2GoBlinky/etrice.XMC2GoBlinky.demo/src-gen-st/room/basic/service/timing\ATimingService.c **** 		}
 102:C:/data/workspaces/github/de.protos.demos/src/XMC2GoBlinky/etrice.XMC2GoBlinky.demo/src-gen-st/room/basic/service/timing\ATimingService.c **** }
 306              		.loc 1 102 0 is_stmt 1
 307 0052 BD46     		mov	sp, r7
 308 0054 04B0     		add	sp, sp, #16
 309              		@ sp needed for prologue
 310 0056 80BD     		pop	{r7, pc}
 311              	.L19:
 312              		.align	2
 313              	.L18:
 314 0058 00000000 		.word	usedTcbsRoot
 315 005c 00000000 		.word	freeTcbsRoot
 316 0060 00000000 		.word	tcbs
 317              		.cfi_endproc
 318              	.LFE4:
 320              		.global	__aeabi_uidiv
 321              		.global	__aeabi_uidivmod
 322              		.section	.text.action_TRANS_tr1_FROM_Operational_TO_Operational_BY_startTimeouttimer_tr1,"ax",%pro
 323              		.align	2
 324              		.code	16
 325              		.thumb_func
 327              	action_TRANS_tr1_FROM_Operational_TO_Operational_BY_startTimeouttimer_tr1:
 328              	.LFB5:
 103:C:/data/workspaces/github/de.protos.demos/src/XMC2GoBlinky/etrice.XMC2GoBlinky.demo/src-gen-st/room/basic/service/timing\ATimingService.c **** static void action_TRANS_tr1_FROM_Operational_TO_Operational_BY_startTimeouttimer_tr1(ATimingServic
 329              		.loc 1 103 0
 330              		.cfi_startproc
 331 0000 80B5     		push	{r7, lr}
 332              	.LCFI15:
 333              		.cfi_def_cfa_offset 8
 334              		.cfi_offset 7, -8
 335              		.cfi_offset 14, -4
 336 0002 88B0     		sub	sp, sp, #32
 337              	.LCFI16:
 338              		.cfi_def_cfa_offset 40
 339 0004 00AF     		add	r7, sp, #0
 340              	.LCFI17:
 341              		.cfi_def_cfa_register 7
 342 0006 F860     		str	r0, [r7, #12]
 343 0008 B960     		str	r1, [r7, #8]
 344 000a 7A60     		str	r2, [r7, #4]
 104:C:/data/workspaces/github/de.protos.demos/src/XMC2GoBlinky/etrice.XMC2GoBlinky.demo/src-gen-st/room/basic/service/timing\ATimingService.c **** 	etTimerControlBlock* timer = getTcb();
 345              		.loc 1 104 0
 346 000c FB68     		ldr	r3, [r7, #12]
 347 000e 181C     		mov	r0, r3
 348 0010 FFF7FEFF 		bl	ATimingService_getTcb
 349 0014 031C     		mov	r3, r0
 350 0016 FB61     		str	r3, [r7, #28]
 105:C:/data/workspaces/github/de.protos.demos/src/XMC2GoBlinky/etrice.XMC2GoBlinky.demo/src-gen-st/room/basic/service/timing\ATimingService.c **** 	etTime t;
 106:C:/data/workspaces/github/de.protos.demos/src/XMC2GoBlinky/etrice.XMC2GoBlinky.demo/src-gen-st/room/basic/service/timing\ATimingService.c **** 	if (timer!= 0){
 351              		.loc 1 106 0
 352 0018 FB69     		ldr	r3, [r7, #28]
 353 001a 002B     		cmp	r3, #0
 354 001c 35D0     		beq	.L20
 107:C:/data/workspaces/github/de.protos.demos/src/XMC2GoBlinky/etrice.XMC2GoBlinky.demo/src-gen-st/room/basic/service/timing\ATimingService.c **** 		t.sec=time/1000;
 355              		.loc 1 107 0
 356 001e 7B68     		ldr	r3, [r7, #4]
 357 0020 181C     		mov	r0, r3
 358 0022 FA23     		mov	r3, #250
 359 0024 9900     		lsl	r1, r3, #2
 360 0026 FFF7FEFF 		bl	__aeabi_uidiv
 361 002a 031C     		mov	r3, r0
 362 002c 1A1C     		mov	r2, r3
 363 002e 3B1C     		mov	r3, r7
 364 0030 1433     		add	r3, r3, #20
 365 0032 1A60     		str	r2, [r3]
 108:C:/data/workspaces/github/de.protos.demos/src/XMC2GoBlinky/etrice.XMC2GoBlinky.demo/src-gen-st/room/basic/service/timing\ATimingService.c **** 		t.nSec=(time%1000)*1000000L;
 366              		.loc 1 108 0
 367 0034 7B68     		ldr	r3, [r7, #4]
 368 0036 181C     		mov	r0, r3
 369 0038 FA23     		mov	r3, #250
 370 003a 9900     		lsl	r1, r3, #2
 371 003c FFF7FEFF 		bl	__aeabi_uidivmod
 372 0040 0B1C     		mov	r3, r1
 373 0042 134A     		ldr	r2, .L22
 374 0044 5343     		mul	r3, r2
 375 0046 1A1C     		mov	r2, r3
 376 0048 3B1C     		mov	r3, r7
 377 004a 1433     		add	r3, r3, #20
 378 004c 5A60     		str	r2, [r3, #4]
 109:C:/data/workspaces/github/de.protos.demos/src/XMC2GoBlinky/etrice.XMC2GoBlinky.demo/src-gen-st/room/basic/service/timing\ATimingService.c **** 		timer->pTime.sec = 0;
 379              		.loc 1 109 0
 380 004e FB69     		ldr	r3, [r7, #28]
 381 0050 0022     		mov	r2, #0
 382 0052 9A60     		str	r2, [r3, #8]
 110:C:/data/workspaces/github/de.protos.demos/src/XMC2GoBlinky/etrice.XMC2GoBlinky.demo/src-gen-st/room/basic/service/timing\ATimingService.c **** 		timer->pTime.nSec = 0;
 383              		.loc 1 110 0
 384 0054 FB69     		ldr	r3, [r7, #28]
 385 0056 0022     		mov	r2, #0
 386 0058 DA60     		str	r2, [r3, #12]
 111:C:/data/workspaces/github/de.protos.demos/src/XMC2GoBlinky/etrice.XMC2GoBlinky.demo/src-gen-st/room/basic/service/timing\ATimingService.c **** 		timer->portIdx=((etReplSubPort*)ifitem)->index;
 387              		.loc 1 111 0
 388 005a BB68     		ldr	r3, [r7, #8]
 389 005c 1B7B     		ldrb	r3, [r3, #12]
 390 005e 1A1C     		mov	r2, r3
 391 0060 FB69     		ldr	r3, [r7, #28]
 392 0062 1A61     		str	r2, [r3, #16]
 112:C:/data/workspaces/github/de.protos.demos/src/XMC2GoBlinky/etrice.XMC2GoBlinky.demo/src-gen-st/room/basic/service/timing\ATimingService.c **** 		getTimeFromTarget(&(timer->expTime));
 393              		.loc 1 112 0
 394 0064 FB69     		ldr	r3, [r7, #28]
 395 0066 181C     		mov	r0, r3
 396 0068 FFF7FEFF 		bl	getTimeFromTarget
 113:C:/data/workspaces/github/de.protos.demos/src/XMC2GoBlinky/etrice.XMC2GoBlinky.demo/src-gen-st/room/basic/service/timing\ATimingService.c **** 		addTime(&(timer->expTime),&t);
 397              		.loc 1 113 0
 398 006c FA69     		ldr	r2, [r7, #28]
 399 006e F968     		ldr	r1, [r7, #12]
 400 0070 3B1C     		mov	r3, r7
 401 0072 1433     		add	r3, r3, #20
 402 0074 081C     		mov	r0, r1
 403 0076 111C     		mov	r1, r2
 404 0078 1A1C     		mov	r2, r3
 405 007a FFF7FEFF 		bl	ATimingService_addTime
 114:C:/data/workspaces/github/de.protos.demos/src/XMC2GoBlinky/etrice.XMC2GoBlinky.demo/src-gen-st/room/basic/service/timing\ATimingService.c **** 		putTcbToUsedList(timer);
 406              		.loc 1 114 0
 407 007e FA68     		ldr	r2, [r7, #12]
 408 0080 FB69     		ldr	r3, [r7, #28]
 409 0082 101C     		mov	r0, r2
 410 0084 191C     		mov	r1, r3
 411 0086 FFF7FEFF 		bl	ATimingService_putTcbToUsedList
 412              	.L20:
 115:C:/data/workspaces/github/de.protos.demos/src/XMC2GoBlinky/etrice.XMC2GoBlinky.demo/src-gen-st/room/basic/service/timing\ATimingService.c **** 		}
 116:C:/data/workspaces/github/de.protos.demos/src/XMC2GoBlinky/etrice.XMC2GoBlinky.demo/src-gen-st/room/basic/service/timing\ATimingService.c **** }
 413              		.loc 1 116 0
 414 008a BD46     		mov	sp, r7
 415 008c 08B0     		add	sp, sp, #32
 416              		@ sp needed for prologue
 417 008e 80BD     		pop	{r7, pc}
 418              	.L23:
 419              		.align	2
 420              	.L22:
 421 0090 40420F00 		.word	1000000
 422              		.cfi_endproc
 423              	.LFE5:
 425              		.section	.text.action_TRANS_tr3_FROM_Operational_TO_Operational_BY_startTimertimer_tr3,"ax",%progb
 426              		.align	2
 427              		.code	16
 428              		.thumb_func
 430              	action_TRANS_tr3_FROM_Operational_TO_Operational_BY_startTimertimer_tr3:
 431              	.LFB6:
 117:C:/data/workspaces/github/de.protos.demos/src/XMC2GoBlinky/etrice.XMC2GoBlinky.demo/src-gen-st/room/basic/service/timing\ATimingService.c **** static void action_TRANS_tr3_FROM_Operational_TO_Operational_BY_startTimertimer_tr3(ATimingService*
 432              		.loc 1 117 0
 433              		.cfi_startproc
 434 0000 80B5     		push	{r7, lr}
 435              	.LCFI18:
 436              		.cfi_def_cfa_offset 8
 437              		.cfi_offset 7, -8
 438              		.cfi_offset 14, -4
 439 0002 88B0     		sub	sp, sp, #32
 440              	.LCFI19:
 441              		.cfi_def_cfa_offset 40
 442 0004 00AF     		add	r7, sp, #0
 443              	.LCFI20:
 444              		.cfi_def_cfa_register 7
 445 0006 F860     		str	r0, [r7, #12]
 446 0008 B960     		str	r1, [r7, #8]
 447 000a 7A60     		str	r2, [r7, #4]
 118:C:/data/workspaces/github/de.protos.demos/src/XMC2GoBlinky/etrice.XMC2GoBlinky.demo/src-gen-st/room/basic/service/timing\ATimingService.c **** 	etTimerControlBlock* timer = getTcb();
 448              		.loc 1 118 0
 449 000c FB68     		ldr	r3, [r7, #12]
 450 000e 181C     		mov	r0, r3
 451 0010 FFF7FEFF 		bl	ATimingService_getTcb
 452 0014 031C     		mov	r3, r0
 453 0016 FB61     		str	r3, [r7, #28]
 119:C:/data/workspaces/github/de.protos.demos/src/XMC2GoBlinky/etrice.XMC2GoBlinky.demo/src-gen-st/room/basic/service/timing\ATimingService.c **** 	etTime t;
 120:C:/data/workspaces/github/de.protos.demos/src/XMC2GoBlinky/etrice.XMC2GoBlinky.demo/src-gen-st/room/basic/service/timing\ATimingService.c **** 	if (timer!= 0){
 454              		.loc 1 120 0
 455 0018 FB69     		ldr	r3, [r7, #28]
 456 001a 002B     		cmp	r3, #0
 457 001c 35D0     		beq	.L24
 121:C:/data/workspaces/github/de.protos.demos/src/XMC2GoBlinky/etrice.XMC2GoBlinky.demo/src-gen-st/room/basic/service/timing\ATimingService.c **** 		t.sec=time/1000;
 458              		.loc 1 121 0
 459 001e 7B68     		ldr	r3, [r7, #4]
 460 0020 181C     		mov	r0, r3
 461 0022 FA23     		mov	r3, #250
 462 0024 9900     		lsl	r1, r3, #2
 463 0026 FFF7FEFF 		bl	__aeabi_uidiv
 464 002a 031C     		mov	r3, r0
 465 002c 1A1C     		mov	r2, r3
 466 002e 3B1C     		mov	r3, r7
 467 0030 1433     		add	r3, r3, #20
 468 0032 1A60     		str	r2, [r3]
 122:C:/data/workspaces/github/de.protos.demos/src/XMC2GoBlinky/etrice.XMC2GoBlinky.demo/src-gen-st/room/basic/service/timing\ATimingService.c **** 		t.nSec=(time%1000)*1000000L;
 469              		.loc 1 122 0
 470 0034 7B68     		ldr	r3, [r7, #4]
 471 0036 181C     		mov	r0, r3
 472 0038 FA23     		mov	r3, #250
 473 003a 9900     		lsl	r1, r3, #2
 474 003c FFF7FEFF 		bl	__aeabi_uidivmod
 475 0040 0B1C     		mov	r3, r1
 476 0042 134A     		ldr	r2, .L26
 477 0044 5343     		mul	r3, r2
 478 0046 1A1C     		mov	r2, r3
 479 0048 3B1C     		mov	r3, r7
 480 004a 1433     		add	r3, r3, #20
 481 004c 5A60     		str	r2, [r3, #4]
 123:C:/data/workspaces/github/de.protos.demos/src/XMC2GoBlinky/etrice.XMC2GoBlinky.demo/src-gen-st/room/basic/service/timing\ATimingService.c **** 		timer->pTime = t;
 482              		.loc 1 123 0
 483 004e FB69     		ldr	r3, [r7, #28]
 484 0050 3A1C     		mov	r2, r7
 485 0052 1432     		add	r2, r2, #20
 486 0054 0833     		add	r3, r3, #8
 487 0056 03CA     		ldmia	r2!, {r0, r1}
 488 0058 03C3     		stmia	r3!, {r0, r1}
 124:C:/data/workspaces/github/de.protos.demos/src/XMC2GoBlinky/etrice.XMC2GoBlinky.demo/src-gen-st/room/basic/service/timing\ATimingService.c **** 		timer->portIdx=((etReplSubPort*)ifitem)->index;
 489              		.loc 1 124 0
 490 005a BB68     		ldr	r3, [r7, #8]
 491 005c 1B7B     		ldrb	r3, [r3, #12]
 492 005e 1A1C     		mov	r2, r3
 493 0060 FB69     		ldr	r3, [r7, #28]
 494 0062 1A61     		str	r2, [r3, #16]
 125:C:/data/workspaces/github/de.protos.demos/src/XMC2GoBlinky/etrice.XMC2GoBlinky.demo/src-gen-st/room/basic/service/timing\ATimingService.c **** 		getTimeFromTarget(&(timer->expTime));
 495              		.loc 1 125 0
 496 0064 FB69     		ldr	r3, [r7, #28]
 497 0066 181C     		mov	r0, r3
 498 0068 FFF7FEFF 		bl	getTimeFromTarget
 126:C:/data/workspaces/github/de.protos.demos/src/XMC2GoBlinky/etrice.XMC2GoBlinky.demo/src-gen-st/room/basic/service/timing\ATimingService.c **** 		addTime(&(timer->expTime),&t);
 499              		.loc 1 126 0
 500 006c FA69     		ldr	r2, [r7, #28]
 501 006e F968     		ldr	r1, [r7, #12]
 502 0070 3B1C     		mov	r3, r7
 503 0072 1433     		add	r3, r3, #20
 504 0074 081C     		mov	r0, r1
 505 0076 111C     		mov	r1, r2
 506 0078 1A1C     		mov	r2, r3
 507 007a FFF7FEFF 		bl	ATimingService_addTime
 127:C:/data/workspaces/github/de.protos.demos/src/XMC2GoBlinky/etrice.XMC2GoBlinky.demo/src-gen-st/room/basic/service/timing\ATimingService.c **** 		putTcbToUsedList(timer);
 508              		.loc 1 127 0
 509 007e FA68     		ldr	r2, [r7, #12]
 510 0080 FB69     		ldr	r3, [r7, #28]
 511 0082 101C     		mov	r0, r2
 512 0084 191C     		mov	r1, r3
 513 0086 FFF7FEFF 		bl	ATimingService_putTcbToUsedList
 514              	.L24:
 128:C:/data/workspaces/github/de.protos.demos/src/XMC2GoBlinky/etrice.XMC2GoBlinky.demo/src-gen-st/room/basic/service/timing\ATimingService.c **** 		}
 129:C:/data/workspaces/github/de.protos.demos/src/XMC2GoBlinky/etrice.XMC2GoBlinky.demo/src-gen-st/room/basic/service/timing\ATimingService.c **** }
 515              		.loc 1 129 0
 516 008a BD46     		mov	sp, r7
 517 008c 08B0     		add	sp, sp, #32
 518              		@ sp needed for prologue
 519 008e 80BD     		pop	{r7, pc}
 520              	.L27:
 521              		.align	2
 522              	.L26:
 523 0090 40420F00 		.word	1000000
 524              		.cfi_endproc
 525              	.LFE6:
 527              		.section	.text.action_TRANS_tr4_FROM_Operational_TO_Operational_BY_killtimer_tr4,"ax",%progbits
 528              		.align	2
 529              		.code	16
 530              		.thumb_func
 532              	action_TRANS_tr4_FROM_Operational_TO_Operational_BY_killtimer_tr4:
 533              	.LFB7:
 130:C:/data/workspaces/github/de.protos.demos/src/XMC2GoBlinky/etrice.XMC2GoBlinky.demo/src-gen-st/room/basic/service/timing\ATimingService.c **** static void action_TRANS_tr4_FROM_Operational_TO_Operational_BY_killtimer_tr4(ATimingService* self,
 534              		.loc 1 130 0
 535              		.cfi_startproc
 536 0000 80B5     		push	{r7, lr}
 537              	.LCFI21:
 538              		.cfi_def_cfa_offset 8
 539              		.cfi_offset 7, -8
 540              		.cfi_offset 14, -4
 541 0002 82B0     		sub	sp, sp, #8
 542              	.LCFI22:
 543              		.cfi_def_cfa_offset 16
 544 0004 00AF     		add	r7, sp, #0
 545              	.LCFI23:
 546              		.cfi_def_cfa_register 7
 547 0006 7860     		str	r0, [r7, #4]
 548 0008 3960     		str	r1, [r7]
 131:C:/data/workspaces/github/de.protos.demos/src/XMC2GoBlinky/etrice.XMC2GoBlinky.demo/src-gen-st/room/basic/service/timing\ATimingService.c **** 	removeTcbFromUsedList(((etReplSubPort*)ifitem)->index);
 549              		.loc 1 131 0
 550 000a 3B68     		ldr	r3, [r7]
 551 000c 1B7B     		ldrb	r3, [r3, #12]
 552 000e 7A68     		ldr	r2, [r7, #4]
 553 0010 101C     		mov	r0, r2
 554 0012 191C     		mov	r1, r3
 555 0014 FFF7FEFF 		bl	ATimingService_removeTcbFromUsedList
 132:C:/data/workspaces/github/de.protos.demos/src/XMC2GoBlinky/etrice.XMC2GoBlinky.demo/src-gen-st/room/basic/service/timing\ATimingService.c **** }
 556              		.loc 1 132 0
 557 0018 BD46     		mov	sp, r7
 558 001a 02B0     		add	sp, sp, #8
 559              		@ sp needed for prologue
 560 001c 80BD     		pop	{r7, pc}
 561              		.cfi_endproc
 562              	.LFE7:
 564 001e C046     		.section	.text.exitTo,"ax",%progbits
 565              		.align	2
 566              		.code	16
 567              		.thumb_func
 569              	exitTo:
 570              	.LFB8:
 133:C:/data/workspaces/github/de.protos.demos/src/XMC2GoBlinky/etrice.XMC2GoBlinky.demo/src-gen-st/room/basic/service/timing\ATimingService.c **** 
 134:C:/data/workspaces/github/de.protos.demos/src/XMC2GoBlinky/etrice.XMC2GoBlinky.demo/src-gen-st/room/basic/service/timing\ATimingService.c **** /**
 135:C:/data/workspaces/github/de.protos.demos/src/XMC2GoBlinky/etrice.XMC2GoBlinky.demo/src-gen-st/room/basic/service/timing\ATimingService.c ****  * calls exit codes while exiting from the current state to one of its
 136:C:/data/workspaces/github/de.protos.demos/src/XMC2GoBlinky/etrice.XMC2GoBlinky.demo/src-gen-st/room/basic/service/timing\ATimingService.c ****  * parent states while remembering the history
 137:C:/data/workspaces/github/de.protos.demos/src/XMC2GoBlinky/etrice.XMC2GoBlinky.demo/src-gen-st/room/basic/service/timing\ATimingService.c ****  * @param current__et - the current state
 138:C:/data/workspaces/github/de.protos.demos/src/XMC2GoBlinky/etrice.XMC2GoBlinky.demo/src-gen-st/room/basic/service/timing\ATimingService.c ****  * @param to - the final parent state
 139:C:/data/workspaces/github/de.protos.demos/src/XMC2GoBlinky/etrice.XMC2GoBlinky.demo/src-gen-st/room/basic/service/timing\ATimingService.c ****  */
 140:C:/data/workspaces/github/de.protos.demos/src/XMC2GoBlinky/etrice.XMC2GoBlinky.demo/src-gen-st/room/basic/service/timing\ATimingService.c **** static void exitTo(ATimingService* self, etInt16 current__et, etInt16 to) {
 571              		.loc 1 140 0
 572              		.cfi_startproc
 573 0000 80B5     		push	{r7, lr}
 574              	.LCFI24:
 575              		.cfi_def_cfa_offset 8
 576              		.cfi_offset 7, -8
 577              		.cfi_offset 14, -4
 578 0002 82B0     		sub	sp, sp, #8
 579              	.LCFI25:
 580              		.cfi_def_cfa_offset 16
 581 0004 00AF     		add	r7, sp, #0
 582              	.LCFI26:
 583              		.cfi_def_cfa_register 7
 584 0006 7860     		str	r0, [r7, #4]
 585 0008 BB1C     		add	r3, r7, #2
 586 000a 1980     		strh	r1, [r3]
 587 000c 3B1C     		mov	r3, r7
 588 000e 1A80     		strh	r2, [r3]
 141:C:/data/workspaces/github/de.protos.demos/src/XMC2GoBlinky/etrice.XMC2GoBlinky.demo/src-gen-st/room/basic/service/timing\ATimingService.c **** 	while (current__et!=to) {
 589              		.loc 1 141 0
 590 0010 10E0     		b	.L30
 591              	.L33:
 142:C:/data/workspaces/github/de.protos.demos/src/XMC2GoBlinky/etrice.XMC2GoBlinky.demo/src-gen-st/room/basic/service/timing\ATimingService.c **** 		switch (current__et) {
 592              		.loc 1 142 0
 593 0012 BB1C     		add	r3, r7, #2
 594 0014 0021     		mov	r1, #0
 595 0016 5B5E     		ldrsh	r3, [r3, r1]
 596 0018 022B     		cmp	r3, #2
 597 001a 06D1     		bne	.L34
 598              	.L32:
 143:C:/data/workspaces/github/de.protos.demos/src/XMC2GoBlinky/etrice.XMC2GoBlinky.demo/src-gen-st/room/basic/service/timing\ATimingService.c **** 			case STATE_Operational:
 144:C:/data/workspaces/github/de.protos.demos/src/XMC2GoBlinky/etrice.XMC2GoBlinky.demo/src-gen-st/room/basic/service/timing\ATimingService.c **** 				self->history[STATE_TOP] = STATE_Operational;
 599              		.loc 1 144 0
 600 001c 7B68     		ldr	r3, [r7, #4]
 601 001e 0222     		mov	r2, #2
 602 0020 1A81     		strh	r2, [r3, #8]
 145:C:/data/workspaces/github/de.protos.demos/src/XMC2GoBlinky/etrice.XMC2GoBlinky.demo/src-gen-st/room/basic/service/timing\ATimingService.c **** 				current__et = STATE_TOP;
 603              		.loc 1 145 0
 604 0022 BB1C     		add	r3, r7, #2
 605 0024 0122     		mov	r2, #1
 606 0026 1A80     		strh	r2, [r3]
 146:C:/data/workspaces/github/de.protos.demos/src/XMC2GoBlinky/etrice.XMC2GoBlinky.demo/src-gen-st/room/basic/service/timing\ATimingService.c **** 				break;
 607              		.loc 1 146 0
 608 0028 04E0     		b	.L30
 609              	.L34:
 610 002a BB1C     		add	r3, r7, #2
 611 002c BA1C     		add	r2, r7, #2
 612 002e 1288     		ldrh	r2, [r2]
 613 0030 1A80     		strh	r2, [r3]
 147:C:/data/workspaces/github/de.protos.demos/src/XMC2GoBlinky/etrice.XMC2GoBlinky.demo/src-gen-st/room/basic/service/timing\ATimingService.c **** 			default:
 148:C:/data/workspaces/github/de.protos.demos/src/XMC2GoBlinky/etrice.XMC2GoBlinky.demo/src-gen-st/room/basic/service/timing\ATimingService.c **** 				/* should not occur */
 149:C:/data/workspaces/github/de.protos.demos/src/XMC2GoBlinky/etrice.XMC2GoBlinky.demo/src-gen-st/room/basic/service/timing\ATimingService.c **** 				break;
 614              		.loc 1 149 0
 615 0032 C046     		mov	r8, r8
 616              	.L30:
 141:C:/data/workspaces/github/de.protos.demos/src/XMC2GoBlinky/etrice.XMC2GoBlinky.demo/src-gen-st/room/basic/service/timing\ATimingService.c **** 	while (current__et!=to) {
 617              		.loc 1 141 0 discriminator 1
 618 0034 BA1C     		add	r2, r7, #2
 619 0036 3B1C     		mov	r3, r7
 620 0038 0021     		mov	r1, #0
 621 003a 525E     		ldrsh	r2, [r2, r1]
 622 003c 0021     		mov	r1, #0
 623 003e 5B5E     		ldrsh	r3, [r3, r1]
 624 0040 9A42     		cmp	r2, r3
 625 0042 E6D1     		bne	.L33
 150:C:/data/workspaces/github/de.protos.demos/src/XMC2GoBlinky/etrice.XMC2GoBlinky.demo/src-gen-st/room/basic/service/timing\ATimingService.c **** 		}
 151:C:/data/workspaces/github/de.protos.demos/src/XMC2GoBlinky/etrice.XMC2GoBlinky.demo/src-gen-st/room/basic/service/timing\ATimingService.c **** 	}
 152:C:/data/workspaces/github/de.protos.demos/src/XMC2GoBlinky/etrice.XMC2GoBlinky.demo/src-gen-st/room/basic/service/timing\ATimingService.c **** }
 626              		.loc 1 152 0
 627 0044 BD46     		mov	sp, r7
 628 0046 02B0     		add	sp, sp, #8
 629              		@ sp needed for prologue
 630 0048 80BD     		pop	{r7, pc}
 631              		.cfi_endproc
 632              	.LFE8:
 634 004a C046     		.section	.text.executeTransitionChain,"ax",%progbits
 635              		.align	2
 636              		.code	16
 637              		.thumb_func
 639              	executeTransitionChain:
 640              	.LFB9:
 153:C:/data/workspaces/github/de.protos.demos/src/XMC2GoBlinky/etrice.XMC2GoBlinky.demo/src-gen-st/room/basic/service/timing\ATimingService.c **** 
 154:C:/data/workspaces/github/de.protos.demos/src/XMC2GoBlinky/etrice.XMC2GoBlinky.demo/src-gen-st/room/basic/service/timing\ATimingService.c **** /**
 155:C:/data/workspaces/github/de.protos.demos/src/XMC2GoBlinky/etrice.XMC2GoBlinky.demo/src-gen-st/room/basic/service/timing\ATimingService.c ****  * calls action, entry and exit codes along a transition chain. The generic data are cast to typed 
 156:C:/data/workspaces/github/de.protos.demos/src/XMC2GoBlinky/etrice.XMC2GoBlinky.demo/src-gen-st/room/basic/service/timing\ATimingService.c ****  * matching the trigger of this chain. The ID of the final state is returned
 157:C:/data/workspaces/github/de.protos.demos/src/XMC2GoBlinky/etrice.XMC2GoBlinky.demo/src-gen-st/room/basic/service/timing\ATimingService.c ****  * @param chain__et - the chain ID
 158:C:/data/workspaces/github/de.protos.demos/src/XMC2GoBlinky/etrice.XMC2GoBlinky.demo/src-gen-st/room/basic/service/timing\ATimingService.c ****  * @param generic_data__et - the generic data pointer
 159:C:/data/workspaces/github/de.protos.demos/src/XMC2GoBlinky/etrice.XMC2GoBlinky.demo/src-gen-st/room/basic/service/timing\ATimingService.c ****  * @return the +/- ID of the final state either with a positive sign, that indicates to execute the
 160:C:/data/workspaces/github/de.protos.demos/src/XMC2GoBlinky/etrice.XMC2GoBlinky.demo/src-gen-st/room/basic/service/timing\ATimingService.c ****  */
 161:C:/data/workspaces/github/de.protos.demos/src/XMC2GoBlinky/etrice.XMC2GoBlinky.demo/src-gen-st/room/basic/service/timing\ATimingService.c **** static etInt16 executeTransitionChain(ATimingService* self, int chain__et, const InterfaceItemBase*
 641              		.loc 1 161 0
 642              		.cfi_startproc
 643 0000 80B5     		push	{r7, lr}
 644              	.LCFI27:
 645              		.cfi_def_cfa_offset 8
 646              		.cfi_offset 7, -8
 647              		.cfi_offset 14, -4
 648 0002 86B0     		sub	sp, sp, #24
 649              	.LCFI28:
 650              		.cfi_def_cfa_offset 32
 651 0004 00AF     		add	r7, sp, #0
 652              	.LCFI29:
 653              		.cfi_def_cfa_register 7
 654 0006 F860     		str	r0, [r7, #12]
 655 0008 B960     		str	r1, [r7, #8]
 656 000a 7A60     		str	r2, [r7, #4]
 657 000c 3B60     		str	r3, [r7]
 162:C:/data/workspaces/github/de.protos.demos/src/XMC2GoBlinky/etrice.XMC2GoBlinky.demo/src-gen-st/room/basic/service/timing\ATimingService.c **** 	switch (chain__et) {
 658              		.loc 1 162 0
 659 000e BB68     		ldr	r3, [r7, #8]
 660 0010 022B     		cmp	r3, #2
 661 0012 0ED0     		beq	.L38
 662 0014 02DC     		bgt	.L41
 663 0016 012B     		cmp	r3, #1
 664 0018 05D0     		beq	.L37
 665 001a 2CE0     		b	.L36
 666              	.L41:
 667 001c 032B     		cmp	r3, #3
 668 001e 15D0     		beq	.L39
 669 0020 042B     		cmp	r3, #4
 670 0022 20D0     		beq	.L40
 671 0024 27E0     		b	.L36
 672              	.L37:
 163:C:/data/workspaces/github/de.protos.demos/src/XMC2GoBlinky/etrice.XMC2GoBlinky.demo/src-gen-st/room/basic/service/timing\ATimingService.c **** 		case CHAIN_TRANS_INITIAL_TO__Operational:
 164:C:/data/workspaces/github/de.protos.demos/src/XMC2GoBlinky/etrice.XMC2GoBlinky.demo/src-gen-st/room/basic/service/timing\ATimingService.c **** 		{
 165:C:/data/workspaces/github/de.protos.demos/src/XMC2GoBlinky/etrice.XMC2GoBlinky.demo/src-gen-st/room/basic/service/timing\ATimingService.c **** 			action_TRANS_INITIAL_TO__Operational(self);
 673              		.loc 1 165 0
 674 0026 FB68     		ldr	r3, [r7, #12]
 675 0028 181C     		mov	r0, r3
 676 002a FFF7FEFF 		bl	action_TRANS_INITIAL_TO__Operational
 166:C:/data/workspaces/github/de.protos.demos/src/XMC2GoBlinky/etrice.XMC2GoBlinky.demo/src-gen-st/room/basic/service/timing\ATimingService.c **** 			return STATE_Operational;
 677              		.loc 1 166 0
 678 002e 0223     		mov	r3, #2
 679 0030 23E0     		b	.L42
 680              	.L38:
 681              	.LBB2:
 167:C:/data/workspaces/github/de.protos.demos/src/XMC2GoBlinky/etrice.XMC2GoBlinky.demo/src-gen-st/room/basic/service/timing\ATimingService.c **** 		}
 168:C:/data/workspaces/github/de.protos.demos/src/XMC2GoBlinky/etrice.XMC2GoBlinky.demo/src-gen-st/room/basic/service/timing\ATimingService.c **** 		case CHAIN_TRANS_tr1_FROM_Operational_TO_Operational_BY_startTimeouttimer_tr1:
 169:C:/data/workspaces/github/de.protos.demos/src/XMC2GoBlinky/etrice.XMC2GoBlinky.demo/src-gen-st/room/basic/service/timing\ATimingService.c **** 		{
 170:C:/data/workspaces/github/de.protos.demos/src/XMC2GoBlinky/etrice.XMC2GoBlinky.demo/src-gen-st/room/basic/service/timing\ATimingService.c **** 			uint32 time = *((uint32*) generic_data__et);
 682              		.loc 1 170 0
 683 0032 3B68     		ldr	r3, [r7]
 684 0034 1B68     		ldr	r3, [r3]
 685 0036 7B61     		str	r3, [r7, #20]
 171:C:/data/workspaces/github/de.protos.demos/src/XMC2GoBlinky/etrice.XMC2GoBlinky.demo/src-gen-st/room/basic/service/timing\ATimingService.c **** 			action_TRANS_tr1_FROM_Operational_TO_Operational_BY_startTimeouttimer_tr1(self, ifitem, time);
 686              		.loc 1 171 0
 687 0038 F968     		ldr	r1, [r7, #12]
 688 003a 7A68     		ldr	r2, [r7, #4]
 689 003c 7B69     		ldr	r3, [r7, #20]
 690 003e 081C     		mov	r0, r1
 691 0040 111C     		mov	r1, r2
 692 0042 1A1C     		mov	r2, r3
 693 0044 FFF7FEFF 		bl	action_TRANS_tr1_FROM_Operational_TO_Operational_BY_startTimeouttimer_tr1
 172:C:/data/workspaces/github/de.protos.demos/src/XMC2GoBlinky/etrice.XMC2GoBlinky.demo/src-gen-st/room/basic/service/timing\ATimingService.c **** 			return STATE_Operational;
 694              		.loc 1 172 0
 695 0048 0223     		mov	r3, #2
 696 004a 16E0     		b	.L42
 697              	.L39:
 698              	.LBE2:
 699              	.LBB3:
 173:C:/data/workspaces/github/de.protos.demos/src/XMC2GoBlinky/etrice.XMC2GoBlinky.demo/src-gen-st/room/basic/service/timing\ATimingService.c **** 		}
 174:C:/data/workspaces/github/de.protos.demos/src/XMC2GoBlinky/etrice.XMC2GoBlinky.demo/src-gen-st/room/basic/service/timing\ATimingService.c **** 		case CHAIN_TRANS_tr3_FROM_Operational_TO_Operational_BY_startTimertimer_tr3:
 175:C:/data/workspaces/github/de.protos.demos/src/XMC2GoBlinky/etrice.XMC2GoBlinky.demo/src-gen-st/room/basic/service/timing\ATimingService.c **** 		{
 176:C:/data/workspaces/github/de.protos.demos/src/XMC2GoBlinky/etrice.XMC2GoBlinky.demo/src-gen-st/room/basic/service/timing\ATimingService.c **** 			uint32 time = *((uint32*) generic_data__et);
 700              		.loc 1 176 0
 701 004c 3B68     		ldr	r3, [r7]
 702 004e 1B68     		ldr	r3, [r3]
 703 0050 3B61     		str	r3, [r7, #16]
 177:C:/data/workspaces/github/de.protos.demos/src/XMC2GoBlinky/etrice.XMC2GoBlinky.demo/src-gen-st/room/basic/service/timing\ATimingService.c **** 			action_TRANS_tr3_FROM_Operational_TO_Operational_BY_startTimertimer_tr3(self, ifitem, time);
 704              		.loc 1 177 0
 705 0052 F968     		ldr	r1, [r7, #12]
 706 0054 7A68     		ldr	r2, [r7, #4]
 707 0056 3B69     		ldr	r3, [r7, #16]
 708 0058 081C     		mov	r0, r1
 709 005a 111C     		mov	r1, r2
 710 005c 1A1C     		mov	r2, r3
 711 005e FFF7FEFF 		bl	action_TRANS_tr3_FROM_Operational_TO_Operational_BY_startTimertimer_tr3
 178:C:/data/workspaces/github/de.protos.demos/src/XMC2GoBlinky/etrice.XMC2GoBlinky.demo/src-gen-st/room/basic/service/timing\ATimingService.c **** 			return STATE_Operational;
 712              		.loc 1 178 0
 713 0062 0223     		mov	r3, #2
 714 0064 09E0     		b	.L42
 715              	.L40:
 716              	.LBE3:
 179:C:/data/workspaces/github/de.protos.demos/src/XMC2GoBlinky/etrice.XMC2GoBlinky.demo/src-gen-st/room/basic/service/timing\ATimingService.c **** 		}
 180:C:/data/workspaces/github/de.protos.demos/src/XMC2GoBlinky/etrice.XMC2GoBlinky.demo/src-gen-st/room/basic/service/timing\ATimingService.c **** 		case CHAIN_TRANS_tr4_FROM_Operational_TO_Operational_BY_killtimer_tr4:
 181:C:/data/workspaces/github/de.protos.demos/src/XMC2GoBlinky/etrice.XMC2GoBlinky.demo/src-gen-st/room/basic/service/timing\ATimingService.c **** 		{
 182:C:/data/workspaces/github/de.protos.demos/src/XMC2GoBlinky/etrice.XMC2GoBlinky.demo/src-gen-st/room/basic/service/timing\ATimingService.c **** 			action_TRANS_tr4_FROM_Operational_TO_Operational_BY_killtimer_tr4(self, ifitem);
 717              		.loc 1 182 0
 718 0066 FA68     		ldr	r2, [r7, #12]
 719 0068 7B68     		ldr	r3, [r7, #4]
 720 006a 101C     		mov	r0, r2
 721 006c 191C     		mov	r1, r3
 722 006e FFF7FEFF 		bl	action_TRANS_tr4_FROM_Operational_TO_Operational_BY_killtimer_tr4
 183:C:/data/workspaces/github/de.protos.demos/src/XMC2GoBlinky/etrice.XMC2GoBlinky.demo/src-gen-st/room/basic/service/timing\ATimingService.c **** 			return STATE_Operational;
 723              		.loc 1 183 0
 724 0072 0223     		mov	r3, #2
 725 0074 01E0     		b	.L42
 726              	.L36:
 184:C:/data/workspaces/github/de.protos.demos/src/XMC2GoBlinky/etrice.XMC2GoBlinky.demo/src-gen-st/room/basic/service/timing\ATimingService.c **** 		}
 185:C:/data/workspaces/github/de.protos.demos/src/XMC2GoBlinky/etrice.XMC2GoBlinky.demo/src-gen-st/room/basic/service/timing\ATimingService.c **** 			default:
 186:C:/data/workspaces/github/de.protos.demos/src/XMC2GoBlinky/etrice.XMC2GoBlinky.demo/src-gen-st/room/basic/service/timing\ATimingService.c **** 				/* should not occur */
 187:C:/data/workspaces/github/de.protos.demos/src/XMC2GoBlinky/etrice.XMC2GoBlinky.demo/src-gen-st/room/basic/service/timing\ATimingService.c **** 				break;
 727              		.loc 1 187 0
 728 0076 C046     		mov	r8, r8
 188:C:/data/workspaces/github/de.protos.demos/src/XMC2GoBlinky/etrice.XMC2GoBlinky.demo/src-gen-st/room/basic/service/timing\ATimingService.c **** 	}
 189:C:/data/workspaces/github/de.protos.demos/src/XMC2GoBlinky/etrice.XMC2GoBlinky.demo/src-gen-st/room/basic/service/timing\ATimingService.c **** 	return NO_STATE;
 729              		.loc 1 189 0
 730 0078 0023     		mov	r3, #0
 731              	.L42:
 732 007a 1BB2     		sxth	r3, r3
 190:C:/data/workspaces/github/de.protos.demos/src/XMC2GoBlinky/etrice.XMC2GoBlinky.demo/src-gen-st/room/basic/service/timing\ATimingService.c **** }
 733              		.loc 1 190 0
 734 007c 181C     		mov	r0, r3
 735 007e BD46     		mov	sp, r7
 736 0080 06B0     		add	sp, sp, #24
 737              		@ sp needed for prologue
 738 0082 80BD     		pop	{r7, pc}
 739              		.cfi_endproc
 740              	.LFE9:
 742              		.section	.text.enterHistory,"ax",%progbits
 743              		.align	2
 744              		.code	16
 745              		.thumb_func
 747              	enterHistory:
 748              	.LFB10:
 191:C:/data/workspaces/github/de.protos.demos/src/XMC2GoBlinky/etrice.XMC2GoBlinky.demo/src-gen-st/room/basic/service/timing\ATimingService.c **** 
 192:C:/data/workspaces/github/de.protos.demos/src/XMC2GoBlinky/etrice.XMC2GoBlinky.demo/src-gen-st/room/basic/service/timing\ATimingService.c **** /**
 193:C:/data/workspaces/github/de.protos.demos/src/XMC2GoBlinky/etrice.XMC2GoBlinky.demo/src-gen-st/room/basic/service/timing\ATimingService.c ****  * calls entry codes while entering a state's history. The ID of the final leaf state is returned
 194:C:/data/workspaces/github/de.protos.demos/src/XMC2GoBlinky/etrice.XMC2GoBlinky.demo/src-gen-st/room/basic/service/timing\ATimingService.c ****  * @param state__et - the state which is entered
 195:C:/data/workspaces/github/de.protos.demos/src/XMC2GoBlinky/etrice.XMC2GoBlinky.demo/src-gen-st/room/basic/service/timing\ATimingService.c ****  * @return - the ID of the final leaf state
 196:C:/data/workspaces/github/de.protos.demos/src/XMC2GoBlinky/etrice.XMC2GoBlinky.demo/src-gen-st/room/basic/service/timing\ATimingService.c ****  */
 197:C:/data/workspaces/github/de.protos.demos/src/XMC2GoBlinky/etrice.XMC2GoBlinky.demo/src-gen-st/room/basic/service/timing\ATimingService.c **** static etInt16 enterHistory(ATimingService* self, etInt16 state__et) {
 749              		.loc 1 197 0
 750              		.cfi_startproc
 751 0000 80B5     		push	{r7, lr}
 752              	.LCFI30:
 753              		.cfi_def_cfa_offset 8
 754              		.cfi_offset 7, -8
 755              		.cfi_offset 14, -4
 756 0002 84B0     		sub	sp, sp, #16
 757              	.LCFI31:
 758              		.cfi_def_cfa_offset 24
 759 0004 00AF     		add	r7, sp, #0
 760              	.LCFI32:
 761              		.cfi_def_cfa_register 7
 762 0006 7860     		str	r0, [r7, #4]
 763 0008 0A1C     		mov	r2, r1
 764 000a BB1C     		add	r3, r7, #2
 765 000c 1A80     		strh	r2, [r3]
 198:C:/data/workspaces/github/de.protos.demos/src/XMC2GoBlinky/etrice.XMC2GoBlinky.demo/src-gen-st/room/basic/service/timing\ATimingService.c **** 	boolean skip_entry__et = ET_FALSE;
 766              		.loc 1 198 0
 767 000e 3B1C     		mov	r3, r7
 768 0010 0F33     		add	r3, r3, #15
 769 0012 0022     		mov	r2, #0
 770 0014 1A70     		strb	r2, [r3]
 199:C:/data/workspaces/github/de.protos.demos/src/XMC2GoBlinky/etrice.XMC2GoBlinky.demo/src-gen-st/room/basic/service/timing\ATimingService.c **** 	if (state__et >= STATE_MAX) {
 771              		.loc 1 199 0
 772 0016 BB1C     		add	r3, r7, #2
 773 0018 0022     		mov	r2, #0
 774 001a 9B5E     		ldrsh	r3, [r3, r2]
 775 001c 022B     		cmp	r3, #2
 776 001e 09DD     		ble	.L44
 200:C:/data/workspaces/github/de.protos.demos/src/XMC2GoBlinky/etrice.XMC2GoBlinky.demo/src-gen-st/room/basic/service/timing\ATimingService.c **** 		state__et = (etInt16) (state__et - STATE_MAX);
 777              		.loc 1 200 0
 778 0020 BB1C     		add	r3, r7, #2
 779 0022 1B88     		ldrh	r3, [r3]
 780 0024 033B     		sub	r3, r3, #3
 781 0026 9AB2     		uxth	r2, r3
 782 0028 BB1C     		add	r3, r7, #2
 783 002a 1A80     		strh	r2, [r3]
 201:C:/data/workspaces/github/de.protos.demos/src/XMC2GoBlinky/etrice.XMC2GoBlinky.demo/src-gen-st/room/basic/service/timing\ATimingService.c **** 		skip_entry__et = ET_TRUE;
 784              		.loc 1 201 0
 785 002c 3B1C     		mov	r3, r7
 786 002e 0F33     		add	r3, r3, #15
 787 0030 0122     		mov	r2, #1
 788 0032 1A70     		strb	r2, [r3]
 789              	.L44:
 202:C:/data/workspaces/github/de.protos.demos/src/XMC2GoBlinky/etrice.XMC2GoBlinky.demo/src-gen-st/room/basic/service/timing\ATimingService.c **** 	}
 203:C:/data/workspaces/github/de.protos.demos/src/XMC2GoBlinky/etrice.XMC2GoBlinky.demo/src-gen-st/room/basic/service/timing\ATimingService.c **** 	while (ET_TRUE) {
 204:C:/data/workspaces/github/de.protos.demos/src/XMC2GoBlinky/etrice.XMC2GoBlinky.demo/src-gen-st/room/basic/service/timing\ATimingService.c **** 		switch (state__et) {
 790              		.loc 1 204 0
 791 0034 BB1C     		add	r3, r7, #2
 792 0036 0022     		mov	r2, #0
 793 0038 9B5E     		ldrsh	r3, [r3, r2]
 794 003a 012B     		cmp	r3, #1
 795 003c 0DD0     		beq	.L46
 796 003e 022B     		cmp	r3, #2
 797 0040 10D1     		bne	.L51
 798              	.L47:
 205:C:/data/workspaces/github/de.protos.demos/src/XMC2GoBlinky/etrice.XMC2GoBlinky.demo/src-gen-st/room/basic/service/timing\ATimingService.c **** 			case STATE_Operational:
 206:C:/data/workspaces/github/de.protos.demos/src/XMC2GoBlinky/etrice.XMC2GoBlinky.demo/src-gen-st/room/basic/service/timing\ATimingService.c **** 				if (!(skip_entry__et)) entry_Operational(self);
 799              		.loc 1 206 0
 800 0042 3B1C     		mov	r3, r7
 801 0044 0F33     		add	r3, r3, #15
 802 0046 1B78     		ldrb	r3, [r3]
 803 0048 002B     		cmp	r3, #0
 804 004a 03D1     		bne	.L48
 805              		.loc 1 206 0 is_stmt 0 discriminator 1
 806 004c 7B68     		ldr	r3, [r7, #4]
 807 004e 181C     		mov	r0, r3
 808 0050 FFF7FEFF 		bl	entry_Operational
 809              	.L48:
 207:C:/data/workspaces/github/de.protos.demos/src/XMC2GoBlinky/etrice.XMC2GoBlinky.demo/src-gen-st/room/basic/service/timing\ATimingService.c **** 				/* in leaf state: return state id */
 208:C:/data/workspaces/github/de.protos.demos/src/XMC2GoBlinky/etrice.XMC2GoBlinky.demo/src-gen-st/room/basic/service/timing\ATimingService.c **** 				return STATE_Operational;
 810              		.loc 1 208 0 is_stmt 1
 811 0054 0223     		mov	r3, #2
 812 0056 1BB2     		sxth	r3, r3
 813 0058 0AE0     		b	.L52
 814              	.L46:
 209:C:/data/workspaces/github/de.protos.demos/src/XMC2GoBlinky/etrice.XMC2GoBlinky.demo/src-gen-st/room/basic/service/timing\ATimingService.c **** 			case STATE_TOP:
 210:C:/data/workspaces/github/de.protos.demos/src/XMC2GoBlinky/etrice.XMC2GoBlinky.demo/src-gen-st/room/basic/service/timing\ATimingService.c **** 				state__et = self->history[STATE_TOP];
 815              		.loc 1 210 0
 816 005a BB1C     		add	r3, r7, #2
 817 005c 7A68     		ldr	r2, [r7, #4]
 818 005e 1289     		ldrh	r2, [r2, #8]
 819 0060 1A80     		strh	r2, [r3]
 211:C:/data/workspaces/github/de.protos.demos/src/XMC2GoBlinky/etrice.XMC2GoBlinky.demo/src-gen-st/room/basic/service/timing\ATimingService.c **** 				break;
 820              		.loc 1 211 0
 821 0062 00E0     		b	.L50
 822              	.L51:
 212:C:/data/workspaces/github/de.protos.demos/src/XMC2GoBlinky/etrice.XMC2GoBlinky.demo/src-gen-st/room/basic/service/timing\ATimingService.c **** 			default:
 213:C:/data/workspaces/github/de.protos.demos/src/XMC2GoBlinky/etrice.XMC2GoBlinky.demo/src-gen-st/room/basic/service/timing\ATimingService.c **** 				/* should not occur */
 214:C:/data/workspaces/github/de.protos.demos/src/XMC2GoBlinky/etrice.XMC2GoBlinky.demo/src-gen-st/room/basic/service/timing\ATimingService.c **** 				break;
 823              		.loc 1 214 0
 824 0064 C046     		mov	r8, r8
 825              	.L50:
 215:C:/data/workspaces/github/de.protos.demos/src/XMC2GoBlinky/etrice.XMC2GoBlinky.demo/src-gen-st/room/basic/service/timing\ATimingService.c **** 		}
 216:C:/data/workspaces/github/de.protos.demos/src/XMC2GoBlinky/etrice.XMC2GoBlinky.demo/src-gen-st/room/basic/service/timing\ATimingService.c **** 		skip_entry__et = ET_FALSE;
 826              		.loc 1 216 0
 827 0066 3B1C     		mov	r3, r7
 828 0068 0F33     		add	r3, r3, #15
 829 006a 0022     		mov	r2, #0
 830 006c 1A70     		strb	r2, [r3]
 217:C:/data/workspaces/github/de.protos.demos/src/XMC2GoBlinky/etrice.XMC2GoBlinky.demo/src-gen-st/room/basic/service/timing\ATimingService.c **** 	}
 831              		.loc 1 217 0
 832 006e E1E7     		b	.L44
 833              	.L52:
 218:C:/data/workspaces/github/de.protos.demos/src/XMC2GoBlinky/etrice.XMC2GoBlinky.demo/src-gen-st/room/basic/service/timing\ATimingService.c **** 	/* return NO_STATE; // required by CDT but detected as unreachable by JDT because of while (true) 
 219:C:/data/workspaces/github/de.protos.demos/src/XMC2GoBlinky/etrice.XMC2GoBlinky.demo/src-gen-st/room/basic/service/timing\ATimingService.c **** }
 834              		.loc 1 219 0
 835 0070 181C     		mov	r0, r3
 836 0072 BD46     		mov	sp, r7
 837 0074 04B0     		add	sp, sp, #16
 838              		@ sp needed for prologue
 839 0076 80BD     		pop	{r7, pc}
 840              		.cfi_endproc
 841              	.LFE10:
 843              		.section	.text.ATimingService_executeInitTransition,"ax",%progbits
 844              		.align	2
 845              		.code	16
 846              		.thumb_func
 848              	ATimingService_executeInitTransition:
 849              	.LFB11:
 220:C:/data/workspaces/github/de.protos.demos/src/XMC2GoBlinky/etrice.XMC2GoBlinky.demo/src-gen-st/room/basic/service/timing\ATimingService.c **** 
 221:C:/data/workspaces/github/de.protos.demos/src/XMC2GoBlinky/etrice.XMC2GoBlinky.demo/src-gen-st/room/basic/service/timing\ATimingService.c **** static void ATimingService_executeInitTransition(ATimingService* self) {
 850              		.loc 1 221 0
 851              		.cfi_startproc
 852 0000 90B5     		push	{r4, r7, lr}
 853              	.LCFI33:
 854              		.cfi_def_cfa_offset 12
 855              		.cfi_offset 4, -12
 856              		.cfi_offset 7, -8
 857              		.cfi_offset 14, -4
 858 0002 85B0     		sub	sp, sp, #20
 859              	.LCFI34:
 860              		.cfi_def_cfa_offset 32
 861 0004 00AF     		add	r7, sp, #0
 862              	.LCFI35:
 863              		.cfi_def_cfa_register 7
 864 0006 7860     		str	r0, [r7, #4]
 222:C:/data/workspaces/github/de.protos.demos/src/XMC2GoBlinky/etrice.XMC2GoBlinky.demo/src-gen-st/room/basic/service/timing\ATimingService.c **** 	int chain__et = CHAIN_TRANS_INITIAL_TO__Operational;
 865              		.loc 1 222 0
 866 0008 0123     		mov	r3, #1
 867 000a FB60     		str	r3, [r7, #12]
 223:C:/data/workspaces/github/de.protos.demos/src/XMC2GoBlinky/etrice.XMC2GoBlinky.demo/src-gen-st/room/basic/service/timing\ATimingService.c **** 	etInt16 next__et = executeTransitionChain(self, chain__et, NULL, NULL);
 868              		.loc 1 223 0
 869 000c 3C1C     		mov	r4, r7
 870 000e 0A34     		add	r4, r4, #10
 871 0010 7A68     		ldr	r2, [r7, #4]
 872 0012 FB68     		ldr	r3, [r7, #12]
 873 0014 101C     		mov	r0, r2
 874 0016 191C     		mov	r1, r3
 875 0018 0022     		mov	r2, #0
 876 001a 0023     		mov	r3, #0
 877 001c FFF7FEFF 		bl	executeTransitionChain
 878 0020 031C     		mov	r3, r0
 879 0022 2380     		strh	r3, [r4]
 224:C:/data/workspaces/github/de.protos.demos/src/XMC2GoBlinky/etrice.XMC2GoBlinky.demo/src-gen-st/room/basic/service/timing\ATimingService.c **** 	next__et = enterHistory(self, next__et);
 880              		.loc 1 224 0
 881 0024 3C1C     		mov	r4, r7
 882 0026 0A34     		add	r4, r4, #10
 883 0028 7A68     		ldr	r2, [r7, #4]
 884 002a 3B1C     		mov	r3, r7
 885 002c 0A33     		add	r3, r3, #10
 886 002e 0021     		mov	r1, #0
 887 0030 5B5E     		ldrsh	r3, [r3, r1]
 888 0032 101C     		mov	r0, r2
 889 0034 191C     		mov	r1, r3
 890 0036 FFF7FEFF 		bl	enterHistory
 891 003a 031C     		mov	r3, r0
 892 003c 2380     		strh	r3, [r4]
 225:C:/data/workspaces/github/de.protos.demos/src/XMC2GoBlinky/etrice.XMC2GoBlinky.demo/src-gen-st/room/basic/service/timing\ATimingService.c **** 	setState(self, next__et);
 893              		.loc 1 225 0
 894 003e 7A68     		ldr	r2, [r7, #4]
 895 0040 3B1C     		mov	r3, r7
 896 0042 0A33     		add	r3, r3, #10
 897 0044 0021     		mov	r1, #0
 898 0046 5B5E     		ldrsh	r3, [r3, r1]
 899 0048 101C     		mov	r0, r2
 900 004a 191C     		mov	r1, r3
 901 004c FFF7FEFF 		bl	setState
 226:C:/data/workspaces/github/de.protos.demos/src/XMC2GoBlinky/etrice.XMC2GoBlinky.demo/src-gen-st/room/basic/service/timing\ATimingService.c **** }
 902              		.loc 1 226 0
 903 0050 BD46     		mov	sp, r7
 904 0052 05B0     		add	sp, sp, #20
 905              		@ sp needed for prologue
 906 0054 90BD     		pop	{r4, r7, pc}
 907              		.cfi_endproc
 908              	.LFE11:
 910 0056 C046     		.section	.text.ATimingService_receiveEvent,"ax",%progbits
 911              		.align	2
 912              		.code	16
 913              		.thumb_func
 915              	ATimingService_receiveEvent:
 916              	.LFB12:
 227:C:/data/workspaces/github/de.protos.demos/src/XMC2GoBlinky/etrice.XMC2GoBlinky.demo/src-gen-st/room/basic/service/timing\ATimingService.c **** 
 228:C:/data/workspaces/github/de.protos.demos/src/XMC2GoBlinky/etrice.XMC2GoBlinky.demo/src-gen-st/room/basic/service/timing\ATimingService.c **** /* receiveEvent contains the main implementation of the FSM */
 229:C:/data/workspaces/github/de.protos.demos/src/XMC2GoBlinky/etrice.XMC2GoBlinky.demo/src-gen-st/room/basic/service/timing\ATimingService.c **** static void ATimingService_receiveEvent(ATimingService* self, InterfaceItemBase* ifitem, int evt, v
 917              		.loc 1 229 0
 918              		.cfi_startproc
 919 0000 90B5     		push	{r4, r7, lr}
 920              	.LCFI36:
 921              		.cfi_def_cfa_offset 12
 922              		.cfi_offset 4, -12
 923              		.cfi_offset 7, -8
 924              		.cfi_offset 14, -4
 925 0002 89B0     		sub	sp, sp, #36
 926              	.LCFI37:
 927              		.cfi_def_cfa_offset 48
 928 0004 00AF     		add	r7, sp, #0
 929              	.LCFI38:
 930              		.cfi_def_cfa_register 7
 931 0006 F860     		str	r0, [r7, #12]
 932 0008 B960     		str	r1, [r7, #8]
 933 000a 7A60     		str	r2, [r7, #4]
 934 000c 3B60     		str	r3, [r7]
 230:C:/data/workspaces/github/de.protos.demos/src/XMC2GoBlinky/etrice.XMC2GoBlinky.demo/src-gen-st/room/basic/service/timing\ATimingService.c **** 	int trigger__et = (ifitem==NULL)? POLLING : ifitem->localId + EVT_SHIFT*evt;
 935              		.loc 1 230 0
 936 000e BB68     		ldr	r3, [r7, #8]
 937 0010 002B     		cmp	r3, #0
 938 0012 07D0     		beq	.L55
 939              		.loc 1 230 0 is_stmt 0 discriminator 1
 940 0014 BB68     		ldr	r3, [r7, #8]
 941 0016 5B7A     		ldrb	r3, [r3, #9]
 942 0018 1A1C     		mov	r2, r3
 943 001a 7B68     		ldr	r3, [r7, #4]
 944 001c 6421     		mov	r1, #100
 945 001e 4B43     		mul	r3, r1
 946 0020 D318     		add	r3, r2, r3
 947 0022 00E0     		b	.L56
 948              	.L55:
 949              		.loc 1 230 0 discriminator 2
 950 0024 0023     		mov	r3, #0
 951              	.L56:
 952              		.loc 1 230 0 discriminator 3
 953 0026 7B61     		str	r3, [r7, #20]
 231:C:/data/workspaces/github/de.protos.demos/src/XMC2GoBlinky/etrice.XMC2GoBlinky.demo/src-gen-st/room/basic/service/timing\ATimingService.c **** 	int chain__et = NOT_CAUGHT;
 954              		.loc 1 231 0 is_stmt 1 discriminator 3
 955 0028 0023     		mov	r3, #0
 956 002a FB61     		str	r3, [r7, #28]
 232:C:/data/workspaces/github/de.protos.demos/src/XMC2GoBlinky/etrice.XMC2GoBlinky.demo/src-gen-st/room/basic/service/timing\ATimingService.c **** 	etInt16 catching_state__et = NO_STATE;
 957              		.loc 1 232 0 discriminator 3
 958 002c 3B1C     		mov	r3, r7
 959 002e 1A33     		add	r3, r3, #26
 960 0030 0022     		mov	r2, #0
 961 0032 1A80     		strh	r2, [r3]
 233:C:/data/workspaces/github/de.protos.demos/src/XMC2GoBlinky/etrice.XMC2GoBlinky.demo/src-gen-st/room/basic/service/timing\ATimingService.c **** 	((void)trigger__et);	/* avoids unused warning */
 234:C:/data/workspaces/github/de.protos.demos/src/XMC2GoBlinky/etrice.XMC2GoBlinky.demo/src-gen-st/room/basic/service/timing\ATimingService.c **** 	
 235:C:/data/workspaces/github/de.protos.demos/src/XMC2GoBlinky/etrice.XMC2GoBlinky.demo/src-gen-st/room/basic/service/timing\ATimingService.c **** 	if (!handleSystemEvent(ifitem, evt, generic_data__et)) {
 962              		.loc 1 235 0 discriminator 3
 963 0034 B968     		ldr	r1, [r7, #8]
 964 0036 7A68     		ldr	r2, [r7, #4]
 965 0038 3B68     		ldr	r3, [r7]
 966 003a 081C     		mov	r0, r1
 967 003c 111C     		mov	r1, r2
 968 003e 1A1C     		mov	r2, r3
 969 0040 FFF7FEFF 		bl	handleSystemEvent
 970 0044 031C     		mov	r3, r0
 971 0046 002B     		cmp	r3, #0
 972 0048 31D1     		bne	.L57
 236:C:/data/workspaces/github/de.protos.demos/src/XMC2GoBlinky/etrice.XMC2GoBlinky.demo/src-gen-st/room/basic/service/timing\ATimingService.c **** 		switch (getState(self)) {
 973              		.loc 1 236 0
 974 004a FB68     		ldr	r3, [r7, #12]
 975 004c 181C     		mov	r0, r3
 976 004e FFF7FEFF 		bl	getState
 977 0052 031C     		mov	r3, r0
 978 0054 022B     		cmp	r3, #2
 979 0056 29D1     		bne	.L68
 980              	.L59:
 237:C:/data/workspaces/github/de.protos.demos/src/XMC2GoBlinky/etrice.XMC2GoBlinky.demo/src-gen-st/room/basic/service/timing\ATimingService.c **** 			case STATE_Operational:
 238:C:/data/workspaces/github/de.protos.demos/src/XMC2GoBlinky/etrice.XMC2GoBlinky.demo/src-gen-st/room/basic/service/timing\ATimingService.c **** 				switch(trigger__et) {
 981              		.loc 1 238 0
 982 0058 7B69     		ldr	r3, [r7, #20]
 983 005a C92B     		cmp	r3, #201
 984 005c 16D0     		beq	.L62
 985 005e 02DC     		bgt	.L65
 986 0060 002B     		cmp	r3, #0
 987 0062 07D0     		beq	.L61
 988 0064 20E0     		b	.L60
 989              	.L65:
 990 0066 2D4A     		ldr	r2, .L69
 991 0068 9342     		cmp	r3, r2
 992 006a 08D0     		beq	.L63
 993 006c 2C4A     		ldr	r2, .L69+4
 994 006e 9342     		cmp	r3, r2
 995 0070 13D0     		beq	.L64
 996 0072 19E0     		b	.L60
 997              	.L61:
 239:C:/data/workspaces/github/de.protos.demos/src/XMC2GoBlinky/etrice.XMC2GoBlinky.demo/src-gen-st/room/basic/service/timing\ATimingService.c **** 					case POLLING:
 240:C:/data/workspaces/github/de.protos.demos/src/XMC2GoBlinky/etrice.XMC2GoBlinky.demo/src-gen-st/room/basic/service/timing\ATimingService.c **** 						do_Operational(self);
 998              		.loc 1 240 0
 999 0074 FB68     		ldr	r3, [r7, #12]
 1000 0076 181C     		mov	r0, r3
 1001 0078 FFF7FEFF 		bl	do_Operational
 241:C:/data/workspaces/github/de.protos.demos/src/XMC2GoBlinky/etrice.XMC2GoBlinky.demo/src-gen-st/room/basic/service/timing\ATimingService.c **** 						break;
 1002              		.loc 1 241 0
 1003 007c 15E0     		b	.L66
 1004              	.L63:
 242:C:/data/workspaces/github/de.protos.demos/src/XMC2GoBlinky/etrice.XMC2GoBlinky.demo/src-gen-st/room/basic/service/timing\ATimingService.c **** 					case TRIG_timer__startTimeout:
 243:C:/data/workspaces/github/de.protos.demos/src/XMC2GoBlinky/etrice.XMC2GoBlinky.demo/src-gen-st/room/basic/service/timing\ATimingService.c **** 						{
 244:C:/data/workspaces/github/de.protos.demos/src/XMC2GoBlinky/etrice.XMC2GoBlinky.demo/src-gen-st/room/basic/service/timing\ATimingService.c **** 							chain__et = CHAIN_TRANS_tr1_FROM_Operational_TO_Operational_BY_startTimeouttimer_tr1;
 1005              		.loc 1 244 0
 1006 007e 0223     		mov	r3, #2
 1007 0080 FB61     		str	r3, [r7, #28]
 245:C:/data/workspaces/github/de.protos.demos/src/XMC2GoBlinky/etrice.XMC2GoBlinky.demo/src-gen-st/room/basic/service/timing\ATimingService.c **** 							catching_state__et = STATE_TOP;
 1008              		.loc 1 245 0
 1009 0082 3B1C     		mov	r3, r7
 1010 0084 1A33     		add	r3, r3, #26
 1011 0086 0122     		mov	r2, #1
 1012 0088 1A80     		strh	r2, [r3]
 246:C:/data/workspaces/github/de.protos.demos/src/XMC2GoBlinky/etrice.XMC2GoBlinky.demo/src-gen-st/room/basic/service/timing\ATimingService.c **** 						}
 247:C:/data/workspaces/github/de.protos.demos/src/XMC2GoBlinky/etrice.XMC2GoBlinky.demo/src-gen-st/room/basic/service/timing\ATimingService.c **** 					break;
 1013              		.loc 1 247 0
 1014 008a 0EE0     		b	.L66
 1015              	.L62:
 248:C:/data/workspaces/github/de.protos.demos/src/XMC2GoBlinky/etrice.XMC2GoBlinky.demo/src-gen-st/room/basic/service/timing\ATimingService.c **** 					case TRIG_timer__startTimer:
 249:C:/data/workspaces/github/de.protos.demos/src/XMC2GoBlinky/etrice.XMC2GoBlinky.demo/src-gen-st/room/basic/service/timing\ATimingService.c **** 						{
 250:C:/data/workspaces/github/de.protos.demos/src/XMC2GoBlinky/etrice.XMC2GoBlinky.demo/src-gen-st/room/basic/service/timing\ATimingService.c **** 							chain__et = CHAIN_TRANS_tr3_FROM_Operational_TO_Operational_BY_startTimertimer_tr3;
 1016              		.loc 1 250 0
 1017 008c 0323     		mov	r3, #3
 1018 008e FB61     		str	r3, [r7, #28]
 251:C:/data/workspaces/github/de.protos.demos/src/XMC2GoBlinky/etrice.XMC2GoBlinky.demo/src-gen-st/room/basic/service/timing\ATimingService.c **** 							catching_state__et = STATE_TOP;
 1019              		.loc 1 251 0
 1020 0090 3B1C     		mov	r3, r7
 1021 0092 1A33     		add	r3, r3, #26
 1022 0094 0122     		mov	r2, #1
 1023 0096 1A80     		strh	r2, [r3]
 252:C:/data/workspaces/github/de.protos.demos/src/XMC2GoBlinky/etrice.XMC2GoBlinky.demo/src-gen-st/room/basic/service/timing\ATimingService.c **** 						}
 253:C:/data/workspaces/github/de.protos.demos/src/XMC2GoBlinky/etrice.XMC2GoBlinky.demo/src-gen-st/room/basic/service/timing\ATimingService.c **** 					break;
 1024              		.loc 1 253 0
 1025 0098 07E0     		b	.L66
 1026              	.L64:
 254:C:/data/workspaces/github/de.protos.demos/src/XMC2GoBlinky/etrice.XMC2GoBlinky.demo/src-gen-st/room/basic/service/timing\ATimingService.c **** 					case TRIG_timer__kill:
 255:C:/data/workspaces/github/de.protos.demos/src/XMC2GoBlinky/etrice.XMC2GoBlinky.demo/src-gen-st/room/basic/service/timing\ATimingService.c **** 						{
 256:C:/data/workspaces/github/de.protos.demos/src/XMC2GoBlinky/etrice.XMC2GoBlinky.demo/src-gen-st/room/basic/service/timing\ATimingService.c **** 							chain__et = CHAIN_TRANS_tr4_FROM_Operational_TO_Operational_BY_killtimer_tr4;
 1027              		.loc 1 256 0
 1028 009a 0423     		mov	r3, #4
 1029 009c FB61     		str	r3, [r7, #28]
 257:C:/data/workspaces/github/de.protos.demos/src/XMC2GoBlinky/etrice.XMC2GoBlinky.demo/src-gen-st/room/basic/service/timing\ATimingService.c **** 							catching_state__et = STATE_TOP;
 1030              		.loc 1 257 0
 1031 009e 3B1C     		mov	r3, r7
 1032 00a0 1A33     		add	r3, r3, #26
 1033 00a2 0122     		mov	r2, #1
 1034 00a4 1A80     		strh	r2, [r3]
 258:C:/data/workspaces/github/de.protos.demos/src/XMC2GoBlinky/etrice.XMC2GoBlinky.demo/src-gen-st/room/basic/service/timing\ATimingService.c **** 						}
 259:C:/data/workspaces/github/de.protos.demos/src/XMC2GoBlinky/etrice.XMC2GoBlinky.demo/src-gen-st/room/basic/service/timing\ATimingService.c **** 					break;
 1035              		.loc 1 259 0
 1036 00a6 00E0     		b	.L66
 1037              	.L60:
 260:C:/data/workspaces/github/de.protos.demos/src/XMC2GoBlinky/etrice.XMC2GoBlinky.demo/src-gen-st/room/basic/service/timing\ATimingService.c **** 					default:
 261:C:/data/workspaces/github/de.protos.demos/src/XMC2GoBlinky/etrice.XMC2GoBlinky.demo/src-gen-st/room/basic/service/timing\ATimingService.c **** 						/* should not occur */
 262:C:/data/workspaces/github/de.protos.demos/src/XMC2GoBlinky/etrice.XMC2GoBlinky.demo/src-gen-st/room/basic/service/timing\ATimingService.c **** 						break;
 1038              		.loc 1 262 0
 1039 00a8 C046     		mov	r8, r8
 1040              	.L66:
 263:C:/data/workspaces/github/de.protos.demos/src/XMC2GoBlinky/etrice.XMC2GoBlinky.demo/src-gen-st/room/basic/service/timing\ATimingService.c **** 				}
 264:C:/data/workspaces/github/de.protos.demos/src/XMC2GoBlinky/etrice.XMC2GoBlinky.demo/src-gen-st/room/basic/service/timing\ATimingService.c **** 				break;
 1041              		.loc 1 264 0
 1042 00aa 00E0     		b	.L57
 1043              	.L68:
 265:C:/data/workspaces/github/de.protos.demos/src/XMC2GoBlinky/etrice.XMC2GoBlinky.demo/src-gen-st/room/basic/service/timing\ATimingService.c **** 			default:
 266:C:/data/workspaces/github/de.protos.demos/src/XMC2GoBlinky/etrice.XMC2GoBlinky.demo/src-gen-st/room/basic/service/timing\ATimingService.c **** 				/* should not occur */
 267:C:/data/workspaces/github/de.protos.demos/src/XMC2GoBlinky/etrice.XMC2GoBlinky.demo/src-gen-st/room/basic/service/timing\ATimingService.c **** 				break;
 1044              		.loc 1 267 0
 1045 00ac C046     		mov	r8, r8
 1046              	.L57:
 268:C:/data/workspaces/github/de.protos.demos/src/XMC2GoBlinky/etrice.XMC2GoBlinky.demo/src-gen-st/room/basic/service/timing\ATimingService.c **** 		}
 269:C:/data/workspaces/github/de.protos.demos/src/XMC2GoBlinky/etrice.XMC2GoBlinky.demo/src-gen-st/room/basic/service/timing\ATimingService.c **** 	}
 270:C:/data/workspaces/github/de.protos.demos/src/XMC2GoBlinky/etrice.XMC2GoBlinky.demo/src-gen-st/room/basic/service/timing\ATimingService.c **** 	if (chain__et != NOT_CAUGHT) {
 1047              		.loc 1 270 0
 1048 00ae FB69     		ldr	r3, [r7, #28]
 1049 00b0 002B     		cmp	r3, #0
 1050 00b2 2FD0     		beq	.L54
 271:C:/data/workspaces/github/de.protos.demos/src/XMC2GoBlinky/etrice.XMC2GoBlinky.demo/src-gen-st/room/basic/service/timing\ATimingService.c **** 		exitTo(self, getState(self), catching_state__et);
 1051              		.loc 1 271 0
 1052 00b4 FB68     		ldr	r3, [r7, #12]
 1053 00b6 181C     		mov	r0, r3
 1054 00b8 FFF7FEFF 		bl	getState
 1055 00bc 031C     		mov	r3, r0
 1056 00be 1A1C     		mov	r2, r3
 1057 00c0 F968     		ldr	r1, [r7, #12]
 1058 00c2 3B1C     		mov	r3, r7
 1059 00c4 1A33     		add	r3, r3, #26
 1060 00c6 0020     		mov	r0, #0
 1061 00c8 1B5E     		ldrsh	r3, [r3, r0]
 1062 00ca 081C     		mov	r0, r1
 1063 00cc 111C     		mov	r1, r2
 1064 00ce 1A1C     		mov	r2, r3
 1065 00d0 FFF7FEFF 		bl	exitTo
 1066              	.LBB4:
 272:C:/data/workspaces/github/de.protos.demos/src/XMC2GoBlinky/etrice.XMC2GoBlinky.demo/src-gen-st/room/basic/service/timing\ATimingService.c **** 		{
 273:C:/data/workspaces/github/de.protos.demos/src/XMC2GoBlinky/etrice.XMC2GoBlinky.demo/src-gen-st/room/basic/service/timing\ATimingService.c **** 			etInt16 next__et = executeTransitionChain(self, chain__et, ifitem, generic_data__et);
 1067              		.loc 1 273 0
 1068 00d4 3C1C     		mov	r4, r7
 1069 00d6 1234     		add	r4, r4, #18
 1070 00d8 F868     		ldr	r0, [r7, #12]
 1071 00da F969     		ldr	r1, [r7, #28]
 1072 00dc BA68     		ldr	r2, [r7, #8]
 1073 00de 3B68     		ldr	r3, [r7]
 1074 00e0 FFF7FEFF 		bl	executeTransitionChain
 1075 00e4 031C     		mov	r3, r0
 1076 00e6 2380     		strh	r3, [r4]
 274:C:/data/workspaces/github/de.protos.demos/src/XMC2GoBlinky/etrice.XMC2GoBlinky.demo/src-gen-st/room/basic/service/timing\ATimingService.c **** 			next__et = enterHistory(self, next__et);
 1077              		.loc 1 274 0
 1078 00e8 3C1C     		mov	r4, r7
 1079 00ea 1234     		add	r4, r4, #18
 1080 00ec FA68     		ldr	r2, [r7, #12]
 1081 00ee 3B1C     		mov	r3, r7
 1082 00f0 1233     		add	r3, r3, #18
 1083 00f2 0021     		mov	r1, #0
 1084 00f4 5B5E     		ldrsh	r3, [r3, r1]
 1085 00f6 101C     		mov	r0, r2
 1086 00f8 191C     		mov	r1, r3
 1087 00fa FFF7FEFF 		bl	enterHistory
 1088 00fe 031C     		mov	r3, r0
 1089 0100 2380     		strh	r3, [r4]
 275:C:/data/workspaces/github/de.protos.demos/src/XMC2GoBlinky/etrice.XMC2GoBlinky.demo/src-gen-st/room/basic/service/timing\ATimingService.c **** 			setState(self, next__et);
 1090              		.loc 1 275 0
 1091 0102 FA68     		ldr	r2, [r7, #12]
 1092 0104 3B1C     		mov	r3, r7
 1093 0106 1233     		add	r3, r3, #18
 1094 0108 0020     		mov	r0, #0
 1095 010a 1B5E     		ldrsh	r3, [r3, r0]
 1096 010c 101C     		mov	r0, r2
 1097 010e 191C     		mov	r1, r3
 1098 0110 FFF7FEFF 		bl	setState
 1099              	.L54:
 1100              	.LBE4:
 276:C:/data/workspaces/github/de.protos.demos/src/XMC2GoBlinky/etrice.XMC2GoBlinky.demo/src-gen-st/room/basic/service/timing\ATimingService.c **** 		}
 277:C:/data/workspaces/github/de.protos.demos/src/XMC2GoBlinky/etrice.XMC2GoBlinky.demo/src-gen-st/room/basic/service/timing\ATimingService.c **** 	}
 278:C:/data/workspaces/github/de.protos.demos/src/XMC2GoBlinky/etrice.XMC2GoBlinky.demo/src-gen-st/room/basic/service/timing\ATimingService.c **** }
 1101              		.loc 1 278 0
 1102 0114 BD46     		mov	sp, r7
 1103 0116 09B0     		add	sp, sp, #36
 1104              		@ sp needed for prologue
 1105 0118 90BD     		pop	{r4, r7, pc}
 1106              	.L70:
 1107 011a C046     		.align	2
 1108              	.L69:
 1109 011c 2D010000 		.word	301
 1110 0120 91010000 		.word	401
 1111              		.cfi_endproc
 1112              	.LFE12:
 1114              		.section	.text.ATimingService_init,"ax",%progbits
 1115              		.align	2
 1116              		.global	ATimingService_init
 1117              		.code	16
 1118              		.thumb_func
 1120              	ATimingService_init:
 1121              	.LFB13:
 279:C:/data/workspaces/github/de.protos.demos/src/XMC2GoBlinky/etrice.XMC2GoBlinky.demo/src-gen-st/room/basic/service/timing\ATimingService.c **** 
 280:C:/data/workspaces/github/de.protos.demos/src/XMC2GoBlinky/etrice.XMC2GoBlinky.demo/src-gen-st/room/basic/service/timing\ATimingService.c **** void ATimingService_init(ATimingService* self){
 1122              		.loc 1 280 0
 1123              		.cfi_startproc
 1124 0000 80B5     		push	{r7, lr}
 1125              	.LCFI39:
 1126              		.cfi_def_cfa_offset 8
 1127              		.cfi_offset 7, -8
 1128              		.cfi_offset 14, -4
 1129 0002 84B0     		sub	sp, sp, #16
 1130              	.LCFI40:
 1131              		.cfi_def_cfa_offset 24
 1132 0004 00AF     		add	r7, sp, #0
 1133              	.LCFI41:
 1134              		.cfi_def_cfa_register 7
 1135 0006 7860     		str	r0, [r7, #4]
 281:C:/data/workspaces/github/de.protos.demos/src/XMC2GoBlinky/etrice.XMC2GoBlinky.demo/src-gen-st/room/basic/service/timing\ATimingService.c **** 	ET_MSC_LOGGER_SYNC_ENTRY("ATimingService", "init")
 282:C:/data/workspaces/github/de.protos.demos/src/XMC2GoBlinky/etrice.XMC2GoBlinky.demo/src-gen-st/room/basic/service/timing\ATimingService.c **** 	self->state = STATE_TOP;
 1136              		.loc 1 282 0
 1137 0008 7B68     		ldr	r3, [r7, #4]
 1138 000a 0122     		mov	r2, #1
 1139 000c 9A80     		strh	r2, [r3, #4]
 1140              	.LBB5:
 283:C:/data/workspaces/github/de.protos.demos/src/XMC2GoBlinky/etrice.XMC2GoBlinky.demo/src-gen-st/room/basic/service/timing\ATimingService.c **** 	{
 284:C:/data/workspaces/github/de.protos.demos/src/XMC2GoBlinky/etrice.XMC2GoBlinky.demo/src-gen-st/room/basic/service/timing\ATimingService.c **** 		int i;
 285:C:/data/workspaces/github/de.protos.demos/src/XMC2GoBlinky/etrice.XMC2GoBlinky.demo/src-gen-st/room/basic/service/timing\ATimingService.c **** 		for (i=0; i<ATIMINGSERVICE_HISTORY_SIZE; ++i)
 1141              		.loc 1 285 0
 1142 000e 0023     		mov	r3, #0
 1143 0010 FB60     		str	r3, [r7, #12]
 1144 0012 08E0     		b	.L72
 1145              	.L73:
 286:C:/data/workspaces/github/de.protos.demos/src/XMC2GoBlinky/etrice.XMC2GoBlinky.demo/src-gen-st/room/basic/service/timing\ATimingService.c **** 			self->history[i] = NO_STATE;
 1146              		.loc 1 286 0 discriminator 2
 1147 0014 7A68     		ldr	r2, [r7, #4]
 1148 0016 FB68     		ldr	r3, [r7, #12]
 1149 0018 5B00     		lsl	r3, r3, #1
 1150 001a D318     		add	r3, r2, r3
 1151 001c 0022     		mov	r2, #0
 1152 001e DA80     		strh	r2, [r3, #6]
 285:C:/data/workspaces/github/de.protos.demos/src/XMC2GoBlinky/etrice.XMC2GoBlinky.demo/src-gen-st/room/basic/service/timing\ATimingService.c **** 		for (i=0; i<ATIMINGSERVICE_HISTORY_SIZE; ++i)
 1153              		.loc 1 285 0 discriminator 2
 1154 0020 FB68     		ldr	r3, [r7, #12]
 1155 0022 0133     		add	r3, r3, #1
 1156 0024 FB60     		str	r3, [r7, #12]
 1157              	.L72:
 285:C:/data/workspaces/github/de.protos.demos/src/XMC2GoBlinky/etrice.XMC2GoBlinky.demo/src-gen-st/room/basic/service/timing\ATimingService.c **** 		for (i=0; i<ATIMINGSERVICE_HISTORY_SIZE; ++i)
 1158              		.loc 1 285 0 is_stmt 0 discriminator 1
 1159 0026 FB68     		ldr	r3, [r7, #12]
 1160 0028 012B     		cmp	r3, #1
 1161 002a F3DD     		ble	.L73
 1162              	.LBE5:
 287:C:/data/workspaces/github/de.protos.demos/src/XMC2GoBlinky/etrice.XMC2GoBlinky.demo/src-gen-st/room/basic/service/timing\ATimingService.c **** 	}
 288:C:/data/workspaces/github/de.protos.demos/src/XMC2GoBlinky/etrice.XMC2GoBlinky.demo/src-gen-st/room/basic/service/timing\ATimingService.c **** 	ATimingService_executeInitTransition(self);
 1163              		.loc 1 288 0 is_stmt 1
 1164 002c 7B68     		ldr	r3, [r7, #4]
 1165 002e 181C     		mov	r0, r3
 1166 0030 FFF7FEFF 		bl	ATimingService_executeInitTransition
 289:C:/data/workspaces/github/de.protos.demos/src/XMC2GoBlinky/etrice.XMC2GoBlinky.demo/src-gen-st/room/basic/service/timing\ATimingService.c **** 	ET_MSC_LOGGER_SYNC_EXIT
 290:C:/data/workspaces/github/de.protos.demos/src/XMC2GoBlinky/etrice.XMC2GoBlinky.demo/src-gen-st/room/basic/service/timing\ATimingService.c **** }
 1167              		.loc 1 290 0
 1168 0034 BD46     		mov	sp, r7
 1169 0036 04B0     		add	sp, sp, #16
 1170              		@ sp needed for prologue
 1171 0038 80BD     		pop	{r7, pc}
 1172              		.cfi_endproc
 1173              	.LFE13:
 1175 003a C046     		.section	.text.ATimingService_receiveMessage,"ax",%progbits
 1176              		.align	2
 1177              		.global	ATimingService_receiveMessage
 1178              		.code	16
 1179              		.thumb_func
 1181              	ATimingService_receiveMessage:
 1182              	.LFB14:
 291:C:/data/workspaces/github/de.protos.demos/src/XMC2GoBlinky/etrice.XMC2GoBlinky.demo/src-gen-st/room/basic/service/timing\ATimingService.c **** 
 292:C:/data/workspaces/github/de.protos.demos/src/XMC2GoBlinky/etrice.XMC2GoBlinky.demo/src-gen-st/room/basic/service/timing\ATimingService.c **** 
 293:C:/data/workspaces/github/de.protos.demos/src/XMC2GoBlinky/etrice.XMC2GoBlinky.demo/src-gen-st/room/basic/service/timing\ATimingService.c **** void ATimingService_receiveMessage(void* self, const void* ifitem, const etMessage* msg){
 1183              		.loc 1 293 0
 1184              		.cfi_startproc
 1185 0000 80B5     		push	{r7, lr}
 1186              	.LCFI42:
 1187              		.cfi_def_cfa_offset 8
 1188              		.cfi_offset 7, -8
 1189              		.cfi_offset 14, -4
 1190 0002 84B0     		sub	sp, sp, #16
 1191              	.LCFI43:
 1192              		.cfi_def_cfa_offset 24
 1193 0004 00AF     		add	r7, sp, #0
 1194              	.LCFI44:
 1195              		.cfi_def_cfa_register 7
 1196 0006 F860     		str	r0, [r7, #12]
 1197 0008 B960     		str	r1, [r7, #8]
 1198 000a 7A60     		str	r2, [r7, #4]
 294:C:/data/workspaces/github/de.protos.demos/src/XMC2GoBlinky/etrice.XMC2GoBlinky.demo/src-gen-st/room/basic/service/timing\ATimingService.c **** 	ET_MSC_LOGGER_SYNC_ENTRY("ATimingService", "_receiveMessage")
 295:C:/data/workspaces/github/de.protos.demos/src/XMC2GoBlinky/etrice.XMC2GoBlinky.demo/src-gen-st/room/basic/service/timing\ATimingService.c **** 	
 296:C:/data/workspaces/github/de.protos.demos/src/XMC2GoBlinky/etrice.XMC2GoBlinky.demo/src-gen-st/room/basic/service/timing\ATimingService.c **** 	ATimingService_receiveEvent(self, (etPort*)ifitem, msg->evtID, (void*)(((char*)msg)+MEM_CEIL(sizeo
 1199              		.loc 1 296 0
 1200 000c 7B68     		ldr	r3, [r7, #4]
 1201 000e DB88     		ldrh	r3, [r3, #6]
 1202 0010 1AB2     		sxth	r2, r3
 1203 0012 7B68     		ldr	r3, [r7, #4]
 1204 0014 0833     		add	r3, r3, #8
 1205 0016 F868     		ldr	r0, [r7, #12]
 1206 0018 B968     		ldr	r1, [r7, #8]
 1207 001a FFF7FEFF 		bl	ATimingService_receiveEvent
 297:C:/data/workspaces/github/de.protos.demos/src/XMC2GoBlinky/etrice.XMC2GoBlinky.demo/src-gen-st/room/basic/service/timing\ATimingService.c **** 	
 298:C:/data/workspaces/github/de.protos.demos/src/XMC2GoBlinky/etrice.XMC2GoBlinky.demo/src-gen-st/room/basic/service/timing\ATimingService.c **** 	ET_MSC_LOGGER_SYNC_EXIT
 299:C:/data/workspaces/github/de.protos.demos/src/XMC2GoBlinky/etrice.XMC2GoBlinky.demo/src-gen-st/room/basic/service/timing\ATimingService.c **** }
 1208              		.loc 1 299 0
 1209 001e BD46     		mov	sp, r7
 1210 0020 04B0     		add	sp, sp, #16
 1211              		@ sp needed for prologue
 1212 0022 80BD     		pop	{r7, pc}
 1213              		.cfi_endproc
 1214              	.LFE14:
 1216              		.section	.text.ATimingService_execute,"ax",%progbits
 1217              		.align	2
 1218              		.global	ATimingService_execute
 1219              		.code	16
 1220              		.thumb_func
 1222              	ATimingService_execute:
 1223              	.LFB15:
 300:C:/data/workspaces/github/de.protos.demos/src/XMC2GoBlinky/etrice.XMC2GoBlinky.demo/src-gen-st/room/basic/service/timing\ATimingService.c **** 
 301:C:/data/workspaces/github/de.protos.demos/src/XMC2GoBlinky/etrice.XMC2GoBlinky.demo/src-gen-st/room/basic/service/timing\ATimingService.c **** void ATimingService_execute(ATimingService* self) {
 1224              		.loc 1 301 0
 1225              		.cfi_startproc
 1226 0000 80B5     		push	{r7, lr}
 1227              	.LCFI45:
 1228              		.cfi_def_cfa_offset 8
 1229              		.cfi_offset 7, -8
 1230              		.cfi_offset 14, -4
 1231 0002 82B0     		sub	sp, sp, #8
 1232              	.LCFI46:
 1233              		.cfi_def_cfa_offset 16
 1234 0004 00AF     		add	r7, sp, #0
 1235              	.LCFI47:
 1236              		.cfi_def_cfa_register 7
 1237 0006 7860     		str	r0, [r7, #4]
 302:C:/data/workspaces/github/de.protos.demos/src/XMC2GoBlinky/etrice.XMC2GoBlinky.demo/src-gen-st/room/basic/service/timing\ATimingService.c **** 	ET_MSC_LOGGER_SYNC_ENTRY("ATimingService", "_execute")
 303:C:/data/workspaces/github/de.protos.demos/src/XMC2GoBlinky/etrice.XMC2GoBlinky.demo/src-gen-st/room/basic/service/timing\ATimingService.c **** 	
 304:C:/data/workspaces/github/de.protos.demos/src/XMC2GoBlinky/etrice.XMC2GoBlinky.demo/src-gen-st/room/basic/service/timing\ATimingService.c **** 	ATimingService_receiveEvent(self, NULL, 0, NULL);
 1238              		.loc 1 304 0
 1239 0008 7B68     		ldr	r3, [r7, #4]
 1240 000a 181C     		mov	r0, r3
 1241 000c 0021     		mov	r1, #0
 1242 000e 0022     		mov	r2, #0
 1243 0010 0023     		mov	r3, #0
 1244 0012 FFF7FEFF 		bl	ATimingService_receiveEvent
 305:C:/data/workspaces/github/de.protos.demos/src/XMC2GoBlinky/etrice.XMC2GoBlinky.demo/src-gen-st/room/basic/service/timing\ATimingService.c **** 	
 306:C:/data/workspaces/github/de.protos.demos/src/XMC2GoBlinky/etrice.XMC2GoBlinky.demo/src-gen-st/room/basic/service/timing\ATimingService.c **** 	ET_MSC_LOGGER_SYNC_EXIT
 307:C:/data/workspaces/github/de.protos.demos/src/XMC2GoBlinky/etrice.XMC2GoBlinky.demo/src-gen-st/room/basic/service/timing\ATimingService.c **** }
 1245              		.loc 1 307 0
 1246 0016 BD46     		mov	sp, r7
 1247 0018 02B0     		add	sp, sp, #8
 1248              		@ sp needed for prologue
 1249 001a 80BD     		pop	{r7, pc}
 1250              		.cfi_endproc
 1251              	.LFE15:
 1253              		.section	.text.ATimingService_getTcb,"ax",%progbits
 1254              		.align	2
 1255              		.global	ATimingService_getTcb
 1256              		.code	16
 1257              		.thumb_func
 1259              	ATimingService_getTcb:
 1260              	.LFB16:
 308:C:/data/workspaces/github/de.protos.demos/src/XMC2GoBlinky/etrice.XMC2GoBlinky.demo/src-gen-st/room/basic/service/timing\ATimingService.c **** 
 309:C:/data/workspaces/github/de.protos.demos/src/XMC2GoBlinky/etrice.XMC2GoBlinky.demo/src-gen-st/room/basic/service/timing\ATimingService.c **** /*--------------------- operations ---------------------*/
 310:C:/data/workspaces/github/de.protos.demos/src/XMC2GoBlinky/etrice.XMC2GoBlinky.demo/src-gen-st/room/basic/service/timing\ATimingService.c **** etTimerControlBlock* ATimingService_getTcb(ATimingService* self) {
 1261              		.loc 1 310 0
 1262              		.cfi_startproc
 1263 0000 80B5     		push	{r7, lr}
 1264              	.LCFI48:
 1265              		.cfi_def_cfa_offset 8
 1266              		.cfi_offset 7, -8
 1267              		.cfi_offset 14, -4
 1268 0002 84B0     		sub	sp, sp, #16
 1269              	.LCFI49:
 1270              		.cfi_def_cfa_offset 24
 1271 0004 00AF     		add	r7, sp, #0
 1272              	.LCFI50:
 1273              		.cfi_def_cfa_register 7
 1274 0006 7860     		str	r0, [r7, #4]
 311:C:/data/workspaces/github/de.protos.demos/src/XMC2GoBlinky/etrice.XMC2GoBlinky.demo/src-gen-st/room/basic/service/timing\ATimingService.c **** 	
 312:C:/data/workspaces/github/de.protos.demos/src/XMC2GoBlinky/etrice.XMC2GoBlinky.demo/src-gen-st/room/basic/service/timing\ATimingService.c **** 				etTimerControlBlock* temp = freeTcbsRoot;
 1275              		.loc 1 312 0
 1276 0008 094B     		ldr	r3, .L79
 1277 000a 1B68     		ldr	r3, [r3]
 1278 000c FB60     		str	r3, [r7, #12]
 313:C:/data/workspaces/github/de.protos.demos/src/XMC2GoBlinky/etrice.XMC2GoBlinky.demo/src-gen-st/room/basic/service/timing\ATimingService.c **** 				
 314:C:/data/workspaces/github/de.protos.demos/src/XMC2GoBlinky/etrice.XMC2GoBlinky.demo/src-gen-st/room/basic/service/timing\ATimingService.c **** 				if(freeTcbsRoot!=0) {
 1279              		.loc 1 314 0
 1280 000e 084B     		ldr	r3, .L79
 1281 0010 1B68     		ldr	r3, [r3]
 1282 0012 002B     		cmp	r3, #0
 1283 0014 07D0     		beq	.L77
 315:C:/data/workspaces/github/de.protos.demos/src/XMC2GoBlinky/etrice.XMC2GoBlinky.demo/src-gen-st/room/basic/service/timing\ATimingService.c **** 					freeTcbsRoot=freeTcbsRoot->next;
 1284              		.loc 1 315 0
 1285 0016 064B     		ldr	r3, .L79
 1286 0018 1B68     		ldr	r3, [r3]
 1287 001a 5A69     		ldr	r2, [r3, #20]
 1288 001c 044B     		ldr	r3, .L79
 1289 001e 1A60     		str	r2, [r3]
 316:C:/data/workspaces/github/de.protos.demos/src/XMC2GoBlinky/etrice.XMC2GoBlinky.demo/src-gen-st/room/basic/service/timing\ATimingService.c **** 					temp->next=0;
 1290              		.loc 1 316 0
 1291 0020 FB68     		ldr	r3, [r7, #12]
 1292 0022 0022     		mov	r2, #0
 1293 0024 5A61     		str	r2, [r3, #20]
 1294              	.L77:
 317:C:/data/workspaces/github/de.protos.demos/src/XMC2GoBlinky/etrice.XMC2GoBlinky.demo/src-gen-st/room/basic/service/timing\ATimingService.c **** 					}
 318:C:/data/workspaces/github/de.protos.demos/src/XMC2GoBlinky/etrice.XMC2GoBlinky.demo/src-gen-st/room/basic/service/timing\ATimingService.c **** 				return temp;
 1295              		.loc 1 318 0
 1296 0026 FB68     		ldr	r3, [r7, #12]
 319:C:/data/workspaces/github/de.protos.demos/src/XMC2GoBlinky/etrice.XMC2GoBlinky.demo/src-gen-st/room/basic/service/timing\ATimingService.c **** }
 1297              		.loc 1 319 0
 1298 0028 181C     		mov	r0, r3
 1299 002a BD46     		mov	sp, r7
 1300 002c 04B0     		add	sp, sp, #16
 1301              		@ sp needed for prologue
 1302 002e 80BD     		pop	{r7, pc}
 1303              	.L80:
 1304              		.align	2
 1305              	.L79:
 1306 0030 00000000 		.word	freeTcbsRoot
 1307              		.cfi_endproc
 1308              	.LFE16:
 1310              		.section	.text.ATimingService_returnTcb,"ax",%progbits
 1311              		.align	2
 1312              		.global	ATimingService_returnTcb
 1313              		.code	16
 1314              		.thumb_func
 1316              	ATimingService_returnTcb:
 1317              	.LFB17:
 320:C:/data/workspaces/github/de.protos.demos/src/XMC2GoBlinky/etrice.XMC2GoBlinky.demo/src-gen-st/room/basic/service/timing\ATimingService.c **** void ATimingService_returnTcb(ATimingService* self, etTimerControlBlock* block) {
 1318              		.loc 1 320 0
 1319              		.cfi_startproc
 1320 0000 80B5     		push	{r7, lr}
 1321              	.LCFI51:
 1322              		.cfi_def_cfa_offset 8
 1323              		.cfi_offset 7, -8
 1324              		.cfi_offset 14, -4
 1325 0002 82B0     		sub	sp, sp, #8
 1326              	.LCFI52:
 1327              		.cfi_def_cfa_offset 16
 1328 0004 00AF     		add	r7, sp, #0
 1329              	.LCFI53:
 1330              		.cfi_def_cfa_register 7
 1331 0006 7860     		str	r0, [r7, #4]
 1332 0008 3960     		str	r1, [r7]
 321:C:/data/workspaces/github/de.protos.demos/src/XMC2GoBlinky/etrice.XMC2GoBlinky.demo/src-gen-st/room/basic/service/timing\ATimingService.c **** 	
 322:C:/data/workspaces/github/de.protos.demos/src/XMC2GoBlinky/etrice.XMC2GoBlinky.demo/src-gen-st/room/basic/service/timing\ATimingService.c **** 				block->next=freeTcbsRoot;
 1333              		.loc 1 322 0
 1334 000a 054B     		ldr	r3, .L82
 1335 000c 1A68     		ldr	r2, [r3]
 1336 000e 3B68     		ldr	r3, [r7]
 1337 0010 5A61     		str	r2, [r3, #20]
 323:C:/data/workspaces/github/de.protos.demos/src/XMC2GoBlinky/etrice.XMC2GoBlinky.demo/src-gen-st/room/basic/service/timing\ATimingService.c **** 				freeTcbsRoot=block;
 1338              		.loc 1 323 0
 1339 0012 034B     		ldr	r3, .L82
 1340 0014 3A68     		ldr	r2, [r7]
 1341 0016 1A60     		str	r2, [r3]
 324:C:/data/workspaces/github/de.protos.demos/src/XMC2GoBlinky/etrice.XMC2GoBlinky.demo/src-gen-st/room/basic/service/timing\ATimingService.c **** }
 1342              		.loc 1 324 0
 1343 0018 BD46     		mov	sp, r7
 1344 001a 02B0     		add	sp, sp, #8
 1345              		@ sp needed for prologue
 1346 001c 80BD     		pop	{r7, pc}
 1347              	.L83:
 1348 001e C046     		.align	2
 1349              	.L82:
 1350 0020 00000000 		.word	freeTcbsRoot
 1351              		.cfi_endproc
 1352              	.LFE17:
 1354              		.section	.text.ATimingService_removeTcbFromUsedList,"ax",%progbits
 1355              		.align	2
 1356              		.global	ATimingService_removeTcbFromUsedList
 1357              		.code	16
 1358              		.thumb_func
 1360              	ATimingService_removeTcbFromUsedList:
 1361              	.LFB18:
 325:C:/data/workspaces/github/de.protos.demos/src/XMC2GoBlinky/etrice.XMC2GoBlinky.demo/src-gen-st/room/basic/service/timing\ATimingService.c **** void ATimingService_removeTcbFromUsedList(ATimingService* self, int32 idx) {
 1362              		.loc 1 325 0
 1363              		.cfi_startproc
 1364 0000 80B5     		push	{r7, lr}
 1365              	.LCFI54:
 1366              		.cfi_def_cfa_offset 8
 1367              		.cfi_offset 7, -8
 1368              		.cfi_offset 14, -4
 1369 0002 84B0     		sub	sp, sp, #16
 1370              	.LCFI55:
 1371              		.cfi_def_cfa_offset 24
 1372 0004 00AF     		add	r7, sp, #0
 1373              	.LCFI56:
 1374              		.cfi_def_cfa_register 7
 1375 0006 7860     		str	r0, [r7, #4]
 1376 0008 3960     		str	r1, [r7]
 326:C:/data/workspaces/github/de.protos.demos/src/XMC2GoBlinky/etrice.XMC2GoBlinky.demo/src-gen-st/room/basic/service/timing\ATimingService.c **** 	
 327:C:/data/workspaces/github/de.protos.demos/src/XMC2GoBlinky/etrice.XMC2GoBlinky.demo/src-gen-st/room/basic/service/timing\ATimingService.c **** 				etTimerControlBlock* temp=usedTcbsRoot;
 1377              		.loc 1 327 0
 1378 000a 1E4B     		ldr	r3, .L92
 1379 000c 1B68     		ldr	r3, [r3]
 1380 000e FB60     		str	r3, [r7, #12]
 328:C:/data/workspaces/github/de.protos.demos/src/XMC2GoBlinky/etrice.XMC2GoBlinky.demo/src-gen-st/room/basic/service/timing\ATimingService.c **** 				etTimerControlBlock* temp2=usedTcbsRoot;
 1381              		.loc 1 328 0
 1382 0010 1C4B     		ldr	r3, .L92
 1383 0012 1B68     		ldr	r3, [r3]
 1384 0014 BB60     		str	r3, [r7, #8]
 329:C:/data/workspaces/github/de.protos.demos/src/XMC2GoBlinky/etrice.XMC2GoBlinky.demo/src-gen-st/room/basic/service/timing\ATimingService.c **** 				
 330:C:/data/workspaces/github/de.protos.demos/src/XMC2GoBlinky/etrice.XMC2GoBlinky.demo/src-gen-st/room/basic/service/timing\ATimingService.c **** 				if (temp==0) return;
 1385              		.loc 1 330 0
 1386 0016 FB68     		ldr	r3, [r7, #12]
 1387 0018 002B     		cmp	r3, #0
 1388 001a 2ED0     		beq	.L91
 1389              	.L85:
 331:C:/data/workspaces/github/de.protos.demos/src/XMC2GoBlinky/etrice.XMC2GoBlinky.demo/src-gen-st/room/basic/service/timing\ATimingService.c **** 	
 332:C:/data/workspaces/github/de.protos.demos/src/XMC2GoBlinky/etrice.XMC2GoBlinky.demo/src-gen-st/room/basic/service/timing\ATimingService.c **** 				if (usedTcbsRoot->portIdx == idx){
 1390              		.loc 1 332 0
 1391 001c 194B     		ldr	r3, .L92
 1392 001e 1B68     		ldr	r3, [r3]
 1393 0020 1A69     		ldr	r2, [r3, #16]
 1394 0022 3B68     		ldr	r3, [r7]
 1395 0024 9A42     		cmp	r2, r3
 1396 0026 0BD1     		bne	.L87
 333:C:/data/workspaces/github/de.protos.demos/src/XMC2GoBlinky/etrice.XMC2GoBlinky.demo/src-gen-st/room/basic/service/timing\ATimingService.c **** 					/* element found, the first one */
 334:C:/data/workspaces/github/de.protos.demos/src/XMC2GoBlinky/etrice.XMC2GoBlinky.demo/src-gen-st/room/basic/service/timing\ATimingService.c **** 					usedTcbsRoot = usedTcbsRoot->next;
 1397              		.loc 1 334 0
 1398 0028 164B     		ldr	r3, .L92
 1399 002a 1B68     		ldr	r3, [r3]
 1400 002c 5A69     		ldr	r2, [r3, #20]
 1401 002e 154B     		ldr	r3, .L92
 1402 0030 1A60     		str	r2, [r3]
 335:C:/data/workspaces/github/de.protos.demos/src/XMC2GoBlinky/etrice.XMC2GoBlinky.demo/src-gen-st/room/basic/service/timing\ATimingService.c **** 					returnTcb(temp);
 1403              		.loc 1 335 0
 1404 0032 7A68     		ldr	r2, [r7, #4]
 1405 0034 FB68     		ldr	r3, [r7, #12]
 1406 0036 101C     		mov	r0, r2
 1407 0038 191C     		mov	r1, r3
 1408 003a FFF7FEFF 		bl	ATimingService_returnTcb
 336:C:/data/workspaces/github/de.protos.demos/src/XMC2GoBlinky/etrice.XMC2GoBlinky.demo/src-gen-st/room/basic/service/timing\ATimingService.c **** 					return;
 1409              		.loc 1 336 0
 1410 003e 1DE0     		b	.L84
 1411              	.L87:
 337:C:/data/workspaces/github/de.protos.demos/src/XMC2GoBlinky/etrice.XMC2GoBlinky.demo/src-gen-st/room/basic/service/timing\ATimingService.c **** 					}
 338:C:/data/workspaces/github/de.protos.demos/src/XMC2GoBlinky/etrice.XMC2GoBlinky.demo/src-gen-st/room/basic/service/timing\ATimingService.c **** 	
 339:C:/data/workspaces/github/de.protos.demos/src/XMC2GoBlinky/etrice.XMC2GoBlinky.demo/src-gen-st/room/basic/service/timing\ATimingService.c **** 				temp=temp->next;
 1412              		.loc 1 339 0
 1413 0040 FB68     		ldr	r3, [r7, #12]
 1414 0042 5B69     		ldr	r3, [r3, #20]
 1415 0044 FB60     		str	r3, [r7, #12]
 340:C:/data/workspaces/github/de.protos.demos/src/XMC2GoBlinky/etrice.XMC2GoBlinky.demo/src-gen-st/room/basic/service/timing\ATimingService.c **** 				while(temp!=0){
 1416              		.loc 1 340 0
 1417 0046 14E0     		b	.L88
 1418              	.L90:
 341:C:/data/workspaces/github/de.protos.demos/src/XMC2GoBlinky/etrice.XMC2GoBlinky.demo/src-gen-st/room/basic/service/timing\ATimingService.c **** 					if(temp->portIdx==idx){
 1419              		.loc 1 341 0
 1420 0048 FB68     		ldr	r3, [r7, #12]
 1421 004a 1A69     		ldr	r2, [r3, #16]
 1422 004c 3B68     		ldr	r3, [r7]
 1423 004e 9A42     		cmp	r2, r3
 1424 0050 0AD1     		bne	.L89
 342:C:/data/workspaces/github/de.protos.demos/src/XMC2GoBlinky/etrice.XMC2GoBlinky.demo/src-gen-st/room/basic/service/timing\ATimingService.c **** 						temp2->next=temp->next;
 1425              		.loc 1 342 0
 1426 0052 FB68     		ldr	r3, [r7, #12]
 1427 0054 5A69     		ldr	r2, [r3, #20]
 1428 0056 BB68     		ldr	r3, [r7, #8]
 1429 0058 5A61     		str	r2, [r3, #20]
 343:C:/data/workspaces/github/de.protos.demos/src/XMC2GoBlinky/etrice.XMC2GoBlinky.demo/src-gen-st/room/basic/service/timing\ATimingService.c **** 						returnTcb(temp);
 1430              		.loc 1 343 0
 1431 005a 7A68     		ldr	r2, [r7, #4]
 1432 005c FB68     		ldr	r3, [r7, #12]
 1433 005e 101C     		mov	r0, r2
 1434 0060 191C     		mov	r1, r3
 1435 0062 FFF7FEFF 		bl	ATimingService_returnTcb
 344:C:/data/workspaces/github/de.protos.demos/src/XMC2GoBlinky/etrice.XMC2GoBlinky.demo/src-gen-st/room/basic/service/timing\ATimingService.c **** 						return;			
 1436              		.loc 1 344 0
 1437 0066 09E0     		b	.L84
 1438              	.L89:
 345:C:/data/workspaces/github/de.protos.demos/src/XMC2GoBlinky/etrice.XMC2GoBlinky.demo/src-gen-st/room/basic/service/timing\ATimingService.c **** 					}else{
 346:C:/data/workspaces/github/de.protos.demos/src/XMC2GoBlinky/etrice.XMC2GoBlinky.demo/src-gen-st/room/basic/service/timing\ATimingService.c **** 						/* try next */
 347:C:/data/workspaces/github/de.protos.demos/src/XMC2GoBlinky/etrice.XMC2GoBlinky.demo/src-gen-st/room/basic/service/timing\ATimingService.c **** 						temp2=temp;
 1439              		.loc 1 347 0
 1440 0068 FB68     		ldr	r3, [r7, #12]
 1441 006a BB60     		str	r3, [r7, #8]
 348:C:/data/workspaces/github/de.protos.demos/src/XMC2GoBlinky/etrice.XMC2GoBlinky.demo/src-gen-st/room/basic/service/timing\ATimingService.c **** 						temp=temp->next;
 1442              		.loc 1 348 0
 1443 006c FB68     		ldr	r3, [r7, #12]
 1444 006e 5B69     		ldr	r3, [r3, #20]
 1445 0070 FB60     		str	r3, [r7, #12]
 1446              	.L88:
 340:C:/data/workspaces/github/de.protos.demos/src/XMC2GoBlinky/etrice.XMC2GoBlinky.demo/src-gen-st/room/basic/service/timing\ATimingService.c **** 				while(temp!=0){
 1447              		.loc 1 340 0 discriminator 1
 1448 0072 FB68     		ldr	r3, [r7, #12]
 1449 0074 002B     		cmp	r3, #0
 1450 0076 E7D1     		bne	.L90
 1451 0078 00E0     		b	.L84
 1452              	.L91:
 330:C:/data/workspaces/github/de.protos.demos/src/XMC2GoBlinky/etrice.XMC2GoBlinky.demo/src-gen-st/room/basic/service/timing\ATimingService.c **** 				if (temp==0) return;
 1453              		.loc 1 330 0
 1454 007a C046     		mov	r8, r8
 1455              	.L84:
 349:C:/data/workspaces/github/de.protos.demos/src/XMC2GoBlinky/etrice.XMC2GoBlinky.demo/src-gen-st/room/basic/service/timing\ATimingService.c **** 						}
 350:C:/data/workspaces/github/de.protos.demos/src/XMC2GoBlinky/etrice.XMC2GoBlinky.demo/src-gen-st/room/basic/service/timing\ATimingService.c **** 					}
 351:C:/data/workspaces/github/de.protos.demos/src/XMC2GoBlinky/etrice.XMC2GoBlinky.demo/src-gen-st/room/basic/service/timing\ATimingService.c **** }
 1456              		.loc 1 351 0
 1457 007c BD46     		mov	sp, r7
 1458 007e 04B0     		add	sp, sp, #16
 1459              		@ sp needed for prologue
 1460 0080 80BD     		pop	{r7, pc}
 1461              	.L93:
 1462 0082 C046     		.align	2
 1463              	.L92:
 1464 0084 00000000 		.word	usedTcbsRoot
 1465              		.cfi_endproc
 1466              	.LFE18:
 1468              		.section	.text.ATimingService_putTcbToUsedList,"ax",%progbits
 1469              		.align	2
 1470              		.global	ATimingService_putTcbToUsedList
 1471              		.code	16
 1472              		.thumb_func
 1474              	ATimingService_putTcbToUsedList:
 1475              	.LFB19:
 352:C:/data/workspaces/github/de.protos.demos/src/XMC2GoBlinky/etrice.XMC2GoBlinky.demo/src-gen-st/room/basic/service/timing\ATimingService.c **** void ATimingService_putTcbToUsedList(ATimingService* self, etTimerControlBlock* block) {
 1476              		.loc 1 352 0
 1477              		.cfi_startproc
 1478 0000 80B5     		push	{r7, lr}
 1479              	.LCFI57:
 1480              		.cfi_def_cfa_offset 8
 1481              		.cfi_offset 7, -8
 1482              		.cfi_offset 14, -4
 1483 0002 84B0     		sub	sp, sp, #16
 1484              	.LCFI58:
 1485              		.cfi_def_cfa_offset 24
 1486 0004 00AF     		add	r7, sp, #0
 1487              	.LCFI59:
 1488              		.cfi_def_cfa_register 7
 1489 0006 7860     		str	r0, [r7, #4]
 1490 0008 3960     		str	r1, [r7]
 353:C:/data/workspaces/github/de.protos.demos/src/XMC2GoBlinky/etrice.XMC2GoBlinky.demo/src-gen-st/room/basic/service/timing\ATimingService.c **** 	
 354:C:/data/workspaces/github/de.protos.demos/src/XMC2GoBlinky/etrice.XMC2GoBlinky.demo/src-gen-st/room/basic/service/timing\ATimingService.c **** 				etTimerControlBlock* temp=usedTcbsRoot;
 1491              		.loc 1 354 0
 1492 000a 1F4B     		ldr	r3, .L101
 1493 000c 1B68     		ldr	r3, [r3]
 1494 000e FB60     		str	r3, [r7, #12]
 355:C:/data/workspaces/github/de.protos.demos/src/XMC2GoBlinky/etrice.XMC2GoBlinky.demo/src-gen-st/room/basic/service/timing\ATimingService.c **** 				etTimerControlBlock* temp2=usedTcbsRoot;
 1495              		.loc 1 355 0
 1496 0010 1D4B     		ldr	r3, .L101
 1497 0012 1B68     		ldr	r3, [r3]
 1498 0014 BB60     		str	r3, [r7, #8]
 356:C:/data/workspaces/github/de.protos.demos/src/XMC2GoBlinky/etrice.XMC2GoBlinky.demo/src-gen-st/room/basic/service/timing\ATimingService.c **** 	
 357:C:/data/workspaces/github/de.protos.demos/src/XMC2GoBlinky/etrice.XMC2GoBlinky.demo/src-gen-st/room/basic/service/timing\ATimingService.c **** 				if (temp==0){
 1499              		.loc 1 357 0
 1500 0016 FB68     		ldr	r3, [r7, #12]
 1501 0018 002B     		cmp	r3, #0
 1502 001a 06D1     		bne	.L95
 358:C:/data/workspaces/github/de.protos.demos/src/XMC2GoBlinky/etrice.XMC2GoBlinky.demo/src-gen-st/room/basic/service/timing\ATimingService.c **** 					/* list empty put new block to root */
 359:C:/data/workspaces/github/de.protos.demos/src/XMC2GoBlinky/etrice.XMC2GoBlinky.demo/src-gen-st/room/basic/service/timing\ATimingService.c **** 					block->next=0;
 1503              		.loc 1 359 0
 1504 001c 3B68     		ldr	r3, [r7]
 1505 001e 0022     		mov	r2, #0
 1506 0020 5A61     		str	r2, [r3, #20]
 360:C:/data/workspaces/github/de.protos.demos/src/XMC2GoBlinky/etrice.XMC2GoBlinky.demo/src-gen-st/room/basic/service/timing\ATimingService.c **** 					usedTcbsRoot=block;
 1507              		.loc 1 360 0
 1508 0022 194B     		ldr	r3, .L101
 1509 0024 3A68     		ldr	r2, [r7]
 1510 0026 1A60     		str	r2, [r3]
 361:C:/data/workspaces/github/de.protos.demos/src/XMC2GoBlinky/etrice.XMC2GoBlinky.demo/src-gen-st/room/basic/service/timing\ATimingService.c **** 					return;
 1511              		.loc 1 361 0
 1512 0028 2AE0     		b	.L94
 1513              	.L95:
 362:C:/data/workspaces/github/de.protos.demos/src/XMC2GoBlinky/etrice.XMC2GoBlinky.demo/src-gen-st/room/basic/service/timing\ATimingService.c **** 					}
 363:C:/data/workspaces/github/de.protos.demos/src/XMC2GoBlinky/etrice.XMC2GoBlinky.demo/src-gen-st/room/basic/service/timing\ATimingService.c **** 				
 364:C:/data/workspaces/github/de.protos.demos/src/XMC2GoBlinky/etrice.XMC2GoBlinky.demo/src-gen-st/room/basic/service/timing\ATimingService.c **** 				while(1){
 365:C:/data/workspaces/github/de.protos.demos/src/XMC2GoBlinky/etrice.XMC2GoBlinky.demo/src-gen-st/room/basic/service/timing\ATimingService.c **** 					if (temp != 0){
 1514              		.loc 1 365 0
 1515 002a FB68     		ldr	r3, [r7, #12]
 1516 002c 002B     		cmp	r3, #0
 1517 002e 20D0     		beq	.L97
 366:C:/data/workspaces/github/de.protos.demos/src/XMC2GoBlinky/etrice.XMC2GoBlinky.demo/src-gen-st/room/basic/service/timing\ATimingService.c **** 						if (isTimeGreater(&block->expTime,&temp->expTime)){
 1518              		.loc 1 366 0
 1519 0030 3A68     		ldr	r2, [r7]
 1520 0032 FB68     		ldr	r3, [r7, #12]
 1521 0034 7968     		ldr	r1, [r7, #4]
 1522 0036 081C     		mov	r0, r1
 1523 0038 111C     		mov	r1, r2
 1524 003a 1A1C     		mov	r2, r3
 1525 003c FFF7FEFF 		bl	ATimingService_isTimeGreater
 1526 0040 031C     		mov	r3, r0
 1527 0042 002B     		cmp	r3, #0
 1528 0044 05D0     		beq	.L98
 367:C:/data/workspaces/github/de.protos.demos/src/XMC2GoBlinky/etrice.XMC2GoBlinky.demo/src-gen-st/room/basic/service/timing\ATimingService.c **** 							/* try next position */
 368:C:/data/workspaces/github/de.protos.demos/src/XMC2GoBlinky/etrice.XMC2GoBlinky.demo/src-gen-st/room/basic/service/timing\ATimingService.c **** 							temp2=temp;	
 1529              		.loc 1 368 0
 1530 0046 FB68     		ldr	r3, [r7, #12]
 1531 0048 BB60     		str	r3, [r7, #8]
 369:C:/data/workspaces/github/de.protos.demos/src/XMC2GoBlinky/etrice.XMC2GoBlinky.demo/src-gen-st/room/basic/service/timing\ATimingService.c **** 							temp=temp->next;
 1532              		.loc 1 369 0
 1533 004a FB68     		ldr	r3, [r7, #12]
 1534 004c 5B69     		ldr	r3, [r3, #20]
 1535 004e FB60     		str	r3, [r7, #12]
 370:C:/data/workspaces/github/de.protos.demos/src/XMC2GoBlinky/etrice.XMC2GoBlinky.demo/src-gen-st/room/basic/service/timing\ATimingService.c **** 							}else{
 371:C:/data/workspaces/github/de.protos.demos/src/XMC2GoBlinky/etrice.XMC2GoBlinky.demo/src-gen-st/room/basic/service/timing\ATimingService.c **** 							/* right position found */
 372:C:/data/workspaces/github/de.protos.demos/src/XMC2GoBlinky/etrice.XMC2GoBlinky.demo/src-gen-st/room/basic/service/timing\ATimingService.c **** 							block->next=temp;
 373:C:/data/workspaces/github/de.protos.demos/src/XMC2GoBlinky/etrice.XMC2GoBlinky.demo/src-gen-st/room/basic/service/timing\ATimingService.c **** 							if(temp==usedTcbsRoot){
 374:C:/data/workspaces/github/de.protos.demos/src/XMC2GoBlinky/etrice.XMC2GoBlinky.demo/src-gen-st/room/basic/service/timing\ATimingService.c **** 								usedTcbsRoot=block;
 375:C:/data/workspaces/github/de.protos.demos/src/XMC2GoBlinky/etrice.XMC2GoBlinky.demo/src-gen-st/room/basic/service/timing\ATimingService.c **** 								}else{
 376:C:/data/workspaces/github/de.protos.demos/src/XMC2GoBlinky/etrice.XMC2GoBlinky.demo/src-gen-st/room/basic/service/timing\ATimingService.c **** 								temp2->next=block;
 377:C:/data/workspaces/github/de.protos.demos/src/XMC2GoBlinky/etrice.XMC2GoBlinky.demo/src-gen-st/room/basic/service/timing\ATimingService.c **** 								}
 378:C:/data/workspaces/github/de.protos.demos/src/XMC2GoBlinky/etrice.XMC2GoBlinky.demo/src-gen-st/room/basic/service/timing\ATimingService.c **** 							return;
 379:C:/data/workspaces/github/de.protos.demos/src/XMC2GoBlinky/etrice.XMC2GoBlinky.demo/src-gen-st/room/basic/service/timing\ATimingService.c **** 							}
 380:C:/data/workspaces/github/de.protos.demos/src/XMC2GoBlinky/etrice.XMC2GoBlinky.demo/src-gen-st/room/basic/service/timing\ATimingService.c **** 						}else{
 381:C:/data/workspaces/github/de.protos.demos/src/XMC2GoBlinky/etrice.XMC2GoBlinky.demo/src-gen-st/room/basic/service/timing\ATimingService.c **** 						/* end of list reached */
 382:C:/data/workspaces/github/de.protos.demos/src/XMC2GoBlinky/etrice.XMC2GoBlinky.demo/src-gen-st/room/basic/service/timing\ATimingService.c **** 						block->next=0;
 383:C:/data/workspaces/github/de.protos.demos/src/XMC2GoBlinky/etrice.XMC2GoBlinky.demo/src-gen-st/room/basic/service/timing\ATimingService.c **** 						temp2->next=block;
 384:C:/data/workspaces/github/de.protos.demos/src/XMC2GoBlinky/etrice.XMC2GoBlinky.demo/src-gen-st/room/basic/service/timing\ATimingService.c **** 						return;
 385:C:/data/workspaces/github/de.protos.demos/src/XMC2GoBlinky/etrice.XMC2GoBlinky.demo/src-gen-st/room/basic/service/timing\ATimingService.c **** 					}
 386:C:/data/workspaces/github/de.protos.demos/src/XMC2GoBlinky/etrice.XMC2GoBlinky.demo/src-gen-st/room/basic/service/timing\ATimingService.c **** 				}
 1536              		.loc 1 386 0
 1537 0050 EBE7     		b	.L95
 1538              	.L98:
 372:C:/data/workspaces/github/de.protos.demos/src/XMC2GoBlinky/etrice.XMC2GoBlinky.demo/src-gen-st/room/basic/service/timing\ATimingService.c **** 							block->next=temp;
 1539              		.loc 1 372 0
 1540 0052 3B68     		ldr	r3, [r7]
 1541 0054 FA68     		ldr	r2, [r7, #12]
 1542 0056 5A61     		str	r2, [r3, #20]
 373:C:/data/workspaces/github/de.protos.demos/src/XMC2GoBlinky/etrice.XMC2GoBlinky.demo/src-gen-st/room/basic/service/timing\ATimingService.c **** 							if(temp==usedTcbsRoot){
 1543              		.loc 1 373 0
 1544 0058 0B4B     		ldr	r3, .L101
 1545 005a 1B68     		ldr	r3, [r3]
 1546 005c FA68     		ldr	r2, [r7, #12]
 1547 005e 9A42     		cmp	r2, r3
 1548 0060 03D1     		bne	.L99
 374:C:/data/workspaces/github/de.protos.demos/src/XMC2GoBlinky/etrice.XMC2GoBlinky.demo/src-gen-st/room/basic/service/timing\ATimingService.c **** 								usedTcbsRoot=block;
 1549              		.loc 1 374 0
 1550 0062 094B     		ldr	r3, .L101
 1551 0064 3A68     		ldr	r2, [r7]
 1552 0066 1A60     		str	r2, [r3]
 378:C:/data/workspaces/github/de.protos.demos/src/XMC2GoBlinky/etrice.XMC2GoBlinky.demo/src-gen-st/room/basic/service/timing\ATimingService.c **** 							return;
 1553              		.loc 1 378 0
 1554 0068 0AE0     		b	.L94
 1555              	.L99:
 376:C:/data/workspaces/github/de.protos.demos/src/XMC2GoBlinky/etrice.XMC2GoBlinky.demo/src-gen-st/room/basic/service/timing\ATimingService.c **** 								temp2->next=block;
 1556              		.loc 1 376 0
 1557 006a BB68     		ldr	r3, [r7, #8]
 1558 006c 3A68     		ldr	r2, [r7]
 1559 006e 5A61     		str	r2, [r3, #20]
 378:C:/data/workspaces/github/de.protos.demos/src/XMC2GoBlinky/etrice.XMC2GoBlinky.demo/src-gen-st/room/basic/service/timing\ATimingService.c **** 							return;
 1560              		.loc 1 378 0
 1561 0070 06E0     		b	.L94
 1562              	.L97:
 382:C:/data/workspaces/github/de.protos.demos/src/XMC2GoBlinky/etrice.XMC2GoBlinky.demo/src-gen-st/room/basic/service/timing\ATimingService.c **** 						block->next=0;
 1563              		.loc 1 382 0
 1564 0072 3B68     		ldr	r3, [r7]
 1565 0074 0022     		mov	r2, #0
 1566 0076 5A61     		str	r2, [r3, #20]
 383:C:/data/workspaces/github/de.protos.demos/src/XMC2GoBlinky/etrice.XMC2GoBlinky.demo/src-gen-st/room/basic/service/timing\ATimingService.c **** 						temp2->next=block;
 1567              		.loc 1 383 0
 1568 0078 BB68     		ldr	r3, [r7, #8]
 1569 007a 3A68     		ldr	r2, [r7]
 1570 007c 5A61     		str	r2, [r3, #20]
 384:C:/data/workspaces/github/de.protos.demos/src/XMC2GoBlinky/etrice.XMC2GoBlinky.demo/src-gen-st/room/basic/service/timing\ATimingService.c **** 						return;
 1571              		.loc 1 384 0
 1572 007e C046     		mov	r8, r8
 1573              	.L94:
 387:C:/data/workspaces/github/de.protos.demos/src/XMC2GoBlinky/etrice.XMC2GoBlinky.demo/src-gen-st/room/basic/service/timing\ATimingService.c **** }
 1574              		.loc 1 387 0
 1575 0080 BD46     		mov	sp, r7
 1576 0082 04B0     		add	sp, sp, #16
 1577              		@ sp needed for prologue
 1578 0084 80BD     		pop	{r7, pc}
 1579              	.L102:
 1580 0086 C046     		.align	2
 1581              	.L101:
 1582 0088 00000000 		.word	usedTcbsRoot
 1583              		.cfi_endproc
 1584              	.LFE19:
 1586              		.section	.text.ATimingService_isTimeGreater,"ax",%progbits
 1587              		.align	2
 1588              		.global	ATimingService_isTimeGreater
 1589              		.code	16
 1590              		.thumb_func
 1592              	ATimingService_isTimeGreater:
 1593              	.LFB20:
 388:C:/data/workspaces/github/de.protos.demos/src/XMC2GoBlinky/etrice.XMC2GoBlinky.demo/src-gen-st/room/basic/service/timing\ATimingService.c **** boolean ATimingService_isTimeGreater(ATimingService* self, etTime* t1, etTime* t2) {
 1594              		.loc 1 388 0
 1595              		.cfi_startproc
 1596 0000 80B5     		push	{r7, lr}
 1597              	.LCFI60:
 1598              		.cfi_def_cfa_offset 8
 1599              		.cfi_offset 7, -8
 1600              		.cfi_offset 14, -4
 1601 0002 84B0     		sub	sp, sp, #16
 1602              	.LCFI61:
 1603              		.cfi_def_cfa_offset 24
 1604 0004 00AF     		add	r7, sp, #0
 1605              	.LCFI62:
 1606              		.cfi_def_cfa_register 7
 1607 0006 F860     		str	r0, [r7, #12]
 1608 0008 B960     		str	r1, [r7, #8]
 1609 000a 7A60     		str	r2, [r7, #4]
 389:C:/data/workspaces/github/de.protos.demos/src/XMC2GoBlinky/etrice.XMC2GoBlinky.demo/src-gen-st/room/basic/service/timing\ATimingService.c **** 	
 390:C:/data/workspaces/github/de.protos.demos/src/XMC2GoBlinky/etrice.XMC2GoBlinky.demo/src-gen-st/room/basic/service/timing\ATimingService.c **** 					if (t1->sec > t2->sec) return ET_TRUE;
 1610              		.loc 1 390 0
 1611 000c BB68     		ldr	r3, [r7, #8]
 1612 000e 1A68     		ldr	r2, [r3]
 1613 0010 7B68     		ldr	r3, [r7, #4]
 1614 0012 1B68     		ldr	r3, [r3]
 1615 0014 9A42     		cmp	r2, r3
 1616 0016 01DD     		ble	.L104
 1617              		.loc 1 390 0 is_stmt 0 discriminator 1
 1618 0018 0123     		mov	r3, #1
 1619 001a 10E0     		b	.L105
 1620              	.L104:
 391:C:/data/workspaces/github/de.protos.demos/src/XMC2GoBlinky/etrice.XMC2GoBlinky.demo/src-gen-st/room/basic/service/timing\ATimingService.c **** 					if (t1->sec < t2->sec) return ET_FALSE;
 1621              		.loc 1 391 0 is_stmt 1
 1622 001c BB68     		ldr	r3, [r7, #8]
 1623 001e 1A68     		ldr	r2, [r3]
 1624 0020 7B68     		ldr	r3, [r7, #4]
 1625 0022 1B68     		ldr	r3, [r3]
 1626 0024 9A42     		cmp	r2, r3
 1627 0026 01DA     		bge	.L106
 1628              		.loc 1 391 0 is_stmt 0 discriminator 1
 1629 0028 0023     		mov	r3, #0
 1630 002a 08E0     		b	.L105
 1631              	.L106:
 392:C:/data/workspaces/github/de.protos.demos/src/XMC2GoBlinky/etrice.XMC2GoBlinky.demo/src-gen-st/room/basic/service/timing\ATimingService.c **** 					if (t1->nSec > t2->nSec) return ET_TRUE;
 1632              		.loc 1 392 0 is_stmt 1
 1633 002c BB68     		ldr	r3, [r7, #8]
 1634 002e 5A68     		ldr	r2, [r3, #4]
 1635 0030 7B68     		ldr	r3, [r7, #4]
 1636 0032 5B68     		ldr	r3, [r3, #4]
 1637 0034 9A42     		cmp	r2, r3
 1638 0036 01DD     		ble	.L107
 1639              		.loc 1 392 0 is_stmt 0 discriminator 1
 1640 0038 0123     		mov	r3, #1
 1641 003a 00E0     		b	.L105
 1642              	.L107:
 393:C:/data/workspaces/github/de.protos.demos/src/XMC2GoBlinky/etrice.XMC2GoBlinky.demo/src-gen-st/room/basic/service/timing\ATimingService.c **** 					return ET_FALSE;
 1643              		.loc 1 393 0 is_stmt 1
 1644 003c 0023     		mov	r3, #0
 1645              	.L105:
 394:C:/data/workspaces/github/de.protos.demos/src/XMC2GoBlinky/etrice.XMC2GoBlinky.demo/src-gen-st/room/basic/service/timing\ATimingService.c **** }
 1646              		.loc 1 394 0
 1647 003e 181C     		mov	r0, r3
 1648 0040 BD46     		mov	sp, r7
 1649 0042 04B0     		add	sp, sp, #16
 1650              		@ sp needed for prologue
 1651 0044 80BD     		pop	{r7, pc}
 1652              		.cfi_endproc
 1653              	.LFE20:
 1655 0046 C046     		.section	.text.ATimingService_addTime,"ax",%progbits
 1656              		.align	2
 1657              		.global	ATimingService_addTime
 1658              		.code	16
 1659              		.thumb_func
 1661              	ATimingService_addTime:
 1662              	.LFB21:
 395:C:/data/workspaces/github/de.protos.demos/src/XMC2GoBlinky/etrice.XMC2GoBlinky.demo/src-gen-st/room/basic/service/timing\ATimingService.c **** void ATimingService_addTime(ATimingService* self, etTime* t1, etTime* t2) {
 1663              		.loc 1 395 0
 1664              		.cfi_startproc
 1665 0000 80B5     		push	{r7, lr}
 1666              	.LCFI63:
 1667              		.cfi_def_cfa_offset 8
 1668              		.cfi_offset 7, -8
 1669              		.cfi_offset 14, -4
 1670 0002 84B0     		sub	sp, sp, #16
 1671              	.LCFI64:
 1672              		.cfi_def_cfa_offset 24
 1673 0004 00AF     		add	r7, sp, #0
 1674              	.LCFI65:
 1675              		.cfi_def_cfa_register 7
 1676 0006 F860     		str	r0, [r7, #12]
 1677 0008 B960     		str	r1, [r7, #8]
 1678 000a 7A60     		str	r2, [r7, #4]
 396:C:/data/workspaces/github/de.protos.demos/src/XMC2GoBlinky/etrice.XMC2GoBlinky.demo/src-gen-st/room/basic/service/timing\ATimingService.c **** 	
 397:C:/data/workspaces/github/de.protos.demos/src/XMC2GoBlinky/etrice.XMC2GoBlinky.demo/src-gen-st/room/basic/service/timing\ATimingService.c **** 					t1->sec += t2->sec;
 1679              		.loc 1 397 0
 1680 000c BB68     		ldr	r3, [r7, #8]
 1681 000e 1A68     		ldr	r2, [r3]
 1682 0010 7B68     		ldr	r3, [r7, #4]
 1683 0012 1B68     		ldr	r3, [r3]
 1684 0014 D218     		add	r2, r2, r3
 1685 0016 BB68     		ldr	r3, [r7, #8]
 1686 0018 1A60     		str	r2, [r3]
 398:C:/data/workspaces/github/de.protos.demos/src/XMC2GoBlinky/etrice.XMC2GoBlinky.demo/src-gen-st/room/basic/service/timing\ATimingService.c **** 					t1->nSec += t2->nSec;
 1687              		.loc 1 398 0
 1688 001a BB68     		ldr	r3, [r7, #8]
 1689 001c 5A68     		ldr	r2, [r3, #4]
 1690 001e 7B68     		ldr	r3, [r7, #4]
 1691 0020 5B68     		ldr	r3, [r3, #4]
 1692 0022 D218     		add	r2, r2, r3
 1693 0024 BB68     		ldr	r3, [r7, #8]
 1694 0026 5A60     		str	r2, [r3, #4]
 399:C:/data/workspaces/github/de.protos.demos/src/XMC2GoBlinky/etrice.XMC2GoBlinky.demo/src-gen-st/room/basic/service/timing\ATimingService.c **** 					while(t1->nSec >= 1000000000L){
 1695              		.loc 1 399 0
 1696 0028 0AE0     		b	.L109
 1697              	.L110:
 400:C:/data/workspaces/github/de.protos.demos/src/XMC2GoBlinky/etrice.XMC2GoBlinky.demo/src-gen-st/room/basic/service/timing\ATimingService.c **** 						t1->sec++;
 1698              		.loc 1 400 0
 1699 002a BB68     		ldr	r3, [r7, #8]
 1700 002c 1B68     		ldr	r3, [r3]
 1701 002e 5A1C     		add	r2, r3, #1
 1702 0030 BB68     		ldr	r3, [r7, #8]
 1703 0032 1A60     		str	r2, [r3]
 401:C:/data/workspaces/github/de.protos.demos/src/XMC2GoBlinky/etrice.XMC2GoBlinky.demo/src-gen-st/room/basic/service/timing\ATimingService.c **** 						t1->nSec-=1000000000L;
 1704              		.loc 1 401 0
 1705 0034 BB68     		ldr	r3, [r7, #8]
 1706 0036 5B68     		ldr	r3, [r3, #4]
 1707 0038 0549     		ldr	r1, .L111
 1708 003a 5A18     		add	r2, r3, r1
 1709 003c BB68     		ldr	r3, [r7, #8]
 1710 003e 5A60     		str	r2, [r3, #4]
 1711              	.L109:
 399:C:/data/workspaces/github/de.protos.demos/src/XMC2GoBlinky/etrice.XMC2GoBlinky.demo/src-gen-st/room/basic/service/timing\ATimingService.c **** 					while(t1->nSec >= 1000000000L){
 1712              		.loc 1 399 0 discriminator 1
 1713 0040 BB68     		ldr	r3, [r7, #8]
 1714 0042 5A68     		ldr	r2, [r3, #4]
 1715 0044 034B     		ldr	r3, .L111+4
 1716 0046 9A42     		cmp	r2, r3
 1717 0048 EFDC     		bgt	.L110
 402:C:/data/workspaces/github/de.protos.demos/src/XMC2GoBlinky/etrice.XMC2GoBlinky.demo/src-gen-st/room/basic/service/timing\ATimingService.c **** 						}
 403:C:/data/workspaces/github/de.protos.demos/src/XMC2GoBlinky/etrice.XMC2GoBlinky.demo/src-gen-st/room/basic/service/timing\ATimingService.c **** }
 1718              		.loc 1 403 0
 1719 004a BD46     		mov	sp, r7
 1720 004c 04B0     		add	sp, sp, #16
 1721              		@ sp needed for prologue
 1722 004e 80BD     		pop	{r7, pc}
 1723              	.L112:
 1724              		.align	2
 1725              	.L111:
 1726 0050 003665C4 		.word	-1000000000
 1727 0054 FFC99A3B 		.word	999999999
 1728              		.cfi_endproc
 1729              	.LFE21:
 1731              		.text
 1732              	.Letext0:
 1733              		.file 2 "C:\\data\\workspaces\\github\\de.protos.demos\\src\\XMC2GoBlinky\\etrice.runtime.c\\eTric
 1734              		.file 3 "C:\\data\\workspaces\\github\\de.protos.demos\\src\\XMC2GoBlinky\\etrice.runtime.c\\eTric
 1735              		.file 4 "C:\\data\\workspaces\\github\\de.protos.demos\\src\\XMC2GoBlinky\\etrice.runtime.c\\eTric
 1736              		.file 5 "C:\\data\\workspaces\\github\\de.protos.demos\\src\\XMC2GoBlinky\\etrice.runtime.c\\eTric
 1737              		.file 6 "C:\\data\\workspaces\\github\\de.protos.demos\\src\\XMC2GoBlinky\\etrice.runtime.c\\eTric
 1738              		.file 7 "C:\\data\\workspaces\\github\\de.protos.demos\\src\\XMC2GoBlinky\\etrice.runtime.c\\eTric
 1739              		.file 8 "C:\\data\\workspaces\\github\\de.protos.demos\\src\\XMC2GoBlinky\\etrice.runtime.c\\eTric
 1740              		.file 9 "C:\\data\\workspaces\\github\\de.protos.demos\\src\\XMC2GoBlinky\\etrice.runtime.c\\eTric
 1741              		.file 10 "C:\\data\\workspaces\\github\\de.protos.demos\\src\\XMC2GoBlinky\\etrice.runtime.c\\eTri
 1742              		.file 11 "C:\\data\\workspaces\\github\\de.protos.demos\\src\\XMC2GoBlinky\\etrice.runtime.c\\eTri
 1743              		.file 12 "C:\\data\\workspaces\\github\\de.protos.demos\\src\\XMC2GoBlinky\\etrice.runtime.c\\eTri
 1744              		.file 13 "C:/data/workspaces/github/de.protos.demos/src/XMC2GoBlinky/etrice.XMC2GoBlinky.demo/src-