   1              		.syntax unified
   2              		.cpu cortex-m4
   3              		.eabi_attribute 27, 3
   4              		.fpu fpv4-sp-d16
   5              		.eabi_attribute 20, 1
   6              		.eabi_attribute 21, 1
   7              		.eabi_attribute 23, 3
   8              		.eabi_attribute 24, 1
   9              		.eabi_attribute 25, 1
  10              		.eabi_attribute 26, 1
  11              		.eabi_attribute 30, 6
  12              		.eabi_attribute 34, 1
  13              		.eabi_attribute 18, 4
  14              		.thumb
  15              		.file	"ATimingService.c"
  16              		.text
  17              	.Ltext0:
  18              		.cfi_sections	.debug_frame
  19              		.section	.text.setState,"ax",%progbits
  20              		.align	2
  21              		.thumb
  22              		.thumb_func
  24              	setState:
  25              	.LFB0:
  26              		.file 1 "C:/data/workspaces/github/de.protos.demos/src/HexagonCANDemo/etrice.HexagonCANDemo.demo/s
   1:C:/data/workspaces/github/de.protos.demos/src/HexagonCANDemo/etrice.HexagonCANDemo.demo/src-gen-st/room/basic/service/timing\ATimingService.c **** /**
   2:C:/data/workspaces/github/de.protos.demos/src/HexagonCANDemo/etrice.HexagonCANDemo.demo/src-gen-st/room/basic/service/timing\ATimingService.c ****  * @author generated by eTrice
   3:C:/data/workspaces/github/de.protos.demos/src/HexagonCANDemo/etrice.HexagonCANDemo.demo/src-gen-st/room/basic/service/timing\ATimingService.c ****  *
   4:C:/data/workspaces/github/de.protos.demos/src/HexagonCANDemo/etrice.HexagonCANDemo.demo/src-gen-st/room/basic/service/timing\ATimingService.c ****  * Source File of ActorClass ATimingService
   5:C:/data/workspaces/github/de.protos.demos/src/HexagonCANDemo/etrice.HexagonCANDemo.demo/src-gen-st/room/basic/service/timing\ATimingService.c ****  * 
   6:C:/data/workspaces/github/de.protos.demos/src/HexagonCANDemo/etrice.HexagonCANDemo.demo/src-gen-st/room/basic/service/timing\ATimingService.c ****  */
   7:C:/data/workspaces/github/de.protos.demos/src/HexagonCANDemo/etrice.HexagonCANDemo.demo/src-gen-st/room/basic/service/timing\ATimingService.c **** 
   8:C:/data/workspaces/github/de.protos.demos/src/HexagonCANDemo/etrice.HexagonCANDemo.demo/src-gen-st/room/basic/service/timing\ATimingService.c **** #include "ATimingService.h"
   9:C:/data/workspaces/github/de.protos.demos/src/HexagonCANDemo/etrice.HexagonCANDemo.demo/src-gen-st/room/basic/service/timing\ATimingService.c **** 
  10:C:/data/workspaces/github/de.protos.demos/src/HexagonCANDemo/etrice.HexagonCANDemo.demo/src-gen-st/room/basic/service/timing\ATimingService.c **** #include "modelbase/etActor.h"
  11:C:/data/workspaces/github/de.protos.demos/src/HexagonCANDemo/etrice.HexagonCANDemo.demo/src-gen-st/room/basic/service/timing\ATimingService.c **** #include "debugging/etLogger.h"
  12:C:/data/workspaces/github/de.protos.demos/src/HexagonCANDemo/etrice.HexagonCANDemo.demo/src-gen-st/room/basic/service/timing\ATimingService.c **** #include "debugging/etMSCLogger.h"
  13:C:/data/workspaces/github/de.protos.demos/src/HexagonCANDemo/etrice.HexagonCANDemo.demo/src-gen-st/room/basic/service/timing\ATimingService.c **** #include "etUnit/etUnit.h"
  14:C:/data/workspaces/github/de.protos.demos/src/HexagonCANDemo/etrice.HexagonCANDemo.demo/src-gen-st/room/basic/service/timing\ATimingService.c **** #include "base/etMemory.h"
  15:C:/data/workspaces/github/de.protos.demos/src/HexagonCANDemo/etrice.HexagonCANDemo.demo/src-gen-st/room/basic/service/timing\ATimingService.c **** 
  16:C:/data/workspaces/github/de.protos.demos/src/HexagonCANDemo/etrice.HexagonCANDemo.demo/src-gen-st/room/basic/service/timing\ATimingService.c **** #include "room/basic/service/timing/PTimer.h"
  17:C:/data/workspaces/github/de.protos.demos/src/HexagonCANDemo/etrice.HexagonCANDemo.demo/src-gen-st/room/basic/service/timing\ATimingService.c **** 
  18:C:/data/workspaces/github/de.protos.demos/src/HexagonCANDemo/etrice.HexagonCANDemo.demo/src-gen-st/room/basic/service/timing\ATimingService.c **** #include "ATimingService_Utils.h"
  19:C:/data/workspaces/github/de.protos.demos/src/HexagonCANDemo/etrice.HexagonCANDemo.demo/src-gen-st/room/basic/service/timing\ATimingService.c **** 
  20:C:/data/workspaces/github/de.protos.demos/src/HexagonCANDemo/etrice.HexagonCANDemo.demo/src-gen-st/room/basic/service/timing\ATimingService.c **** /*--------------------- begin user code ---------------------*/
  21:C:/data/workspaces/github/de.protos.demos/src/HexagonCANDemo/etrice.HexagonCANDemo.demo/src-gen-st/room/basic/service/timing\ATimingService.c **** /*uc3*/
  22:C:/data/workspaces/github/de.protos.demos/src/HexagonCANDemo/etrice.HexagonCANDemo.demo/src-gen-st/room/basic/service/timing\ATimingService.c **** /*--------------------- end user code ---------------------*/
  23:C:/data/workspaces/github/de.protos.demos/src/HexagonCANDemo/etrice.HexagonCANDemo.demo/src-gen-st/room/basic/service/timing\ATimingService.c **** 
  24:C:/data/workspaces/github/de.protos.demos/src/HexagonCANDemo/etrice.HexagonCANDemo.demo/src-gen-st/room/basic/service/timing\ATimingService.c **** /* interface item IDs */
  25:C:/data/workspaces/github/de.protos.demos/src/HexagonCANDemo/etrice.HexagonCANDemo.demo/src-gen-st/room/basic/service/timing\ATimingService.c **** enum interface_items {
  26:C:/data/workspaces/github/de.protos.demos/src/HexagonCANDemo/etrice.HexagonCANDemo.demo/src-gen-st/room/basic/service/timing\ATimingService.c **** 	IFITEM_timer = 1
  27:C:/data/workspaces/github/de.protos.demos/src/HexagonCANDemo/etrice.HexagonCANDemo.demo/src-gen-st/room/basic/service/timing\ATimingService.c **** };
  28:C:/data/workspaces/github/de.protos.demos/src/HexagonCANDemo/etrice.HexagonCANDemo.demo/src-gen-st/room/basic/service/timing\ATimingService.c **** 
  29:C:/data/workspaces/github/de.protos.demos/src/HexagonCANDemo/etrice.HexagonCANDemo.demo/src-gen-st/room/basic/service/timing\ATimingService.c **** /* state IDs */
  30:C:/data/workspaces/github/de.protos.demos/src/HexagonCANDemo/etrice.HexagonCANDemo.demo/src-gen-st/room/basic/service/timing\ATimingService.c **** enum state_ids {
  31:C:/data/workspaces/github/de.protos.demos/src/HexagonCANDemo/etrice.HexagonCANDemo.demo/src-gen-st/room/basic/service/timing\ATimingService.c **** 	NO_STATE = 0,
  32:C:/data/workspaces/github/de.protos.demos/src/HexagonCANDemo/etrice.HexagonCANDemo.demo/src-gen-st/room/basic/service/timing\ATimingService.c **** 	STATE_TOP = 1,
  33:C:/data/workspaces/github/de.protos.demos/src/HexagonCANDemo/etrice.HexagonCANDemo.demo/src-gen-st/room/basic/service/timing\ATimingService.c **** 	STATE_Operational = 2,
  34:C:/data/workspaces/github/de.protos.demos/src/HexagonCANDemo/etrice.HexagonCANDemo.demo/src-gen-st/room/basic/service/timing\ATimingService.c **** 	STATE_MAX = 3
  35:C:/data/workspaces/github/de.protos.demos/src/HexagonCANDemo/etrice.HexagonCANDemo.demo/src-gen-st/room/basic/service/timing\ATimingService.c **** };
  36:C:/data/workspaces/github/de.protos.demos/src/HexagonCANDemo/etrice.HexagonCANDemo.demo/src-gen-st/room/basic/service/timing\ATimingService.c **** 
  37:C:/data/workspaces/github/de.protos.demos/src/HexagonCANDemo/etrice.HexagonCANDemo.demo/src-gen-st/room/basic/service/timing\ATimingService.c **** /* transition chains */
  38:C:/data/workspaces/github/de.protos.demos/src/HexagonCANDemo/etrice.HexagonCANDemo.demo/src-gen-st/room/basic/service/timing\ATimingService.c **** enum chain_ids {
  39:C:/data/workspaces/github/de.protos.demos/src/HexagonCANDemo/etrice.HexagonCANDemo.demo/src-gen-st/room/basic/service/timing\ATimingService.c **** 	CHAIN_TRANS_INITIAL_TO__Operational = 1,
  40:C:/data/workspaces/github/de.protos.demos/src/HexagonCANDemo/etrice.HexagonCANDemo.demo/src-gen-st/room/basic/service/timing\ATimingService.c **** 	CHAIN_TRANS_tr1_FROM_Operational_TO_Operational_BY_startTimeouttimer_tr1 = 2,
  41:C:/data/workspaces/github/de.protos.demos/src/HexagonCANDemo/etrice.HexagonCANDemo.demo/src-gen-st/room/basic/service/timing\ATimingService.c **** 	CHAIN_TRANS_tr3_FROM_Operational_TO_Operational_BY_startTimertimer_tr3 = 3,
  42:C:/data/workspaces/github/de.protos.demos/src/HexagonCANDemo/etrice.HexagonCANDemo.demo/src-gen-st/room/basic/service/timing\ATimingService.c **** 	CHAIN_TRANS_tr4_FROM_Operational_TO_Operational_BY_killtimer_tr4 = 4
  43:C:/data/workspaces/github/de.protos.demos/src/HexagonCANDemo/etrice.HexagonCANDemo.demo/src-gen-st/room/basic/service/timing\ATimingService.c **** };
  44:C:/data/workspaces/github/de.protos.demos/src/HexagonCANDemo/etrice.HexagonCANDemo.demo/src-gen-st/room/basic/service/timing\ATimingService.c **** 
  45:C:/data/workspaces/github/de.protos.demos/src/HexagonCANDemo/etrice.HexagonCANDemo.demo/src-gen-st/room/basic/service/timing\ATimingService.c **** /* triggers */
  46:C:/data/workspaces/github/de.protos.demos/src/HexagonCANDemo/etrice.HexagonCANDemo.demo/src-gen-st/room/basic/service/timing\ATimingService.c **** enum triggers {
  47:C:/data/workspaces/github/de.protos.demos/src/HexagonCANDemo/etrice.HexagonCANDemo.demo/src-gen-st/room/basic/service/timing\ATimingService.c **** 	POLLING = 0,
  48:C:/data/workspaces/github/de.protos.demos/src/HexagonCANDemo/etrice.HexagonCANDemo.demo/src-gen-st/room/basic/service/timing\ATimingService.c **** 	TRIG_timer__startTimer = IFITEM_timer + EVT_SHIFT*PTimer_IN_startTimer,
  49:C:/data/workspaces/github/de.protos.demos/src/HexagonCANDemo/etrice.HexagonCANDemo.demo/src-gen-st/room/basic/service/timing\ATimingService.c **** 	TRIG_timer__startTimeout = IFITEM_timer + EVT_SHIFT*PTimer_IN_startTimeout,
  50:C:/data/workspaces/github/de.protos.demos/src/HexagonCANDemo/etrice.HexagonCANDemo.demo/src-gen-st/room/basic/service/timing\ATimingService.c **** 	TRIG_timer__kill = IFITEM_timer + EVT_SHIFT*PTimer_IN_kill
  51:C:/data/workspaces/github/de.protos.demos/src/HexagonCANDemo/etrice.HexagonCANDemo.demo/src-gen-st/room/basic/service/timing\ATimingService.c **** };
  52:C:/data/workspaces/github/de.protos.demos/src/HexagonCANDemo/etrice.HexagonCANDemo.demo/src-gen-st/room/basic/service/timing\ATimingService.c **** 
  53:C:/data/workspaces/github/de.protos.demos/src/HexagonCANDemo/etrice.HexagonCANDemo.demo/src-gen-st/room/basic/service/timing\ATimingService.c **** 
  54:C:/data/workspaces/github/de.protos.demos/src/HexagonCANDemo/etrice.HexagonCANDemo.demo/src-gen-st/room/basic/service/timing\ATimingService.c **** static void setState(ATimingService* self, etInt16 new_state) {
  27              		.loc 1 54 0
  28              		.cfi_startproc
  29              		@ args = 0, pretend = 0, frame = 8
  30              		@ frame_needed = 1, uses_anonymous_args = 0
  31              		@ link register save eliminated.
  32 0000 80B4     		push	{r7}
  33              	.LCFI0:
  34              		.cfi_def_cfa_offset 4
  35              		.cfi_offset 7, -4
  36 0002 83B0     		sub	sp, sp, #12
  37              	.LCFI1:
  38              		.cfi_def_cfa_offset 16
  39 0004 00AF     		add	r7, sp, #0
  40              	.LCFI2:
  41              		.cfi_def_cfa_register 7
  42 0006 7860     		str	r0, [r7, #4]
  43 0008 0B46     		mov	r3, r1
  44 000a 7B80     		strh	r3, [r7, #2]	@ movhi
  55:C:/data/workspaces/github/de.protos.demos/src/HexagonCANDemo/etrice.HexagonCANDemo.demo/src-gen-st/room/basic/service/timing\ATimingService.c **** 	self->state = new_state;
  45              		.loc 1 55 0
  46 000c 7B68     		ldr	r3, [r7, #4]
  47 000e 7A88     		ldrh	r2, [r7, #2]	@ movhi
  48 0010 A3F8DC22 		strh	r2, [r3, #732]	@ movhi
  56:C:/data/workspaces/github/de.protos.demos/src/HexagonCANDemo/etrice.HexagonCANDemo.demo/src-gen-st/room/basic/service/timing\ATimingService.c **** }
  49              		.loc 1 56 0
  50 0014 07F10C07 		add	r7, r7, #12
  51 0018 BD46     		mov	sp, r7
  52 001a 80BC     		pop	{r7}
  53 001c 7047     		bx	lr
  54              		.cfi_endproc
  55              	.LFE0:
  57 001e 00BF     		.section	.text.getState,"ax",%progbits
  58              		.align	2
  59              		.thumb
  60              		.thumb_func
  62              	getState:
  63              	.LFB1:
  57:C:/data/workspaces/github/de.protos.demos/src/HexagonCANDemo/etrice.HexagonCANDemo.demo/src-gen-st/room/basic/service/timing\ATimingService.c **** 
  58:C:/data/workspaces/github/de.protos.demos/src/HexagonCANDemo/etrice.HexagonCANDemo.demo/src-gen-st/room/basic/service/timing\ATimingService.c **** static etInt16 getState(ATimingService* self) {
  64              		.loc 1 58 0
  65              		.cfi_startproc
  66              		@ args = 0, pretend = 0, frame = 8
  67              		@ frame_needed = 1, uses_anonymous_args = 0
  68              		@ link register save eliminated.
  69 0000 80B4     		push	{r7}
  70              	.LCFI3:
  71              		.cfi_def_cfa_offset 4
  72              		.cfi_offset 7, -4
  73 0002 83B0     		sub	sp, sp, #12
  74              	.LCFI4:
  75              		.cfi_def_cfa_offset 16
  76 0004 00AF     		add	r7, sp, #0
  77              	.LCFI5:
  78              		.cfi_def_cfa_register 7
  79 0006 7860     		str	r0, [r7, #4]
  59:C:/data/workspaces/github/de.protos.demos/src/HexagonCANDemo/etrice.HexagonCANDemo.demo/src-gen-st/room/basic/service/timing\ATimingService.c **** 	return self->state;
  80              		.loc 1 59 0
  81 0008 7B68     		ldr	r3, [r7, #4]
  82 000a B3F8DC32 		ldrh	r3, [r3, #732]
  83 000e 1BB2     		sxth	r3, r3
  60:C:/data/workspaces/github/de.protos.demos/src/HexagonCANDemo/etrice.HexagonCANDemo.demo/src-gen-st/room/basic/service/timing\ATimingService.c **** }
  84              		.loc 1 60 0
  85 0010 1846     		mov	r0, r3
  86 0012 07F10C07 		add	r7, r7, #12
  87 0016 BD46     		mov	sp, r7
  88 0018 80BC     		pop	{r7}
  89 001a 7047     		bx	lr
  90              		.cfi_endproc
  91              	.LFE1:
  93              		.section	.text.entry_Operational,"ax",%progbits
  94              		.align	2
  95              		.thumb
  96              		.thumb_func
  98              	entry_Operational:
  99              	.LFB2:
  61:C:/data/workspaces/github/de.protos.demos/src/HexagonCANDemo/etrice.HexagonCANDemo.demo/src-gen-st/room/basic/service/timing\ATimingService.c **** 
  62:C:/data/workspaces/github/de.protos.demos/src/HexagonCANDemo/etrice.HexagonCANDemo.demo/src-gen-st/room/basic/service/timing\ATimingService.c **** /* Entry and Exit Codes */
  63:C:/data/workspaces/github/de.protos.demos/src/HexagonCANDemo/etrice.HexagonCANDemo.demo/src-gen-st/room/basic/service/timing\ATimingService.c **** static void entry_Operational(ATimingService* self) {
 100              		.loc 1 63 0
 101              		.cfi_startproc
 102              		@ args = 0, pretend = 0, frame = 8
 103              		@ frame_needed = 1, uses_anonymous_args = 0
 104              		@ link register save eliminated.
 105 0000 80B4     		push	{r7}
 106              	.LCFI6:
 107              		.cfi_def_cfa_offset 4
 108              		.cfi_offset 7, -4
 109 0002 83B0     		sub	sp, sp, #12
 110              	.LCFI7:
 111              		.cfi_def_cfa_offset 16
 112 0004 00AF     		add	r7, sp, #0
 113              	.LCFI8:
 114              		.cfi_def_cfa_register 7
 115 0006 7860     		str	r0, [r7, #4]
  64:C:/data/workspaces/github/de.protos.demos/src/HexagonCANDemo/etrice.HexagonCANDemo.demo/src-gen-st/room/basic/service/timing\ATimingService.c **** 	/* prepare */
  65:C:/data/workspaces/github/de.protos.demos/src/HexagonCANDemo/etrice.HexagonCANDemo.demo/src-gen-st/room/basic/service/timing\ATimingService.c **** }
 116              		.loc 1 65 0
 117 0008 07F10C07 		add	r7, r7, #12
 118 000c BD46     		mov	sp, r7
 119 000e 80BC     		pop	{r7}
 120 0010 7047     		bx	lr
 121              		.cfi_endproc
 122              	.LFE2:
 124 0012 00BF     		.section	.text.do_Operational,"ax",%progbits
 125              		.align	2
 126              		.thumb
 127              		.thumb_func
 129              	do_Operational:
 130              	.LFB3:
  66:C:/data/workspaces/github/de.protos.demos/src/HexagonCANDemo/etrice.HexagonCANDemo.demo/src-gen-st/room/basic/service/timing\ATimingService.c **** static  void do_Operational(ATimingService* self) {
 131              		.loc 1 66 0
 132              		.cfi_startproc
 133              		@ args = 0, pretend = 0, frame = 24
 134              		@ frame_needed = 1, uses_anonymous_args = 0
 135 0000 80B5     		push	{r7, lr}
 136              	.LCFI9:
 137              		.cfi_def_cfa_offset 8
 138              		.cfi_offset 7, -8
 139              		.cfi_offset 14, -4
 140 0002 86B0     		sub	sp, sp, #24
 141              	.LCFI10:
 142              		.cfi_def_cfa_offset 32
 143 0004 00AF     		add	r7, sp, #0
 144              	.LCFI11:
 145              		.cfi_def_cfa_register 7
 146 0006 7860     		str	r0, [r7, #4]
  67:C:/data/workspaces/github/de.protos.demos/src/HexagonCANDemo/etrice.HexagonCANDemo.demo/src-gen-st/room/basic/service/timing\ATimingService.c **** 	/* maintain timers */
  68:C:/data/workspaces/github/de.protos.demos/src/HexagonCANDemo/etrice.HexagonCANDemo.demo/src-gen-st/room/basic/service/timing\ATimingService.c **** 	etTimerControlBlock* temp;
  69:C:/data/workspaces/github/de.protos.demos/src/HexagonCANDemo/etrice.HexagonCANDemo.demo/src-gen-st/room/basic/service/timing\ATimingService.c **** 	etTime t;
  70:C:/data/workspaces/github/de.protos.demos/src/HexagonCANDemo/etrice.HexagonCANDemo.demo/src-gen-st/room/basic/service/timing\ATimingService.c **** 	
  71:C:/data/workspaces/github/de.protos.demos/src/HexagonCANDemo/etrice.HexagonCANDemo.demo/src-gen-st/room/basic/service/timing\ATimingService.c **** 	getTimeFromTarget(&t);
 147              		.loc 1 71 0
 148 0008 07F10C03 		add	r3, r7, #12
 149 000c 1846     		mov	r0, r3
 150 000e FFF7FEFF 		bl	getTimeFromTarget
  72:C:/data/workspaces/github/de.protos.demos/src/HexagonCANDemo/etrice.HexagonCANDemo.demo/src-gen-st/room/basic/service/timing\ATimingService.c **** 	while (usedTcbsRoot !=0 ){
 151              		.loc 1 72 0
 152 0012 3CE0     		b	.L6
 153              	.L11:
  73:C:/data/workspaces/github/de.protos.demos/src/HexagonCANDemo/etrice.HexagonCANDemo.demo/src-gen-st/room/basic/service/timing\ATimingService.c **** 		if (isTimeGreater(&t,&(usedTcbsRoot->expTime))){
 154              		.loc 1 73 0
 155 0014 7B68     		ldr	r3, [r7, #4]
 156 0016 D3F8D432 		ldr	r3, [r3, #724]
 157 001a 07F10C02 		add	r2, r7, #12
 158 001e 7868     		ldr	r0, [r7, #4]
 159 0020 1146     		mov	r1, r2
 160 0022 1A46     		mov	r2, r3
 161 0024 FFF7FEFF 		bl	ATimingService_isTimeGreater
 162 0028 0346     		mov	r3, r0
 163 002a 002B     		cmp	r3, #0
 164 002c 35D0     		beq	.L12
  74:C:/data/workspaces/github/de.protos.demos/src/HexagonCANDemo/etrice.HexagonCANDemo.demo/src-gen-st/room/basic/service/timing\ATimingService.c **** 			timer_timeout(usedTcbsRoot->portIdx);
 165              		.loc 1 74 0
 166 002e 7B68     		ldr	r3, [r7, #4]
 167 0030 1B68     		ldr	r3, [r3, #0]
 168 0032 1A46     		mov	r2, r3
 169 0034 7B68     		ldr	r3, [r7, #4]
 170 0036 D3F8D432 		ldr	r3, [r3, #724]
 171 003a 1B69     		ldr	r3, [r3, #16]
 172 003c 1046     		mov	r0, r2
 173 003e 1946     		mov	r1, r3
 174 0040 FFF7FEFF 		bl	PTimerReplPort_timeout
  75:C:/data/workspaces/github/de.protos.demos/src/HexagonCANDemo/etrice.HexagonCANDemo.demo/src-gen-st/room/basic/service/timing\ATimingService.c **** 			temp=usedTcbsRoot;
 175              		.loc 1 75 0
 176 0044 7B68     		ldr	r3, [r7, #4]
 177 0046 D3F8D432 		ldr	r3, [r3, #724]
 178 004a 7B61     		str	r3, [r7, #20]
  76:C:/data/workspaces/github/de.protos.demos/src/HexagonCANDemo/etrice.HexagonCANDemo.demo/src-gen-st/room/basic/service/timing\ATimingService.c **** 			usedTcbsRoot=usedTcbsRoot->next;
 179              		.loc 1 76 0
 180 004c 7B68     		ldr	r3, [r7, #4]
 181 004e D3F8D432 		ldr	r3, [r3, #724]
 182 0052 5A69     		ldr	r2, [r3, #20]
 183 0054 7B68     		ldr	r3, [r7, #4]
 184 0056 C3F8D422 		str	r2, [r3, #724]
  77:C:/data/workspaces/github/de.protos.demos/src/HexagonCANDemo/etrice.HexagonCANDemo.demo/src-gen-st/room/basic/service/timing\ATimingService.c **** 			if((temp->pTime.sec==0)&&(temp->pTime.nSec==0)){
 185              		.loc 1 77 0
 186 005a 7B69     		ldr	r3, [r7, #20]
 187 005c 9B68     		ldr	r3, [r3, #8]
 188 005e 002B     		cmp	r3, #0
 189 0060 08D1     		bne	.L8
 190              		.loc 1 77 0 is_stmt 0 discriminator 1
 191 0062 7B69     		ldr	r3, [r7, #20]
 192 0064 DB68     		ldr	r3, [r3, #12]
 193 0066 002B     		cmp	r3, #0
 194 0068 04D1     		bne	.L8
  78:C:/data/workspaces/github/de.protos.demos/src/HexagonCANDemo/etrice.HexagonCANDemo.demo/src-gen-st/room/basic/service/timing\ATimingService.c **** 				/* single shot timer */
  79:C:/data/workspaces/github/de.protos.demos/src/HexagonCANDemo/etrice.HexagonCANDemo.demo/src-gen-st/room/basic/service/timing\ATimingService.c **** 				returnTcb(temp);
 195              		.loc 1 79 0 is_stmt 1
 196 006a 7868     		ldr	r0, [r7, #4]
 197 006c 7969     		ldr	r1, [r7, #20]
 198 006e FFF7FEFF 		bl	ATimingService_returnTcb
 199 0072 0CE0     		b	.L6
 200              	.L8:
  80:C:/data/workspaces/github/de.protos.demos/src/HexagonCANDemo/etrice.HexagonCANDemo.demo/src-gen-st/room/basic/service/timing\ATimingService.c **** 			}else{
  81:C:/data/workspaces/github/de.protos.demos/src/HexagonCANDemo/etrice.HexagonCANDemo.demo/src-gen-st/room/basic/service/timing\ATimingService.c **** 				/* periodic timer */
  82:C:/data/workspaces/github/de.protos.demos/src/HexagonCANDemo/etrice.HexagonCANDemo.demo/src-gen-st/room/basic/service/timing\ATimingService.c **** 				addTime(&temp->expTime,&temp->pTime);
 201              		.loc 1 82 0
 202 0074 7A69     		ldr	r2, [r7, #20]
 203 0076 7B69     		ldr	r3, [r7, #20]
 204 0078 03F10803 		add	r3, r3, #8
 205 007c 7868     		ldr	r0, [r7, #4]
 206 007e 1146     		mov	r1, r2
 207 0080 1A46     		mov	r2, r3
 208 0082 FFF7FEFF 		bl	ATimingService_addTime
  83:C:/data/workspaces/github/de.protos.demos/src/HexagonCANDemo/etrice.HexagonCANDemo.demo/src-gen-st/room/basic/service/timing\ATimingService.c **** 				putTcbToUsedList(temp);
 209              		.loc 1 83 0
 210 0086 7868     		ldr	r0, [r7, #4]
 211 0088 7969     		ldr	r1, [r7, #20]
 212 008a FFF7FEFF 		bl	ATimingService_putTcbToUsedList
 213              	.L6:
  72:C:/data/workspaces/github/de.protos.demos/src/HexagonCANDemo/etrice.HexagonCANDemo.demo/src-gen-st/room/basic/service/timing\ATimingService.c **** 	while (usedTcbsRoot !=0 ){
 214              		.loc 1 72 0 discriminator 1
 215 008e 7B68     		ldr	r3, [r7, #4]
 216 0090 D3F8D432 		ldr	r3, [r3, #724]
 217 0094 002B     		cmp	r3, #0
 218 0096 BDD1     		bne	.L11
 219 0098 00E0     		b	.L5
 220              	.L12:
  84:C:/data/workspaces/github/de.protos.demos/src/HexagonCANDemo/etrice.HexagonCANDemo.demo/src-gen-st/room/basic/service/timing\ATimingService.c **** 				}
  85:C:/data/workspaces/github/de.protos.demos/src/HexagonCANDemo/etrice.HexagonCANDemo.demo/src-gen-st/room/basic/service/timing\ATimingService.c **** 			}else{
  86:C:/data/workspaces/github/de.protos.demos/src/HexagonCANDemo/etrice.HexagonCANDemo.demo/src-gen-st/room/basic/service/timing\ATimingService.c **** 				break;
 221              		.loc 1 86 0
 222 009a 00BF     		nop
 223              	.L5:
  87:C:/data/workspaces/github/de.protos.demos/src/HexagonCANDemo/etrice.HexagonCANDemo.demo/src-gen-st/room/basic/service/timing\ATimingService.c **** 				}
  88:C:/data/workspaces/github/de.protos.demos/src/HexagonCANDemo/etrice.HexagonCANDemo.demo/src-gen-st/room/basic/service/timing\ATimingService.c **** 		}
  89:C:/data/workspaces/github/de.protos.demos/src/HexagonCANDemo/etrice.HexagonCANDemo.demo/src-gen-st/room/basic/service/timing\ATimingService.c **** }
 224              		.loc 1 89 0
 225 009c 07F11807 		add	r7, r7, #24
 226 00a0 BD46     		mov	sp, r7
 227 00a2 80BD     		pop	{r7, pc}
 228              		.cfi_endproc
 229              	.LFE3:
 231              		.section	.text.action_TRANS_INITIAL_TO__Operational,"ax",%progbits
 232              		.align	2
 233              		.thumb
 234              		.thumb_func
 236              	action_TRANS_INITIAL_TO__Operational:
 237              	.LFB4:
  90:C:/data/workspaces/github/de.protos.demos/src/HexagonCANDemo/etrice.HexagonCANDemo.demo/src-gen-st/room/basic/service/timing\ATimingService.c **** 
  91:C:/data/workspaces/github/de.protos.demos/src/HexagonCANDemo/etrice.HexagonCANDemo.demo/src-gen-st/room/basic/service/timing\ATimingService.c **** /* Action Codes */
  92:C:/data/workspaces/github/de.protos.demos/src/HexagonCANDemo/etrice.HexagonCANDemo.demo/src-gen-st/room/basic/service/timing\ATimingService.c **** static void action_TRANS_INITIAL_TO__Operational(ATimingService* self) {
 238              		.loc 1 92 0
 239              		.cfi_startproc
 240              		@ args = 0, pretend = 0, frame = 16
 241              		@ frame_needed = 1, uses_anonymous_args = 0
 242              		@ link register save eliminated.
 243 0000 80B4     		push	{r7}
 244              	.LCFI12:
 245              		.cfi_def_cfa_offset 4
 246              		.cfi_offset 7, -4
 247 0002 85B0     		sub	sp, sp, #20
 248              	.LCFI13:
 249              		.cfi_def_cfa_offset 24
 250 0004 00AF     		add	r7, sp, #0
 251              	.LCFI14:
 252              		.cfi_def_cfa_register 7
 253 0006 7860     		str	r0, [r7, #4]
  93:C:/data/workspaces/github/de.protos.demos/src/HexagonCANDemo/etrice.HexagonCANDemo.demo/src-gen-st/room/basic/service/timing\ATimingService.c **** 	int i;
  94:C:/data/workspaces/github/de.protos.demos/src/HexagonCANDemo/etrice.HexagonCANDemo.demo/src-gen-st/room/basic/service/timing\ATimingService.c **** 	usedTcbsRoot=0;
 254              		.loc 1 94 0
 255 0008 7B68     		ldr	r3, [r7, #4]
 256 000a 4FF00002 		mov	r2, #0
 257 000e C3F8D422 		str	r2, [r3, #724]
  95:C:/data/workspaces/github/de.protos.demos/src/HexagonCANDemo/etrice.HexagonCANDemo.demo/src-gen-st/room/basic/service/timing\ATimingService.c **** 	freeTcbsRoot=&tcbs[0];
 258              		.loc 1 95 0
 259 0012 7B68     		ldr	r3, [r7, #4]
 260 0014 03F10402 		add	r2, r3, #4
 261 0018 7B68     		ldr	r3, [r7, #4]
 262 001a C3F8D822 		str	r2, [r3, #728]
  96:C:/data/workspaces/github/de.protos.demos/src/HexagonCANDemo/etrice.HexagonCANDemo.demo/src-gen-st/room/basic/service/timing\ATimingService.c **** 	tcbs[ET_NB_OF_TCBS-1].next=0;
 263              		.loc 1 96 0
 264 001e 7B68     		ldr	r3, [r7, #4]
 265 0020 4FF00002 		mov	r2, #0
 266 0024 C3F8D022 		str	r2, [r3, #720]
  97:C:/data/workspaces/github/de.protos.demos/src/HexagonCANDemo/etrice.HexagonCANDemo.demo/src-gen-st/room/basic/service/timing\ATimingService.c **** 	for (i=0;i<ET_NB_OF_TCBS-1;i++){
 267              		.loc 1 97 0
 268 0028 4FF00003 		mov	r3, #0
 269 002c FB60     		str	r3, [r7, #12]
 270 002e 1CE0     		b	.L14
 271              	.L15:
  98:C:/data/workspaces/github/de.protos.demos/src/HexagonCANDemo/etrice.HexagonCANDemo.demo/src-gen-st/room/basic/service/timing\ATimingService.c **** 		tcbs[i].next=&tcbs[i+1];
 272              		.loc 1 98 0 discriminator 2
 273 0030 FB68     		ldr	r3, [r7, #12]
 274 0032 03F10102 		add	r2, r3, #1
 275 0036 1346     		mov	r3, r2
 276 0038 4FEA4303 		lsl	r3, r3, #1
 277 003c 9B18     		adds	r3, r3, r2
 278 003e 4FEAC303 		lsl	r3, r3, #3
 279 0042 7A68     		ldr	r2, [r7, #4]
 280 0044 D318     		adds	r3, r2, r3
 281 0046 03F10401 		add	r1, r3, #4
 282 004a 7868     		ldr	r0, [r7, #4]
 283 004c FA68     		ldr	r2, [r7, #12]
 284 004e 1346     		mov	r3, r2
 285 0050 4FEA4303 		lsl	r3, r3, #1
 286 0054 9B18     		adds	r3, r3, r2
 287 0056 4FEAC303 		lsl	r3, r3, #3
 288 005a C318     		adds	r3, r0, r3
 289 005c 03F11803 		add	r3, r3, #24
 290 0060 1960     		str	r1, [r3, #0]
  97:C:/data/workspaces/github/de.protos.demos/src/HexagonCANDemo/etrice.HexagonCANDemo.demo/src-gen-st/room/basic/service/timing\ATimingService.c **** 	for (i=0;i<ET_NB_OF_TCBS-1;i++){
 291              		.loc 1 97 0 discriminator 2
 292 0062 FB68     		ldr	r3, [r7, #12]
 293 0064 03F10103 		add	r3, r3, #1
 294 0068 FB60     		str	r3, [r7, #12]
 295              	.L14:
  97:C:/data/workspaces/github/de.protos.demos/src/HexagonCANDemo/etrice.HexagonCANDemo.demo/src-gen-st/room/basic/service/timing\ATimingService.c **** 	for (i=0;i<ET_NB_OF_TCBS-1;i++){
 296              		.loc 1 97 0 is_stmt 0 discriminator 1
 297 006a FB68     		ldr	r3, [r7, #12]
 298 006c 1C2B     		cmp	r3, #28
 299 006e DFDD     		ble	.L15
  99:C:/data/workspaces/github/de.protos.demos/src/HexagonCANDemo/etrice.HexagonCANDemo.demo/src-gen-st/room/basic/service/timing\ATimingService.c **** 		}
 100:C:/data/workspaces/github/de.protos.demos/src/HexagonCANDemo/etrice.HexagonCANDemo.demo/src-gen-st/room/basic/service/timing\ATimingService.c **** }
 300              		.loc 1 100 0 is_stmt 1
 301 0070 07F11407 		add	r7, r7, #20
 302 0074 BD46     		mov	sp, r7
 303 0076 80BC     		pop	{r7}
 304 0078 7047     		bx	lr
 305              		.cfi_endproc
 306              	.LFE4:
 308 007a 00BF     		.section	.text.action_TRANS_tr1_FROM_Operational_TO_Operational_BY_startTimeouttimer_tr1,"ax",%pro
 309              		.align	2
 310              		.thumb
 311              		.thumb_func
 313              	action_TRANS_tr1_FROM_Operational_TO_Operational_BY_startTimeouttimer_tr1:
 314              	.LFB5:
 101:C:/data/workspaces/github/de.protos.demos/src/HexagonCANDemo/etrice.HexagonCANDemo.demo/src-gen-st/room/basic/service/timing\ATimingService.c **** static void action_TRANS_tr1_FROM_Operational_TO_Operational_BY_startTimeouttimer_tr1(ATimingServic
 315              		.loc 1 101 0
 316              		.cfi_startproc
 317              		@ args = 0, pretend = 0, frame = 32
 318              		@ frame_needed = 1, uses_anonymous_args = 0
 319 0000 80B5     		push	{r7, lr}
 320              	.LCFI15:
 321              		.cfi_def_cfa_offset 8
 322              		.cfi_offset 7, -8
 323              		.cfi_offset 14, -4
 324 0002 88B0     		sub	sp, sp, #32
 325              	.LCFI16:
 326              		.cfi_def_cfa_offset 40
 327 0004 00AF     		add	r7, sp, #0
 328              	.LCFI17:
 329              		.cfi_def_cfa_register 7
 330 0006 F860     		str	r0, [r7, #12]
 331 0008 B960     		str	r1, [r7, #8]
 332 000a 7A60     		str	r2, [r7, #4]
 102:C:/data/workspaces/github/de.protos.demos/src/HexagonCANDemo/etrice.HexagonCANDemo.demo/src-gen-st/room/basic/service/timing\ATimingService.c **** 	etTimerControlBlock* timer = getTcb();
 333              		.loc 1 102 0
 334 000c F868     		ldr	r0, [r7, #12]
 335 000e FFF7FEFF 		bl	ATimingService_getTcb
 336 0012 F861     		str	r0, [r7, #28]
 103:C:/data/workspaces/github/de.protos.demos/src/HexagonCANDemo/etrice.HexagonCANDemo.demo/src-gen-st/room/basic/service/timing\ATimingService.c **** 	etTime t;
 104:C:/data/workspaces/github/de.protos.demos/src/HexagonCANDemo/etrice.HexagonCANDemo.demo/src-gen-st/room/basic/service/timing\ATimingService.c **** 	if (timer!= 0){
 337              		.loc 1 104 0
 338 0014 FB69     		ldr	r3, [r7, #28]
 339 0016 002B     		cmp	r3, #0
 340 0018 3BD0     		beq	.L16
 105:C:/data/workspaces/github/de.protos.demos/src/HexagonCANDemo/etrice.HexagonCANDemo.demo/src-gen-st/room/basic/service/timing\ATimingService.c **** 		t.sec=time/1000;
 341              		.loc 1 105 0
 342 001a 7A68     		ldr	r2, [r7, #4]
 343 001c 44F6D353 		movw	r3, #19923
 344 0020 C1F26203 		movt	r3, 4194
 345 0024 A3FB0213 		umull	r1, r3, r3, r2
 346 0028 4FEA9313 		lsr	r3, r3, #6
 347 002c 7B61     		str	r3, [r7, #20]
 106:C:/data/workspaces/github/de.protos.demos/src/HexagonCANDemo/etrice.HexagonCANDemo.demo/src-gen-st/room/basic/service/timing\ATimingService.c **** 		t.nSec=(time%1000)*1000000L;
 348              		.loc 1 106 0
 349 002e 7A68     		ldr	r2, [r7, #4]
 350 0030 44F6D353 		movw	r3, #19923
 351 0034 C1F26203 		movt	r3, 4194
 352 0038 A3FB0213 		umull	r1, r3, r3, r2
 353 003c 4FEA9313 		lsr	r3, r3, #6
 354 0040 4FF47A71 		mov	r1, #1000
 355 0044 01FB03F3 		mul	r3, r1, r3
 356 0048 D31A     		subs	r3, r2, r3
 357 004a 44F24022 		movw	r2, #16960
 358 004e C0F20F02 		movt	r2, 15
 359 0052 02FB03F3 		mul	r3, r2, r3
 360 0056 BB61     		str	r3, [r7, #24]
 107:C:/data/workspaces/github/de.protos.demos/src/HexagonCANDemo/etrice.HexagonCANDemo.demo/src-gen-st/room/basic/service/timing\ATimingService.c **** 		timer->pTime.sec = 0;
 361              		.loc 1 107 0
 362 0058 FB69     		ldr	r3, [r7, #28]
 363 005a 4FF00002 		mov	r2, #0
 364 005e 9A60     		str	r2, [r3, #8]
 108:C:/data/workspaces/github/de.protos.demos/src/HexagonCANDemo/etrice.HexagonCANDemo.demo/src-gen-st/room/basic/service/timing\ATimingService.c **** 		timer->pTime.nSec = 0;
 365              		.loc 1 108 0
 366 0060 FB69     		ldr	r3, [r7, #28]
 367 0062 4FF00002 		mov	r2, #0
 368 0066 DA60     		str	r2, [r3, #12]
 109:C:/data/workspaces/github/de.protos.demos/src/HexagonCANDemo/etrice.HexagonCANDemo.demo/src-gen-st/room/basic/service/timing\ATimingService.c **** 		timer->portIdx=((etReplSubPort*)ifitem)->index;
 369              		.loc 1 109 0
 370 0068 BB68     		ldr	r3, [r7, #8]
 371 006a 1B7B     		ldrb	r3, [r3, #12]	@ zero_extendqisi2
 372 006c 1A46     		mov	r2, r3
 373 006e FB69     		ldr	r3, [r7, #28]
 374 0070 1A61     		str	r2, [r3, #16]
 110:C:/data/workspaces/github/de.protos.demos/src/HexagonCANDemo/etrice.HexagonCANDemo.demo/src-gen-st/room/basic/service/timing\ATimingService.c **** 		getTimeFromTarget(&(timer->expTime));
 375              		.loc 1 110 0
 376 0072 FB69     		ldr	r3, [r7, #28]
 377 0074 1846     		mov	r0, r3
 378 0076 FFF7FEFF 		bl	getTimeFromTarget
 111:C:/data/workspaces/github/de.protos.demos/src/HexagonCANDemo/etrice.HexagonCANDemo.demo/src-gen-st/room/basic/service/timing\ATimingService.c **** 		addTime(&(timer->expTime),&t);
 379              		.loc 1 111 0
 380 007a FA69     		ldr	r2, [r7, #28]
 381 007c 07F11403 		add	r3, r7, #20
 382 0080 F868     		ldr	r0, [r7, #12]
 383 0082 1146     		mov	r1, r2
 384 0084 1A46     		mov	r2, r3
 385 0086 FFF7FEFF 		bl	ATimingService_addTime
 112:C:/data/workspaces/github/de.protos.demos/src/HexagonCANDemo/etrice.HexagonCANDemo.demo/src-gen-st/room/basic/service/timing\ATimingService.c **** 		putTcbToUsedList(timer);
 386              		.loc 1 112 0
 387 008a F868     		ldr	r0, [r7, #12]
 388 008c F969     		ldr	r1, [r7, #28]
 389 008e FFF7FEFF 		bl	ATimingService_putTcbToUsedList
 390              	.L16:
 113:C:/data/workspaces/github/de.protos.demos/src/HexagonCANDemo/etrice.HexagonCANDemo.demo/src-gen-st/room/basic/service/timing\ATimingService.c **** 		}
 114:C:/data/workspaces/github/de.protos.demos/src/HexagonCANDemo/etrice.HexagonCANDemo.demo/src-gen-st/room/basic/service/timing\ATimingService.c **** }
 391              		.loc 1 114 0
 392 0092 07F12007 		add	r7, r7, #32
 393 0096 BD46     		mov	sp, r7
 394 0098 80BD     		pop	{r7, pc}
 395              		.cfi_endproc
 396              	.LFE5:
 398 009a 00BF     		.section	.text.action_TRANS_tr3_FROM_Operational_TO_Operational_BY_startTimertimer_tr3,"ax",%progb
 399              		.align	2
 400              		.thumb
 401              		.thumb_func
 403              	action_TRANS_tr3_FROM_Operational_TO_Operational_BY_startTimertimer_tr3:
 404              	.LFB6:
 115:C:/data/workspaces/github/de.protos.demos/src/HexagonCANDemo/etrice.HexagonCANDemo.demo/src-gen-st/room/basic/service/timing\ATimingService.c **** static void action_TRANS_tr3_FROM_Operational_TO_Operational_BY_startTimertimer_tr3(ATimingService*
 405              		.loc 1 115 0
 406              		.cfi_startproc
 407              		@ args = 0, pretend = 0, frame = 32
 408              		@ frame_needed = 1, uses_anonymous_args = 0
 409 0000 80B5     		push	{r7, lr}
 410              	.LCFI18:
 411              		.cfi_def_cfa_offset 8
 412              		.cfi_offset 7, -8
 413              		.cfi_offset 14, -4
 414 0002 88B0     		sub	sp, sp, #32
 415              	.LCFI19:
 416              		.cfi_def_cfa_offset 40
 417 0004 00AF     		add	r7, sp, #0
 418              	.LCFI20:
 419              		.cfi_def_cfa_register 7
 420 0006 F860     		str	r0, [r7, #12]
 421 0008 B960     		str	r1, [r7, #8]
 422 000a 7A60     		str	r2, [r7, #4]
 116:C:/data/workspaces/github/de.protos.demos/src/HexagonCANDemo/etrice.HexagonCANDemo.demo/src-gen-st/room/basic/service/timing\ATimingService.c **** 	etTimerControlBlock* timer = getTcb();
 423              		.loc 1 116 0
 424 000c F868     		ldr	r0, [r7, #12]
 425 000e FFF7FEFF 		bl	ATimingService_getTcb
 426 0012 F861     		str	r0, [r7, #28]
 117:C:/data/workspaces/github/de.protos.demos/src/HexagonCANDemo/etrice.HexagonCANDemo.demo/src-gen-st/room/basic/service/timing\ATimingService.c **** 	etTime t;
 118:C:/data/workspaces/github/de.protos.demos/src/HexagonCANDemo/etrice.HexagonCANDemo.demo/src-gen-st/room/basic/service/timing\ATimingService.c **** 	if (timer!= 0){
 427              		.loc 1 118 0
 428 0014 FB69     		ldr	r3, [r7, #28]
 429 0016 002B     		cmp	r3, #0
 430 0018 3CD0     		beq	.L18
 119:C:/data/workspaces/github/de.protos.demos/src/HexagonCANDemo/etrice.HexagonCANDemo.demo/src-gen-st/room/basic/service/timing\ATimingService.c **** 		t.sec=time/1000;
 431              		.loc 1 119 0
 432 001a 7A68     		ldr	r2, [r7, #4]
 433 001c 44F6D353 		movw	r3, #19923
 434 0020 C1F26203 		movt	r3, 4194
 435 0024 A3FB0213 		umull	r1, r3, r3, r2
 436 0028 4FEA9313 		lsr	r3, r3, #6
 437 002c 7B61     		str	r3, [r7, #20]
 120:C:/data/workspaces/github/de.protos.demos/src/HexagonCANDemo/etrice.HexagonCANDemo.demo/src-gen-st/room/basic/service/timing\ATimingService.c **** 		t.nSec=(time%1000)*1000000L;
 438              		.loc 1 120 0
 439 002e 7A68     		ldr	r2, [r7, #4]
 440 0030 44F6D353 		movw	r3, #19923
 441 0034 C1F26203 		movt	r3, 4194
 442 0038 A3FB0213 		umull	r1, r3, r3, r2
 443 003c 4FEA9313 		lsr	r3, r3, #6
 444 0040 4FF47A71 		mov	r1, #1000
 445 0044 01FB03F3 		mul	r3, r1, r3
 446 0048 D31A     		subs	r3, r2, r3
 447 004a 44F24022 		movw	r2, #16960
 448 004e C0F20F02 		movt	r2, 15
 449 0052 02FB03F3 		mul	r3, r2, r3
 450 0056 BB61     		str	r3, [r7, #24]
 121:C:/data/workspaces/github/de.protos.demos/src/HexagonCANDemo/etrice.HexagonCANDemo.demo/src-gen-st/room/basic/service/timing\ATimingService.c **** 		timer->pTime = t;
 451              		.loc 1 121 0
 452 0058 FB69     		ldr	r3, [r7, #28]
 453 005a 03F10803 		add	r3, r3, #8
 454 005e 07F11402 		add	r2, r7, #20
 455 0062 92E80300 		ldmia	r2, {r0, r1}
 456 0066 83E80300 		stmia	r3, {r0, r1}
 122:C:/data/workspaces/github/de.protos.demos/src/HexagonCANDemo/etrice.HexagonCANDemo.demo/src-gen-st/room/basic/service/timing\ATimingService.c **** 		timer->portIdx=((etReplSubPort*)ifitem)->index;
 457              		.loc 1 122 0
 458 006a BB68     		ldr	r3, [r7, #8]
 459 006c 1B7B     		ldrb	r3, [r3, #12]	@ zero_extendqisi2
 460 006e 1A46     		mov	r2, r3
 461 0070 FB69     		ldr	r3, [r7, #28]
 462 0072 1A61     		str	r2, [r3, #16]
 123:C:/data/workspaces/github/de.protos.demos/src/HexagonCANDemo/etrice.HexagonCANDemo.demo/src-gen-st/room/basic/service/timing\ATimingService.c **** 		getTimeFromTarget(&(timer->expTime));
 463              		.loc 1 123 0
 464 0074 FB69     		ldr	r3, [r7, #28]
 465 0076 1846     		mov	r0, r3
 466 0078 FFF7FEFF 		bl	getTimeFromTarget
 124:C:/data/workspaces/github/de.protos.demos/src/HexagonCANDemo/etrice.HexagonCANDemo.demo/src-gen-st/room/basic/service/timing\ATimingService.c **** 		addTime(&(timer->expTime),&t);
 467              		.loc 1 124 0
 468 007c FA69     		ldr	r2, [r7, #28]
 469 007e 07F11403 		add	r3, r7, #20
 470 0082 F868     		ldr	r0, [r7, #12]
 471 0084 1146     		mov	r1, r2
 472 0086 1A46     		mov	r2, r3
 473 0088 FFF7FEFF 		bl	ATimingService_addTime
 125:C:/data/workspaces/github/de.protos.demos/src/HexagonCANDemo/etrice.HexagonCANDemo.demo/src-gen-st/room/basic/service/timing\ATimingService.c **** 		putTcbToUsedList(timer);
 474              		.loc 1 125 0
 475 008c F868     		ldr	r0, [r7, #12]
 476 008e F969     		ldr	r1, [r7, #28]
 477 0090 FFF7FEFF 		bl	ATimingService_putTcbToUsedList
 478              	.L18:
 126:C:/data/workspaces/github/de.protos.demos/src/HexagonCANDemo/etrice.HexagonCANDemo.demo/src-gen-st/room/basic/service/timing\ATimingService.c **** 		}
 127:C:/data/workspaces/github/de.protos.demos/src/HexagonCANDemo/etrice.HexagonCANDemo.demo/src-gen-st/room/basic/service/timing\ATimingService.c **** }
 479              		.loc 1 127 0
 480 0094 07F12007 		add	r7, r7, #32
 481 0098 BD46     		mov	sp, r7
 482 009a 80BD     		pop	{r7, pc}
 483              		.cfi_endproc
 484              	.LFE6:
 486              		.section	.text.action_TRANS_tr4_FROM_Operational_TO_Operational_BY_killtimer_tr4,"ax",%progbits
 487              		.align	2
 488              		.thumb
 489              		.thumb_func
 491              	action_TRANS_tr4_FROM_Operational_TO_Operational_BY_killtimer_tr4:
 492              	.LFB7:
 128:C:/data/workspaces/github/de.protos.demos/src/HexagonCANDemo/etrice.HexagonCANDemo.demo/src-gen-st/room/basic/service/timing\ATimingService.c **** static void action_TRANS_tr4_FROM_Operational_TO_Operational_BY_killtimer_tr4(ATimingService* self,
 493              		.loc 1 128 0
 494              		.cfi_startproc
 495              		@ args = 0, pretend = 0, frame = 8
 496              		@ frame_needed = 1, uses_anonymous_args = 0
 497 0000 80B5     		push	{r7, lr}
 498              	.LCFI21:
 499              		.cfi_def_cfa_offset 8
 500              		.cfi_offset 7, -8
 501              		.cfi_offset 14, -4
 502 0002 82B0     		sub	sp, sp, #8
 503              	.LCFI22:
 504              		.cfi_def_cfa_offset 16
 505 0004 00AF     		add	r7, sp, #0
 506              	.LCFI23:
 507              		.cfi_def_cfa_register 7
 508 0006 7860     		str	r0, [r7, #4]
 509 0008 3960     		str	r1, [r7, #0]
 129:C:/data/workspaces/github/de.protos.demos/src/HexagonCANDemo/etrice.HexagonCANDemo.demo/src-gen-st/room/basic/service/timing\ATimingService.c **** 	removeTcbFromUsedList(((etReplSubPort*)ifitem)->index);
 510              		.loc 1 129 0
 511 000a 3B68     		ldr	r3, [r7, #0]
 512 000c 1B7B     		ldrb	r3, [r3, #12]	@ zero_extendqisi2
 513 000e 7868     		ldr	r0, [r7, #4]
 514 0010 1946     		mov	r1, r3
 515 0012 FFF7FEFF 		bl	ATimingService_removeTcbFromUsedList
 130:C:/data/workspaces/github/de.protos.demos/src/HexagonCANDemo/etrice.HexagonCANDemo.demo/src-gen-st/room/basic/service/timing\ATimingService.c **** }
 516              		.loc 1 130 0
 517 0016 07F10807 		add	r7, r7, #8
 518 001a BD46     		mov	sp, r7
 519 001c 80BD     		pop	{r7, pc}
 520              		.cfi_endproc
 521              	.LFE7:
 523 001e 00BF     		.section	.text.exitTo,"ax",%progbits
 524              		.align	2
 525              		.thumb
 526              		.thumb_func
 528              	exitTo:
 529              	.LFB8:
 131:C:/data/workspaces/github/de.protos.demos/src/HexagonCANDemo/etrice.HexagonCANDemo.demo/src-gen-st/room/basic/service/timing\ATimingService.c **** 
 132:C:/data/workspaces/github/de.protos.demos/src/HexagonCANDemo/etrice.HexagonCANDemo.demo/src-gen-st/room/basic/service/timing\ATimingService.c **** /**
 133:C:/data/workspaces/github/de.protos.demos/src/HexagonCANDemo/etrice.HexagonCANDemo.demo/src-gen-st/room/basic/service/timing\ATimingService.c ****  * calls exit codes while exiting from the current state to one of its
 134:C:/data/workspaces/github/de.protos.demos/src/HexagonCANDemo/etrice.HexagonCANDemo.demo/src-gen-st/room/basic/service/timing\ATimingService.c ****  * parent states while remembering the history
 135:C:/data/workspaces/github/de.protos.demos/src/HexagonCANDemo/etrice.HexagonCANDemo.demo/src-gen-st/room/basic/service/timing\ATimingService.c ****  * @param current__et - the current state
 136:C:/data/workspaces/github/de.protos.demos/src/HexagonCANDemo/etrice.HexagonCANDemo.demo/src-gen-st/room/basic/service/timing\ATimingService.c ****  * @param to - the final parent state
 137:C:/data/workspaces/github/de.protos.demos/src/HexagonCANDemo/etrice.HexagonCANDemo.demo/src-gen-st/room/basic/service/timing\ATimingService.c ****  */
 138:C:/data/workspaces/github/de.protos.demos/src/HexagonCANDemo/etrice.HexagonCANDemo.demo/src-gen-st/room/basic/service/timing\ATimingService.c **** static void exitTo(ATimingService* self, etInt16 current__et, etInt16 to) {
 530              		.loc 1 138 0
 531              		.cfi_startproc
 532              		@ args = 0, pretend = 0, frame = 8
 533              		@ frame_needed = 1, uses_anonymous_args = 0
 534              		@ link register save eliminated.
 535 0000 80B4     		push	{r7}
 536              	.LCFI24:
 537              		.cfi_def_cfa_offset 4
 538              		.cfi_offset 7, -4
 539 0002 83B0     		sub	sp, sp, #12
 540              	.LCFI25:
 541              		.cfi_def_cfa_offset 16
 542 0004 00AF     		add	r7, sp, #0
 543              	.LCFI26:
 544              		.cfi_def_cfa_register 7
 545 0006 7860     		str	r0, [r7, #4]
 546 0008 1346     		mov	r3, r2
 547 000a 0A46     		mov	r2, r1	@ movhi
 548 000c 7A80     		strh	r2, [r7, #2]	@ movhi
 549 000e 3B80     		strh	r3, [r7, #0]	@ movhi
 139:C:/data/workspaces/github/de.protos.demos/src/HexagonCANDemo/etrice.HexagonCANDemo.demo/src-gen-st/room/basic/service/timing\ATimingService.c **** 	while (current__et!=to) {
 550              		.loc 1 139 0
 551 0010 0DE0     		b	.L22
 552              	.L25:
 140:C:/data/workspaces/github/de.protos.demos/src/HexagonCANDemo/etrice.HexagonCANDemo.demo/src-gen-st/room/basic/service/timing\ATimingService.c **** 		switch (current__et) {
 553              		.loc 1 140 0
 554 0012 B7F90230 		ldrsh	r3, [r7, #2]
 555 0016 022B     		cmp	r3, #2
 556 0018 08D1     		bne	.L26
 557              	.L24:
 141:C:/data/workspaces/github/de.protos.demos/src/HexagonCANDemo/etrice.HexagonCANDemo.demo/src-gen-st/room/basic/service/timing\ATimingService.c **** 			case STATE_Operational:
 142:C:/data/workspaces/github/de.protos.demos/src/HexagonCANDemo/etrice.HexagonCANDemo.demo/src-gen-st/room/basic/service/timing\ATimingService.c **** 				self->history[STATE_TOP] = STATE_Operational;
 558              		.loc 1 142 0
 559 001a 7B68     		ldr	r3, [r7, #4]
 560 001c 4FF00202 		mov	r2, #2
 561 0020 A3F8E022 		strh	r2, [r3, #736]	@ movhi
 143:C:/data/workspaces/github/de.protos.demos/src/HexagonCANDemo/etrice.HexagonCANDemo.demo/src-gen-st/room/basic/service/timing\ATimingService.c **** 				current__et = STATE_TOP;
 562              		.loc 1 143 0
 563 0024 4FF00103 		mov	r3, #1
 564 0028 7B80     		strh	r3, [r7, #2]	@ movhi
 144:C:/data/workspaces/github/de.protos.demos/src/HexagonCANDemo/etrice.HexagonCANDemo.demo/src-gen-st/room/basic/service/timing\ATimingService.c **** 				break;
 565              		.loc 1 144 0
 566 002a 00E0     		b	.L22
 567              	.L26:
 145:C:/data/workspaces/github/de.protos.demos/src/HexagonCANDemo/etrice.HexagonCANDemo.demo/src-gen-st/room/basic/service/timing\ATimingService.c **** 			default:
 146:C:/data/workspaces/github/de.protos.demos/src/HexagonCANDemo/etrice.HexagonCANDemo.demo/src-gen-st/room/basic/service/timing\ATimingService.c **** 				/* should not occur */
 147:C:/data/workspaces/github/de.protos.demos/src/HexagonCANDemo/etrice.HexagonCANDemo.demo/src-gen-st/room/basic/service/timing\ATimingService.c **** 				break;
 568              		.loc 1 147 0
 569 002c 00BF     		nop
 570              	.L22:
 139:C:/data/workspaces/github/de.protos.demos/src/HexagonCANDemo/etrice.HexagonCANDemo.demo/src-gen-st/room/basic/service/timing\ATimingService.c **** 	while (current__et!=to) {
 571              		.loc 1 139 0 discriminator 1
 572 002e B7F90220 		ldrsh	r2, [r7, #2]
 573 0032 B7F90030 		ldrsh	r3, [r7, #0]
 574 0036 9A42     		cmp	r2, r3
 575 0038 EBD1     		bne	.L25
 148:C:/data/workspaces/github/de.protos.demos/src/HexagonCANDemo/etrice.HexagonCANDemo.demo/src-gen-st/room/basic/service/timing\ATimingService.c **** 		}
 149:C:/data/workspaces/github/de.protos.demos/src/HexagonCANDemo/etrice.HexagonCANDemo.demo/src-gen-st/room/basic/service/timing\ATimingService.c **** 	}
 150:C:/data/workspaces/github/de.protos.demos/src/HexagonCANDemo/etrice.HexagonCANDemo.demo/src-gen-st/room/basic/service/timing\ATimingService.c **** }
 576              		.loc 1 150 0
 577 003a 07F10C07 		add	r7, r7, #12
 578 003e BD46     		mov	sp, r7
 579 0040 80BC     		pop	{r7}
 580 0042 7047     		bx	lr
 581              		.cfi_endproc
 582              	.LFE8:
 584              		.section	.text.executeTransitionChain,"ax",%progbits
 585              		.align	2
 586              		.thumb
 587              		.thumb_func
 589              	executeTransitionChain:
 590              	.LFB9:
 151:C:/data/workspaces/github/de.protos.demos/src/HexagonCANDemo/etrice.HexagonCANDemo.demo/src-gen-st/room/basic/service/timing\ATimingService.c **** 
 152:C:/data/workspaces/github/de.protos.demos/src/HexagonCANDemo/etrice.HexagonCANDemo.demo/src-gen-st/room/basic/service/timing\ATimingService.c **** /**
 153:C:/data/workspaces/github/de.protos.demos/src/HexagonCANDemo/etrice.HexagonCANDemo.demo/src-gen-st/room/basic/service/timing\ATimingService.c ****  * calls action, entry and exit codes along a transition chain. The generic data are cast to typed 
 154:C:/data/workspaces/github/de.protos.demos/src/HexagonCANDemo/etrice.HexagonCANDemo.demo/src-gen-st/room/basic/service/timing\ATimingService.c ****  * matching the trigger of this chain. The ID of the final state is returned
 155:C:/data/workspaces/github/de.protos.demos/src/HexagonCANDemo/etrice.HexagonCANDemo.demo/src-gen-st/room/basic/service/timing\ATimingService.c ****  * @param chain__et - the chain ID
 156:C:/data/workspaces/github/de.protos.demos/src/HexagonCANDemo/etrice.HexagonCANDemo.demo/src-gen-st/room/basic/service/timing\ATimingService.c ****  * @param generic_data__et - the generic data pointer
 157:C:/data/workspaces/github/de.protos.demos/src/HexagonCANDemo/etrice.HexagonCANDemo.demo/src-gen-st/room/basic/service/timing\ATimingService.c ****  * @return the +/- ID of the final state either with a positive sign, that indicates to execute the
 158:C:/data/workspaces/github/de.protos.demos/src/HexagonCANDemo/etrice.HexagonCANDemo.demo/src-gen-st/room/basic/service/timing\ATimingService.c ****  */
 159:C:/data/workspaces/github/de.protos.demos/src/HexagonCANDemo/etrice.HexagonCANDemo.demo/src-gen-st/room/basic/service/timing\ATimingService.c **** static etInt16 executeTransitionChain(ATimingService* self, int chain__et, const InterfaceItemBase*
 591              		.loc 1 159 0
 592              		.cfi_startproc
 593              		@ args = 0, pretend = 0, frame = 24
 594              		@ frame_needed = 1, uses_anonymous_args = 0
 595 0000 80B5     		push	{r7, lr}
 596              	.LCFI27:
 597              		.cfi_def_cfa_offset 8
 598              		.cfi_offset 7, -8
 599              		.cfi_offset 14, -4
 600 0002 86B0     		sub	sp, sp, #24
 601              	.LCFI28:
 602              		.cfi_def_cfa_offset 32
 603 0004 00AF     		add	r7, sp, #0
 604              	.LCFI29:
 605              		.cfi_def_cfa_register 7
 606 0006 F860     		str	r0, [r7, #12]
 607 0008 B960     		str	r1, [r7, #8]
 608 000a 7A60     		str	r2, [r7, #4]
 609 000c 3B60     		str	r3, [r7, #0]
 160:C:/data/workspaces/github/de.protos.demos/src/HexagonCANDemo/etrice.HexagonCANDemo.demo/src-gen-st/room/basic/service/timing\ATimingService.c **** 	switch (chain__et) {
 610              		.loc 1 160 0
 611 000e BB68     		ldr	r3, [r7, #8]
 612 0010 03F1FF33 		add	r3, r3, #-1
 613 0014 032B     		cmp	r3, #3
 614 0016 2ED8     		bhi	.L36
 615 0018 01A2     		adr	r2, .L33
 616 001a 52F823F0 		ldr	pc, [r2, r3, lsl #2]
 617 001e 00BF     		.align	2
 618              	.L33:
 619 0020 31000000 		.word	.L29+1
 620 0024 3D000000 		.word	.L30+1
 621 0028 53000000 		.word	.L31+1
 622 002c 69000000 		.word	.L32+1
 623              	.L29:
 161:C:/data/workspaces/github/de.protos.demos/src/HexagonCANDemo/etrice.HexagonCANDemo.demo/src-gen-st/room/basic/service/timing\ATimingService.c **** 		case CHAIN_TRANS_INITIAL_TO__Operational:
 162:C:/data/workspaces/github/de.protos.demos/src/HexagonCANDemo/etrice.HexagonCANDemo.demo/src-gen-st/room/basic/service/timing\ATimingService.c **** 		{
 163:C:/data/workspaces/github/de.protos.demos/src/HexagonCANDemo/etrice.HexagonCANDemo.demo/src-gen-st/room/basic/service/timing\ATimingService.c **** 			action_TRANS_INITIAL_TO__Operational(self);
 624              		.loc 1 163 0
 625 0030 F868     		ldr	r0, [r7, #12]
 626 0032 FFF7FEFF 		bl	action_TRANS_INITIAL_TO__Operational
 164:C:/data/workspaces/github/de.protos.demos/src/HexagonCANDemo/etrice.HexagonCANDemo.demo/src-gen-st/room/basic/service/timing\ATimingService.c **** 			return STATE_Operational;
 627              		.loc 1 164 0
 628 0036 4FF00203 		mov	r3, #2
 629 003a 1FE0     		b	.L34
 630              	.L30:
 631              	.LBB2:
 165:C:/data/workspaces/github/de.protos.demos/src/HexagonCANDemo/etrice.HexagonCANDemo.demo/src-gen-st/room/basic/service/timing\ATimingService.c **** 		}
 166:C:/data/workspaces/github/de.protos.demos/src/HexagonCANDemo/etrice.HexagonCANDemo.demo/src-gen-st/room/basic/service/timing\ATimingService.c **** 		case CHAIN_TRANS_tr1_FROM_Operational_TO_Operational_BY_startTimeouttimer_tr1:
 167:C:/data/workspaces/github/de.protos.demos/src/HexagonCANDemo/etrice.HexagonCANDemo.demo/src-gen-st/room/basic/service/timing\ATimingService.c **** 		{
 168:C:/data/workspaces/github/de.protos.demos/src/HexagonCANDemo/etrice.HexagonCANDemo.demo/src-gen-st/room/basic/service/timing\ATimingService.c **** 			uint32 time = *((uint32*) generic_data__et);
 632              		.loc 1 168 0
 633 003c 3B68     		ldr	r3, [r7, #0]
 634 003e 1B68     		ldr	r3, [r3, #0]
 635 0040 7B61     		str	r3, [r7, #20]
 169:C:/data/workspaces/github/de.protos.demos/src/HexagonCANDemo/etrice.HexagonCANDemo.demo/src-gen-st/room/basic/service/timing\ATimingService.c **** 			action_TRANS_tr1_FROM_Operational_TO_Operational_BY_startTimeouttimer_tr1(self, ifitem, time);
 636              		.loc 1 169 0
 637 0042 F868     		ldr	r0, [r7, #12]
 638 0044 7968     		ldr	r1, [r7, #4]
 639 0046 7A69     		ldr	r2, [r7, #20]
 640 0048 FFF7FEFF 		bl	action_TRANS_tr1_FROM_Operational_TO_Operational_BY_startTimeouttimer_tr1
 170:C:/data/workspaces/github/de.protos.demos/src/HexagonCANDemo/etrice.HexagonCANDemo.demo/src-gen-st/room/basic/service/timing\ATimingService.c **** 			return STATE_Operational;
 641              		.loc 1 170 0
 642 004c 4FF00203 		mov	r3, #2
 643 0050 14E0     		b	.L34
 644              	.L31:
 645              	.LBE2:
 646              	.LBB3:
 171:C:/data/workspaces/github/de.protos.demos/src/HexagonCANDemo/etrice.HexagonCANDemo.demo/src-gen-st/room/basic/service/timing\ATimingService.c **** 		}
 172:C:/data/workspaces/github/de.protos.demos/src/HexagonCANDemo/etrice.HexagonCANDemo.demo/src-gen-st/room/basic/service/timing\ATimingService.c **** 		case CHAIN_TRANS_tr3_FROM_Operational_TO_Operational_BY_startTimertimer_tr3:
 173:C:/data/workspaces/github/de.protos.demos/src/HexagonCANDemo/etrice.HexagonCANDemo.demo/src-gen-st/room/basic/service/timing\ATimingService.c **** 		{
 174:C:/data/workspaces/github/de.protos.demos/src/HexagonCANDemo/etrice.HexagonCANDemo.demo/src-gen-st/room/basic/service/timing\ATimingService.c **** 			uint32 time = *((uint32*) generic_data__et);
 647              		.loc 1 174 0
 648 0052 3B68     		ldr	r3, [r7, #0]
 649 0054 1B68     		ldr	r3, [r3, #0]
 650 0056 3B61     		str	r3, [r7, #16]
 175:C:/data/workspaces/github/de.protos.demos/src/HexagonCANDemo/etrice.HexagonCANDemo.demo/src-gen-st/room/basic/service/timing\ATimingService.c **** 			action_TRANS_tr3_FROM_Operational_TO_Operational_BY_startTimertimer_tr3(self, ifitem, time);
 651              		.loc 1 175 0
 652 0058 F868     		ldr	r0, [r7, #12]
 653 005a 7968     		ldr	r1, [r7, #4]
 654 005c 3A69     		ldr	r2, [r7, #16]
 655 005e FFF7FEFF 		bl	action_TRANS_tr3_FROM_Operational_TO_Operational_BY_startTimertimer_tr3
 176:C:/data/workspaces/github/de.protos.demos/src/HexagonCANDemo/etrice.HexagonCANDemo.demo/src-gen-st/room/basic/service/timing\ATimingService.c **** 			return STATE_Operational;
 656              		.loc 1 176 0
 657 0062 4FF00203 		mov	r3, #2
 658 0066 09E0     		b	.L34
 659              	.L32:
 660              	.LBE3:
 177:C:/data/workspaces/github/de.protos.demos/src/HexagonCANDemo/etrice.HexagonCANDemo.demo/src-gen-st/room/basic/service/timing\ATimingService.c **** 		}
 178:C:/data/workspaces/github/de.protos.demos/src/HexagonCANDemo/etrice.HexagonCANDemo.demo/src-gen-st/room/basic/service/timing\ATimingService.c **** 		case CHAIN_TRANS_tr4_FROM_Operational_TO_Operational_BY_killtimer_tr4:
 179:C:/data/workspaces/github/de.protos.demos/src/HexagonCANDemo/etrice.HexagonCANDemo.demo/src-gen-st/room/basic/service/timing\ATimingService.c **** 		{
 180:C:/data/workspaces/github/de.protos.demos/src/HexagonCANDemo/etrice.HexagonCANDemo.demo/src-gen-st/room/basic/service/timing\ATimingService.c **** 			action_TRANS_tr4_FROM_Operational_TO_Operational_BY_killtimer_tr4(self, ifitem);
 661              		.loc 1 180 0
 662 0068 F868     		ldr	r0, [r7, #12]
 663 006a 7968     		ldr	r1, [r7, #4]
 664 006c FFF7FEFF 		bl	action_TRANS_tr4_FROM_Operational_TO_Operational_BY_killtimer_tr4
 181:C:/data/workspaces/github/de.protos.demos/src/HexagonCANDemo/etrice.HexagonCANDemo.demo/src-gen-st/room/basic/service/timing\ATimingService.c **** 			return STATE_Operational;
 665              		.loc 1 181 0
 666 0070 4FF00203 		mov	r3, #2
 667 0074 02E0     		b	.L34
 668              	.L36:
 182:C:/data/workspaces/github/de.protos.demos/src/HexagonCANDemo/etrice.HexagonCANDemo.demo/src-gen-st/room/basic/service/timing\ATimingService.c **** 		}
 183:C:/data/workspaces/github/de.protos.demos/src/HexagonCANDemo/etrice.HexagonCANDemo.demo/src-gen-st/room/basic/service/timing\ATimingService.c **** 			default:
 184:C:/data/workspaces/github/de.protos.demos/src/HexagonCANDemo/etrice.HexagonCANDemo.demo/src-gen-st/room/basic/service/timing\ATimingService.c **** 				/* should not occur */
 185:C:/data/workspaces/github/de.protos.demos/src/HexagonCANDemo/etrice.HexagonCANDemo.demo/src-gen-st/room/basic/service/timing\ATimingService.c **** 				break;
 669              		.loc 1 185 0
 670 0076 00BF     		nop
 671              	.L35:
 186:C:/data/workspaces/github/de.protos.demos/src/HexagonCANDemo/etrice.HexagonCANDemo.demo/src-gen-st/room/basic/service/timing\ATimingService.c **** 	}
 187:C:/data/workspaces/github/de.protos.demos/src/HexagonCANDemo/etrice.HexagonCANDemo.demo/src-gen-st/room/basic/service/timing\ATimingService.c **** 	return NO_STATE;
 672              		.loc 1 187 0
 673 0078 4FF00003 		mov	r3, #0
 674              	.L34:
 675 007c 1BB2     		sxth	r3, r3
 188:C:/data/workspaces/github/de.protos.demos/src/HexagonCANDemo/etrice.HexagonCANDemo.demo/src-gen-st/room/basic/service/timing\ATimingService.c **** }
 676              		.loc 1 188 0
 677 007e 1846     		mov	r0, r3
 678 0080 07F11807 		add	r7, r7, #24
 679 0084 BD46     		mov	sp, r7
 680 0086 80BD     		pop	{r7, pc}
 681              		.cfi_endproc
 682              	.LFE9:
 684              		.section	.text.enterHistory,"ax",%progbits
 685              		.align	2
 686              		.thumb
 687              		.thumb_func
 689              	enterHistory:
 690              	.LFB10:
 189:C:/data/workspaces/github/de.protos.demos/src/HexagonCANDemo/etrice.HexagonCANDemo.demo/src-gen-st/room/basic/service/timing\ATimingService.c **** 
 190:C:/data/workspaces/github/de.protos.demos/src/HexagonCANDemo/etrice.HexagonCANDemo.demo/src-gen-st/room/basic/service/timing\ATimingService.c **** /**
 191:C:/data/workspaces/github/de.protos.demos/src/HexagonCANDemo/etrice.HexagonCANDemo.demo/src-gen-st/room/basic/service/timing\ATimingService.c ****  * calls entry codes while entering a state's history. The ID of the final leaf state is returned
 192:C:/data/workspaces/github/de.protos.demos/src/HexagonCANDemo/etrice.HexagonCANDemo.demo/src-gen-st/room/basic/service/timing\ATimingService.c ****  * @param state__et - the state which is entered
 193:C:/data/workspaces/github/de.protos.demos/src/HexagonCANDemo/etrice.HexagonCANDemo.demo/src-gen-st/room/basic/service/timing\ATimingService.c ****  * @return - the ID of the final leaf state
 194:C:/data/workspaces/github/de.protos.demos/src/HexagonCANDemo/etrice.HexagonCANDemo.demo/src-gen-st/room/basic/service/timing\ATimingService.c ****  */
 195:C:/data/workspaces/github/de.protos.demos/src/HexagonCANDemo/etrice.HexagonCANDemo.demo/src-gen-st/room/basic/service/timing\ATimingService.c **** static etInt16 enterHistory(ATimingService* self, etInt16 state__et) {
 691              		.loc 1 195 0
 692              		.cfi_startproc
 693              		@ args = 0, pretend = 0, frame = 16
 694              		@ frame_needed = 1, uses_anonymous_args = 0
 695 0000 80B5     		push	{r7, lr}
 696              	.LCFI30:
 697              		.cfi_def_cfa_offset 8
 698              		.cfi_offset 7, -8
 699              		.cfi_offset 14, -4
 700 0002 84B0     		sub	sp, sp, #16
 701              	.LCFI31:
 702              		.cfi_def_cfa_offset 24
 703 0004 00AF     		add	r7, sp, #0
 704              	.LCFI32:
 705              		.cfi_def_cfa_register 7
 706 0006 7860     		str	r0, [r7, #4]
 707 0008 0B46     		mov	r3, r1
 708 000a 7B80     		strh	r3, [r7, #2]	@ movhi
 196:C:/data/workspaces/github/de.protos.demos/src/HexagonCANDemo/etrice.HexagonCANDemo.demo/src-gen-st/room/basic/service/timing\ATimingService.c **** 	boolean skip_entry__et = ET_FALSE;
 709              		.loc 1 196 0
 710 000c 4FF00003 		mov	r3, #0
 711 0010 FB73     		strb	r3, [r7, #15]
 197:C:/data/workspaces/github/de.protos.demos/src/HexagonCANDemo/etrice.HexagonCANDemo.demo/src-gen-st/room/basic/service/timing\ATimingService.c **** 	if (state__et >= STATE_MAX) {
 712              		.loc 1 197 0
 713 0012 B7F90230 		ldrsh	r3, [r7, #2]
 714 0016 022B     		cmp	r3, #2
 715 0018 07DD     		ble	.L38
 198:C:/data/workspaces/github/de.protos.demos/src/HexagonCANDemo/etrice.HexagonCANDemo.demo/src-gen-st/room/basic/service/timing\ATimingService.c **** 		state__et = (etInt16) (state__et - STATE_MAX);
 716              		.loc 1 198 0
 717 001a 7B88     		ldrh	r3, [r7, #2]
 718 001c A3F10303 		sub	r3, r3, #3
 719 0020 9BB2     		uxth	r3, r3
 720 0022 7B80     		strh	r3, [r7, #2]	@ movhi
 199:C:/data/workspaces/github/de.protos.demos/src/HexagonCANDemo/etrice.HexagonCANDemo.demo/src-gen-st/room/basic/service/timing\ATimingService.c **** 		skip_entry__et = ET_TRUE;
 721              		.loc 1 199 0
 722 0024 4FF00103 		mov	r3, #1
 723 0028 FB73     		strb	r3, [r7, #15]
 724              	.L38:
 200:C:/data/workspaces/github/de.protos.demos/src/HexagonCANDemo/etrice.HexagonCANDemo.demo/src-gen-st/room/basic/service/timing\ATimingService.c **** 	}
 201:C:/data/workspaces/github/de.protos.demos/src/HexagonCANDemo/etrice.HexagonCANDemo.demo/src-gen-st/room/basic/service/timing\ATimingService.c **** 	while (ET_TRUE) {
 202:C:/data/workspaces/github/de.protos.demos/src/HexagonCANDemo/etrice.HexagonCANDemo.demo/src-gen-st/room/basic/service/timing\ATimingService.c **** 		switch (state__et) {
 725              		.loc 1 202 0
 726 002a B7F90230 		ldrsh	r3, [r7, #2]
 727 002e 012B     		cmp	r3, #1
 728 0030 0BD0     		beq	.L40
 729 0032 022B     		cmp	r3, #2
 730 0034 0ED1     		bne	.L45
 731              	.L41:
 203:C:/data/workspaces/github/de.protos.demos/src/HexagonCANDemo/etrice.HexagonCANDemo.demo/src-gen-st/room/basic/service/timing\ATimingService.c **** 			case STATE_Operational:
 204:C:/data/workspaces/github/de.protos.demos/src/HexagonCANDemo/etrice.HexagonCANDemo.demo/src-gen-st/room/basic/service/timing\ATimingService.c **** 				if (!(skip_entry__et)) entry_Operational(self);
 732              		.loc 1 204 0
 733 0036 FB7B     		ldrb	r3, [r7, #15]	@ zero_extendqisi2
 734 0038 002B     		cmp	r3, #0
 735 003a 02D1     		bne	.L42
 736              		.loc 1 204 0 is_stmt 0 discriminator 1
 737 003c 7868     		ldr	r0, [r7, #4]
 738 003e FFF7FEFF 		bl	entry_Operational
 739              	.L42:
 205:C:/data/workspaces/github/de.protos.demos/src/HexagonCANDemo/etrice.HexagonCANDemo.demo/src-gen-st/room/basic/service/timing\ATimingService.c **** 				/* in leaf state: return state id */
 206:C:/data/workspaces/github/de.protos.demos/src/HexagonCANDemo/etrice.HexagonCANDemo.demo/src-gen-st/room/basic/service/timing\ATimingService.c **** 				return STATE_Operational;
 740              		.loc 1 206 0 is_stmt 1
 741 0042 4FF00203 		mov	r3, #2
 742 0046 1BB2     		sxth	r3, r3
 743 0048 09E0     		b	.L46
 744              	.L40:
 207:C:/data/workspaces/github/de.protos.demos/src/HexagonCANDemo/etrice.HexagonCANDemo.demo/src-gen-st/room/basic/service/timing\ATimingService.c **** 			case STATE_TOP:
 208:C:/data/workspaces/github/de.protos.demos/src/HexagonCANDemo/etrice.HexagonCANDemo.demo/src-gen-st/room/basic/service/timing\ATimingService.c **** 				state__et = self->history[STATE_TOP];
 745              		.loc 1 208 0
 746 004a 7B68     		ldr	r3, [r7, #4]
 747 004c B3F8E032 		ldrh	r3, [r3, #736]	@ movhi
 748 0050 7B80     		strh	r3, [r7, #2]	@ movhi
 209:C:/data/workspaces/github/de.protos.demos/src/HexagonCANDemo/etrice.HexagonCANDemo.demo/src-gen-st/room/basic/service/timing\ATimingService.c **** 				break;
 749              		.loc 1 209 0
 750 0052 00E0     		b	.L44
 751              	.L45:
 210:C:/data/workspaces/github/de.protos.demos/src/HexagonCANDemo/etrice.HexagonCANDemo.demo/src-gen-st/room/basic/service/timing\ATimingService.c **** 			default:
 211:C:/data/workspaces/github/de.protos.demos/src/HexagonCANDemo/etrice.HexagonCANDemo.demo/src-gen-st/room/basic/service/timing\ATimingService.c **** 				/* should not occur */
 212:C:/data/workspaces/github/de.protos.demos/src/HexagonCANDemo/etrice.HexagonCANDemo.demo/src-gen-st/room/basic/service/timing\ATimingService.c **** 				break;
 752              		.loc 1 212 0
 753 0054 00BF     		nop
 754              	.L44:
 213:C:/data/workspaces/github/de.protos.demos/src/HexagonCANDemo/etrice.HexagonCANDemo.demo/src-gen-st/room/basic/service/timing\ATimingService.c **** 		}
 214:C:/data/workspaces/github/de.protos.demos/src/HexagonCANDemo/etrice.HexagonCANDemo.demo/src-gen-st/room/basic/service/timing\ATimingService.c **** 		skip_entry__et = ET_FALSE;
 755              		.loc 1 214 0
 756 0056 4FF00003 		mov	r3, #0
 757 005a FB73     		strb	r3, [r7, #15]
 215:C:/data/workspaces/github/de.protos.demos/src/HexagonCANDemo/etrice.HexagonCANDemo.demo/src-gen-st/room/basic/service/timing\ATimingService.c **** 	}
 758              		.loc 1 215 0
 759 005c E5E7     		b	.L38
 760              	.L46:
 216:C:/data/workspaces/github/de.protos.demos/src/HexagonCANDemo/etrice.HexagonCANDemo.demo/src-gen-st/room/basic/service/timing\ATimingService.c **** 	/* return NO_STATE; // required by CDT but detected as unreachable by JDT because of while (true) 
 217:C:/data/workspaces/github/de.protos.demos/src/HexagonCANDemo/etrice.HexagonCANDemo.demo/src-gen-st/room/basic/service/timing\ATimingService.c **** }
 761              		.loc 1 217 0
 762 005e 1846     		mov	r0, r3
 763 0060 07F11007 		add	r7, r7, #16
 764 0064 BD46     		mov	sp, r7
 765 0066 80BD     		pop	{r7, pc}
 766              		.cfi_endproc
 767              	.LFE10:
 769              		.section	.text.ATimingService_executeInitTransition,"ax",%progbits
 770              		.align	2
 771              		.thumb
 772              		.thumb_func
 774              	ATimingService_executeInitTransition:
 775              	.LFB11:
 218:C:/data/workspaces/github/de.protos.demos/src/HexagonCANDemo/etrice.HexagonCANDemo.demo/src-gen-st/room/basic/service/timing\ATimingService.c **** 
 219:C:/data/workspaces/github/de.protos.demos/src/HexagonCANDemo/etrice.HexagonCANDemo.demo/src-gen-st/room/basic/service/timing\ATimingService.c **** static void ATimingService_executeInitTransition(ATimingService* self) {
 776              		.loc 1 219 0
 777              		.cfi_startproc
 778              		@ args = 0, pretend = 0, frame = 16
 779              		@ frame_needed = 1, uses_anonymous_args = 0
 780 0000 80B5     		push	{r7, lr}
 781              	.LCFI33:
 782              		.cfi_def_cfa_offset 8
 783              		.cfi_offset 7, -8
 784              		.cfi_offset 14, -4
 785 0002 84B0     		sub	sp, sp, #16
 786              	.LCFI34:
 787              		.cfi_def_cfa_offset 24
 788 0004 00AF     		add	r7, sp, #0
 789              	.LCFI35:
 790              		.cfi_def_cfa_register 7
 791 0006 7860     		str	r0, [r7, #4]
 220:C:/data/workspaces/github/de.protos.demos/src/HexagonCANDemo/etrice.HexagonCANDemo.demo/src-gen-st/room/basic/service/timing\ATimingService.c **** 	int chain__et = CHAIN_TRANS_INITIAL_TO__Operational;
 792              		.loc 1 220 0
 793 0008 4FF00103 		mov	r3, #1
 794 000c FB60     		str	r3, [r7, #12]
 221:C:/data/workspaces/github/de.protos.demos/src/HexagonCANDemo/etrice.HexagonCANDemo.demo/src-gen-st/room/basic/service/timing\ATimingService.c **** 	etInt16 next__et = executeTransitionChain(self, chain__et, NULL, NULL);
 795              		.loc 1 221 0
 796 000e 7868     		ldr	r0, [r7, #4]
 797 0010 F968     		ldr	r1, [r7, #12]
 798 0012 4FF00002 		mov	r2, #0
 799 0016 4FF00003 		mov	r3, #0
 800 001a FFF7FEFF 		bl	executeTransitionChain
 801 001e 0346     		mov	r3, r0
 802 0020 7B81     		strh	r3, [r7, #10]	@ movhi
 222:C:/data/workspaces/github/de.protos.demos/src/HexagonCANDemo/etrice.HexagonCANDemo.demo/src-gen-st/room/basic/service/timing\ATimingService.c **** 	next__et = enterHistory(self, next__et);
 803              		.loc 1 222 0
 804 0022 B7F90A30 		ldrsh	r3, [r7, #10]
 805 0026 7868     		ldr	r0, [r7, #4]
 806 0028 1946     		mov	r1, r3
 807 002a FFF7FEFF 		bl	enterHistory
 808 002e 0346     		mov	r3, r0
 809 0030 7B81     		strh	r3, [r7, #10]	@ movhi
 223:C:/data/workspaces/github/de.protos.demos/src/HexagonCANDemo/etrice.HexagonCANDemo.demo/src-gen-st/room/basic/service/timing\ATimingService.c **** 	setState(self, next__et);
 810              		.loc 1 223 0
 811 0032 B7F90A30 		ldrsh	r3, [r7, #10]
 812 0036 7868     		ldr	r0, [r7, #4]
 813 0038 1946     		mov	r1, r3
 814 003a FFF7FEFF 		bl	setState
 224:C:/data/workspaces/github/de.protos.demos/src/HexagonCANDemo/etrice.HexagonCANDemo.demo/src-gen-st/room/basic/service/timing\ATimingService.c **** }
 815              		.loc 1 224 0
 816 003e 07F11007 		add	r7, r7, #16
 817 0042 BD46     		mov	sp, r7
 818 0044 80BD     		pop	{r7, pc}
 819              		.cfi_endproc
 820              	.LFE11:
 822 0046 00BF     		.section	.text.ATimingService_receiveEvent,"ax",%progbits
 823              		.align	2
 824              		.thumb
 825              		.thumb_func
 827              	ATimingService_receiveEvent:
 828              	.LFB12:
 225:C:/data/workspaces/github/de.protos.demos/src/HexagonCANDemo/etrice.HexagonCANDemo.demo/src-gen-st/room/basic/service/timing\ATimingService.c **** 
 226:C:/data/workspaces/github/de.protos.demos/src/HexagonCANDemo/etrice.HexagonCANDemo.demo/src-gen-st/room/basic/service/timing\ATimingService.c **** /* receiveEvent contains the main implementation of the FSM */
 227:C:/data/workspaces/github/de.protos.demos/src/HexagonCANDemo/etrice.HexagonCANDemo.demo/src-gen-st/room/basic/service/timing\ATimingService.c **** static void ATimingService_receiveEvent(ATimingService* self, InterfaceItemBase* ifitem, int evt, v
 829              		.loc 1 227 0
 830              		.cfi_startproc
 831              		@ args = 0, pretend = 0, frame = 32
 832              		@ frame_needed = 1, uses_anonymous_args = 0
 833 0000 80B5     		push	{r7, lr}
 834              	.LCFI36:
 835              		.cfi_def_cfa_offset 8
 836              		.cfi_offset 7, -8
 837              		.cfi_offset 14, -4
 838 0002 88B0     		sub	sp, sp, #32
 839              	.LCFI37:
 840              		.cfi_def_cfa_offset 40
 841 0004 00AF     		add	r7, sp, #0
 842              	.LCFI38:
 843              		.cfi_def_cfa_register 7
 844 0006 F860     		str	r0, [r7, #12]
 845 0008 B960     		str	r1, [r7, #8]
 846 000a 7A60     		str	r2, [r7, #4]
 847 000c 3B60     		str	r3, [r7, #0]
 228:C:/data/workspaces/github/de.protos.demos/src/HexagonCANDemo/etrice.HexagonCANDemo.demo/src-gen-st/room/basic/service/timing\ATimingService.c **** 	int trigger__et = (ifitem==NULL)? POLLING : ifitem->localId + EVT_SHIFT*evt;
 848              		.loc 1 228 0
 849 000e BB68     		ldr	r3, [r7, #8]
 850 0010 002B     		cmp	r3, #0
 851 0012 09D0     		beq	.L49
 852              		.loc 1 228 0 is_stmt 0 discriminator 1
 853 0014 BB68     		ldr	r3, [r7, #8]
 854 0016 5B7A     		ldrb	r3, [r3, #9]	@ zero_extendqisi2
 855 0018 1A46     		mov	r2, r3
 856 001a 7B68     		ldr	r3, [r7, #4]
 857 001c 4FF06401 		mov	r1, #100
 858 0020 01FB03F3 		mul	r3, r1, r3
 859 0024 D318     		adds	r3, r2, r3
 860 0026 01E0     		b	.L50
 861              	.L49:
 862              		.loc 1 228 0 discriminator 2
 863 0028 4FF00003 		mov	r3, #0
 864              	.L50:
 865              		.loc 1 228 0 discriminator 3
 866 002c 7B61     		str	r3, [r7, #20]
 229:C:/data/workspaces/github/de.protos.demos/src/HexagonCANDemo/etrice.HexagonCANDemo.demo/src-gen-st/room/basic/service/timing\ATimingService.c **** 	int chain__et = NOT_CAUGHT;
 867              		.loc 1 229 0 is_stmt 1 discriminator 3
 868 002e 4FF00003 		mov	r3, #0
 869 0032 FB61     		str	r3, [r7, #28]
 230:C:/data/workspaces/github/de.protos.demos/src/HexagonCANDemo/etrice.HexagonCANDemo.demo/src-gen-st/room/basic/service/timing\ATimingService.c **** 	etInt16 catching_state__et = NO_STATE;
 870              		.loc 1 230 0 discriminator 3
 871 0034 4FF00003 		mov	r3, #0
 872 0038 7B83     		strh	r3, [r7, #26]	@ movhi
 231:C:/data/workspaces/github/de.protos.demos/src/HexagonCANDemo/etrice.HexagonCANDemo.demo/src-gen-st/room/basic/service/timing\ATimingService.c **** 	((void)trigger__et);	/* avoids unused warning */
 232:C:/data/workspaces/github/de.protos.demos/src/HexagonCANDemo/etrice.HexagonCANDemo.demo/src-gen-st/room/basic/service/timing\ATimingService.c **** 	
 233:C:/data/workspaces/github/de.protos.demos/src/HexagonCANDemo/etrice.HexagonCANDemo.demo/src-gen-st/room/basic/service/timing\ATimingService.c **** 	if (!handleSystemEvent(ifitem, evt, generic_data__et)) {
 873              		.loc 1 233 0 discriminator 3
 874 003a B868     		ldr	r0, [r7, #8]
 875 003c 7968     		ldr	r1, [r7, #4]
 876 003e 3A68     		ldr	r2, [r7, #0]
 877 0040 FFF7FEFF 		bl	handleSystemEvent
 878 0044 0346     		mov	r3, r0
 879 0046 002B     		cmp	r3, #0
 880 0048 32D1     		bne	.L51
 234:C:/data/workspaces/github/de.protos.demos/src/HexagonCANDemo/etrice.HexagonCANDemo.demo/src-gen-st/room/basic/service/timing\ATimingService.c **** 		switch (getState(self)) {
 881              		.loc 1 234 0
 882 004a F868     		ldr	r0, [r7, #12]
 883 004c FFF7FEFF 		bl	getState
 884 0050 0346     		mov	r3, r0
 885 0052 022B     		cmp	r3, #2
 886 0054 2BD1     		bne	.L62
 887              	.L53:
 235:C:/data/workspaces/github/de.protos.demos/src/HexagonCANDemo/etrice.HexagonCANDemo.demo/src-gen-st/room/basic/service/timing\ATimingService.c **** 			case STATE_Operational:
 236:C:/data/workspaces/github/de.protos.demos/src/HexagonCANDemo/etrice.HexagonCANDemo.demo/src-gen-st/room/basic/service/timing\ATimingService.c **** 				switch(trigger__et) {
 888              		.loc 1 236 0
 889 0056 7B69     		ldr	r3, [r7, #20]
 890 0058 C92B     		cmp	r3, #201
 891 005a 18D0     		beq	.L56
 892 005c C92B     		cmp	r3, #201
 893 005e 02DC     		bgt	.L59
 894 0060 002B     		cmp	r3, #0
 895 0062 09D0     		beq	.L55
 896 0064 21E0     		b	.L54
 897              	.L59:
 898 0066 40F22D12 		movw	r2, #301
 899 006a 9342     		cmp	r3, r2
 900 006c 08D0     		beq	.L57
 901 006e 40F29112 		movw	r2, #401
 902 0072 9342     		cmp	r3, r2
 903 0074 12D0     		beq	.L58
 904 0076 18E0     		b	.L54
 905              	.L55:
 237:C:/data/workspaces/github/de.protos.demos/src/HexagonCANDemo/etrice.HexagonCANDemo.demo/src-gen-st/room/basic/service/timing\ATimingService.c **** 					case POLLING:
 238:C:/data/workspaces/github/de.protos.demos/src/HexagonCANDemo/etrice.HexagonCANDemo.demo/src-gen-st/room/basic/service/timing\ATimingService.c **** 						do_Operational(self);
 906              		.loc 1 238 0
 907 0078 F868     		ldr	r0, [r7, #12]
 908 007a FFF7FEFF 		bl	do_Operational
 239:C:/data/workspaces/github/de.protos.demos/src/HexagonCANDemo/etrice.HexagonCANDemo.demo/src-gen-st/room/basic/service/timing\ATimingService.c **** 						break;
 909              		.loc 1 239 0
 910 007e 15E0     		b	.L60
 911              	.L57:
 240:C:/data/workspaces/github/de.protos.demos/src/HexagonCANDemo/etrice.HexagonCANDemo.demo/src-gen-st/room/basic/service/timing\ATimingService.c **** 					case TRIG_timer__startTimeout:
 241:C:/data/workspaces/github/de.protos.demos/src/HexagonCANDemo/etrice.HexagonCANDemo.demo/src-gen-st/room/basic/service/timing\ATimingService.c **** 						{
 242:C:/data/workspaces/github/de.protos.demos/src/HexagonCANDemo/etrice.HexagonCANDemo.demo/src-gen-st/room/basic/service/timing\ATimingService.c **** 							chain__et = CHAIN_TRANS_tr1_FROM_Operational_TO_Operational_BY_startTimeouttimer_tr1;
 912              		.loc 1 242 0
 913 0080 4FF00203 		mov	r3, #2
 914 0084 FB61     		str	r3, [r7, #28]
 243:C:/data/workspaces/github/de.protos.demos/src/HexagonCANDemo/etrice.HexagonCANDemo.demo/src-gen-st/room/basic/service/timing\ATimingService.c **** 							catching_state__et = STATE_TOP;
 915              		.loc 1 243 0
 916 0086 4FF00103 		mov	r3, #1
 917 008a 7B83     		strh	r3, [r7, #26]	@ movhi
 244:C:/data/workspaces/github/de.protos.demos/src/HexagonCANDemo/etrice.HexagonCANDemo.demo/src-gen-st/room/basic/service/timing\ATimingService.c **** 						}
 245:C:/data/workspaces/github/de.protos.demos/src/HexagonCANDemo/etrice.HexagonCANDemo.demo/src-gen-st/room/basic/service/timing\ATimingService.c **** 					break;
 918              		.loc 1 245 0
 919 008c 0EE0     		b	.L60
 920              	.L56:
 246:C:/data/workspaces/github/de.protos.demos/src/HexagonCANDemo/etrice.HexagonCANDemo.demo/src-gen-st/room/basic/service/timing\ATimingService.c **** 					case TRIG_timer__startTimer:
 247:C:/data/workspaces/github/de.protos.demos/src/HexagonCANDemo/etrice.HexagonCANDemo.demo/src-gen-st/room/basic/service/timing\ATimingService.c **** 						{
 248:C:/data/workspaces/github/de.protos.demos/src/HexagonCANDemo/etrice.HexagonCANDemo.demo/src-gen-st/room/basic/service/timing\ATimingService.c **** 							chain__et = CHAIN_TRANS_tr3_FROM_Operational_TO_Operational_BY_startTimertimer_tr3;
 921              		.loc 1 248 0
 922 008e 4FF00303 		mov	r3, #3
 923 0092 FB61     		str	r3, [r7, #28]
 249:C:/data/workspaces/github/de.protos.demos/src/HexagonCANDemo/etrice.HexagonCANDemo.demo/src-gen-st/room/basic/service/timing\ATimingService.c **** 							catching_state__et = STATE_TOP;
 924              		.loc 1 249 0
 925 0094 4FF00103 		mov	r3, #1
 926 0098 7B83     		strh	r3, [r7, #26]	@ movhi
 250:C:/data/workspaces/github/de.protos.demos/src/HexagonCANDemo/etrice.HexagonCANDemo.demo/src-gen-st/room/basic/service/timing\ATimingService.c **** 						}
 251:C:/data/workspaces/github/de.protos.demos/src/HexagonCANDemo/etrice.HexagonCANDemo.demo/src-gen-st/room/basic/service/timing\ATimingService.c **** 					break;
 927              		.loc 1 251 0
 928 009a 07E0     		b	.L60
 929              	.L58:
 252:C:/data/workspaces/github/de.protos.demos/src/HexagonCANDemo/etrice.HexagonCANDemo.demo/src-gen-st/room/basic/service/timing\ATimingService.c **** 					case TRIG_timer__kill:
 253:C:/data/workspaces/github/de.protos.demos/src/HexagonCANDemo/etrice.HexagonCANDemo.demo/src-gen-st/room/basic/service/timing\ATimingService.c **** 						{
 254:C:/data/workspaces/github/de.protos.demos/src/HexagonCANDemo/etrice.HexagonCANDemo.demo/src-gen-st/room/basic/service/timing\ATimingService.c **** 							chain__et = CHAIN_TRANS_tr4_FROM_Operational_TO_Operational_BY_killtimer_tr4;
 930              		.loc 1 254 0
 931 009c 4FF00403 		mov	r3, #4
 932 00a0 FB61     		str	r3, [r7, #28]
 255:C:/data/workspaces/github/de.protos.demos/src/HexagonCANDemo/etrice.HexagonCANDemo.demo/src-gen-st/room/basic/service/timing\ATimingService.c **** 							catching_state__et = STATE_TOP;
 933              		.loc 1 255 0
 934 00a2 4FF00103 		mov	r3, #1
 935 00a6 7B83     		strh	r3, [r7, #26]	@ movhi
 256:C:/data/workspaces/github/de.protos.demos/src/HexagonCANDemo/etrice.HexagonCANDemo.demo/src-gen-st/room/basic/service/timing\ATimingService.c **** 						}
 257:C:/data/workspaces/github/de.protos.demos/src/HexagonCANDemo/etrice.HexagonCANDemo.demo/src-gen-st/room/basic/service/timing\ATimingService.c **** 					break;
 936              		.loc 1 257 0
 937 00a8 00E0     		b	.L60
 938              	.L54:
 258:C:/data/workspaces/github/de.protos.demos/src/HexagonCANDemo/etrice.HexagonCANDemo.demo/src-gen-st/room/basic/service/timing\ATimingService.c **** 					default:
 259:C:/data/workspaces/github/de.protos.demos/src/HexagonCANDemo/etrice.HexagonCANDemo.demo/src-gen-st/room/basic/service/timing\ATimingService.c **** 						/* should not occur */
 260:C:/data/workspaces/github/de.protos.demos/src/HexagonCANDemo/etrice.HexagonCANDemo.demo/src-gen-st/room/basic/service/timing\ATimingService.c **** 						break;
 939              		.loc 1 260 0
 940 00aa 00BF     		nop
 941              	.L60:
 261:C:/data/workspaces/github/de.protos.demos/src/HexagonCANDemo/etrice.HexagonCANDemo.demo/src-gen-st/room/basic/service/timing\ATimingService.c **** 				}
 262:C:/data/workspaces/github/de.protos.demos/src/HexagonCANDemo/etrice.HexagonCANDemo.demo/src-gen-st/room/basic/service/timing\ATimingService.c **** 				break;
 942              		.loc 1 262 0
 943 00ac 00E0     		b	.L51
 944              	.L62:
 263:C:/data/workspaces/github/de.protos.demos/src/HexagonCANDemo/etrice.HexagonCANDemo.demo/src-gen-st/room/basic/service/timing\ATimingService.c **** 			default:
 264:C:/data/workspaces/github/de.protos.demos/src/HexagonCANDemo/etrice.HexagonCANDemo.demo/src-gen-st/room/basic/service/timing\ATimingService.c **** 				/* should not occur */
 265:C:/data/workspaces/github/de.protos.demos/src/HexagonCANDemo/etrice.HexagonCANDemo.demo/src-gen-st/room/basic/service/timing\ATimingService.c **** 				break;
 945              		.loc 1 265 0
 946 00ae 00BF     		nop
 947              	.L51:
 266:C:/data/workspaces/github/de.protos.demos/src/HexagonCANDemo/etrice.HexagonCANDemo.demo/src-gen-st/room/basic/service/timing\ATimingService.c **** 		}
 267:C:/data/workspaces/github/de.protos.demos/src/HexagonCANDemo/etrice.HexagonCANDemo.demo/src-gen-st/room/basic/service/timing\ATimingService.c **** 	}
 268:C:/data/workspaces/github/de.protos.demos/src/HexagonCANDemo/etrice.HexagonCANDemo.demo/src-gen-st/room/basic/service/timing\ATimingService.c **** 	if (chain__et != NOT_CAUGHT) {
 948              		.loc 1 268 0
 949 00b0 FB69     		ldr	r3, [r7, #28]
 950 00b2 002B     		cmp	r3, #0
 951 00b4 21D0     		beq	.L48
 269:C:/data/workspaces/github/de.protos.demos/src/HexagonCANDemo/etrice.HexagonCANDemo.demo/src-gen-st/room/basic/service/timing\ATimingService.c **** 		exitTo(self, getState(self), catching_state__et);
 952              		.loc 1 269 0
 953 00b6 F868     		ldr	r0, [r7, #12]
 954 00b8 FFF7FEFF 		bl	getState
 955 00bc 0346     		mov	r3, r0
 956 00be 1A46     		mov	r2, r3
 957 00c0 B7F91A30 		ldrsh	r3, [r7, #26]
 958 00c4 F868     		ldr	r0, [r7, #12]
 959 00c6 1146     		mov	r1, r2
 960 00c8 1A46     		mov	r2, r3
 961 00ca FFF7FEFF 		bl	exitTo
 962              	.LBB4:
 270:C:/data/workspaces/github/de.protos.demos/src/HexagonCANDemo/etrice.HexagonCANDemo.demo/src-gen-st/room/basic/service/timing\ATimingService.c **** 		{
 271:C:/data/workspaces/github/de.protos.demos/src/HexagonCANDemo/etrice.HexagonCANDemo.demo/src-gen-st/room/basic/service/timing\ATimingService.c **** 			etInt16 next__et = executeTransitionChain(self, chain__et, ifitem, generic_data__et);
 963              		.loc 1 271 0
 964 00ce F868     		ldr	r0, [r7, #12]
 965 00d0 F969     		ldr	r1, [r7, #28]
 966 00d2 BA68     		ldr	r2, [r7, #8]
 967 00d4 3B68     		ldr	r3, [r7, #0]
 968 00d6 FFF7FEFF 		bl	executeTransitionChain
 969 00da 0346     		mov	r3, r0
 970 00dc 7B82     		strh	r3, [r7, #18]	@ movhi
 272:C:/data/workspaces/github/de.protos.demos/src/HexagonCANDemo/etrice.HexagonCANDemo.demo/src-gen-st/room/basic/service/timing\ATimingService.c **** 			next__et = enterHistory(self, next__et);
 971              		.loc 1 272 0
 972 00de B7F91230 		ldrsh	r3, [r7, #18]
 973 00e2 F868     		ldr	r0, [r7, #12]
 974 00e4 1946     		mov	r1, r3
 975 00e6 FFF7FEFF 		bl	enterHistory
 976 00ea 0346     		mov	r3, r0
 977 00ec 7B82     		strh	r3, [r7, #18]	@ movhi
 273:C:/data/workspaces/github/de.protos.demos/src/HexagonCANDemo/etrice.HexagonCANDemo.demo/src-gen-st/room/basic/service/timing\ATimingService.c **** 			setState(self, next__et);
 978              		.loc 1 273 0
 979 00ee B7F91230 		ldrsh	r3, [r7, #18]
 980 00f2 F868     		ldr	r0, [r7, #12]
 981 00f4 1946     		mov	r1, r3
 982 00f6 FFF7FEFF 		bl	setState
 983              	.L48:
 984              	.LBE4:
 274:C:/data/workspaces/github/de.protos.demos/src/HexagonCANDemo/etrice.HexagonCANDemo.demo/src-gen-st/room/basic/service/timing\ATimingService.c **** 		}
 275:C:/data/workspaces/github/de.protos.demos/src/HexagonCANDemo/etrice.HexagonCANDemo.demo/src-gen-st/room/basic/service/timing\ATimingService.c **** 	}
 276:C:/data/workspaces/github/de.protos.demos/src/HexagonCANDemo/etrice.HexagonCANDemo.demo/src-gen-st/room/basic/service/timing\ATimingService.c **** }
 985              		.loc 1 276 0
 986 00fa 07F12007 		add	r7, r7, #32
 987 00fe BD46     		mov	sp, r7
 988 0100 80BD     		pop	{r7, pc}
 989              		.cfi_endproc
 990              	.LFE12:
 992 0102 00BF     		.section	.text.ATimingService_init,"ax",%progbits
 993              		.align	2
 994              		.global	ATimingService_init
 995              		.thumb
 996              		.thumb_func
 998              	ATimingService_init:
 999              	.LFB13:
 277:C:/data/workspaces/github/de.protos.demos/src/HexagonCANDemo/etrice.HexagonCANDemo.demo/src-gen-st/room/basic/service/timing\ATimingService.c **** 
 278:C:/data/workspaces/github/de.protos.demos/src/HexagonCANDemo/etrice.HexagonCANDemo.demo/src-gen-st/room/basic/service/timing\ATimingService.c **** void ATimingService_init(ATimingService* self){
 1000              		.loc 1 278 0
 1001              		.cfi_startproc
 1002              		@ args = 0, pretend = 0, frame = 16
 1003              		@ frame_needed = 1, uses_anonymous_args = 0
 1004 0000 80B5     		push	{r7, lr}
 1005              	.LCFI39:
 1006              		.cfi_def_cfa_offset 8
 1007              		.cfi_offset 7, -8
 1008              		.cfi_offset 14, -4
 1009 0002 84B0     		sub	sp, sp, #16
 1010              	.LCFI40:
 1011              		.cfi_def_cfa_offset 24
 1012 0004 00AF     		add	r7, sp, #0
 1013              	.LCFI41:
 1014              		.cfi_def_cfa_register 7
 1015 0006 7860     		str	r0, [r7, #4]
 279:C:/data/workspaces/github/de.protos.demos/src/HexagonCANDemo/etrice.HexagonCANDemo.demo/src-gen-st/room/basic/service/timing\ATimingService.c **** 	ET_MSC_LOGGER_SYNC_ENTRY("ATimingService", "init")
 280:C:/data/workspaces/github/de.protos.demos/src/HexagonCANDemo/etrice.HexagonCANDemo.demo/src-gen-st/room/basic/service/timing\ATimingService.c **** 	self->state = STATE_TOP;
 1016              		.loc 1 280 0
 1017 0008 7B68     		ldr	r3, [r7, #4]
 1018 000a 4FF00102 		mov	r2, #1
 1019 000e A3F8DC22 		strh	r2, [r3, #732]	@ movhi
 1020              	.LBB5:
 281:C:/data/workspaces/github/de.protos.demos/src/HexagonCANDemo/etrice.HexagonCANDemo.demo/src-gen-st/room/basic/service/timing\ATimingService.c **** 	{
 282:C:/data/workspaces/github/de.protos.demos/src/HexagonCANDemo/etrice.HexagonCANDemo.demo/src-gen-st/room/basic/service/timing\ATimingService.c **** 		int i;
 283:C:/data/workspaces/github/de.protos.demos/src/HexagonCANDemo/etrice.HexagonCANDemo.demo/src-gen-st/room/basic/service/timing\ATimingService.c **** 		for (i=0; i<ATIMINGSERVICE_HISTORY_SIZE; ++i)
 1021              		.loc 1 283 0
 1022 0012 4FF00003 		mov	r3, #0
 1023 0016 FB60     		str	r3, [r7, #12]
 1024 0018 0DE0     		b	.L64
 1025              	.L65:
 284:C:/data/workspaces/github/de.protos.demos/src/HexagonCANDemo/etrice.HexagonCANDemo.demo/src-gen-st/room/basic/service/timing\ATimingService.c **** 			self->history[i] = NO_STATE;
 1026              		.loc 1 284 0 discriminator 2
 1027 001a 7A68     		ldr	r2, [r7, #4]
 1028 001c FB68     		ldr	r3, [r7, #12]
 1029 001e 03F5B673 		add	r3, r3, #364
 1030 0022 4FEA4303 		lsl	r3, r3, #1
 1031 0026 D318     		adds	r3, r2, r3
 1032 0028 4FF00002 		mov	r2, #0
 1033 002c DA80     		strh	r2, [r3, #6]	@ movhi
 283:C:/data/workspaces/github/de.protos.demos/src/HexagonCANDemo/etrice.HexagonCANDemo.demo/src-gen-st/room/basic/service/timing\ATimingService.c **** 		for (i=0; i<ATIMINGSERVICE_HISTORY_SIZE; ++i)
 1034              		.loc 1 283 0 discriminator 2
 1035 002e FB68     		ldr	r3, [r7, #12]
 1036 0030 03F10103 		add	r3, r3, #1
 1037 0034 FB60     		str	r3, [r7, #12]
 1038              	.L64:
 283:C:/data/workspaces/github/de.protos.demos/src/HexagonCANDemo/etrice.HexagonCANDemo.demo/src-gen-st/room/basic/service/timing\ATimingService.c **** 		for (i=0; i<ATIMINGSERVICE_HISTORY_SIZE; ++i)
 1039              		.loc 1 283 0 is_stmt 0 discriminator 1
 1040 0036 FB68     		ldr	r3, [r7, #12]
 1041 0038 012B     		cmp	r3, #1
 1042 003a EEDD     		ble	.L65
 1043              	.LBE5:
 285:C:/data/workspaces/github/de.protos.demos/src/HexagonCANDemo/etrice.HexagonCANDemo.demo/src-gen-st/room/basic/service/timing\ATimingService.c **** 	}
 286:C:/data/workspaces/github/de.protos.demos/src/HexagonCANDemo/etrice.HexagonCANDemo.demo/src-gen-st/room/basic/service/timing\ATimingService.c **** 	ATimingService_executeInitTransition(self);
 1044              		.loc 1 286 0 is_stmt 1
 1045 003c 7868     		ldr	r0, [r7, #4]
 1046 003e FFF7FEFF 		bl	ATimingService_executeInitTransition
 287:C:/data/workspaces/github/de.protos.demos/src/HexagonCANDemo/etrice.HexagonCANDemo.demo/src-gen-st/room/basic/service/timing\ATimingService.c **** 	ET_MSC_LOGGER_SYNC_EXIT
 288:C:/data/workspaces/github/de.protos.demos/src/HexagonCANDemo/etrice.HexagonCANDemo.demo/src-gen-st/room/basic/service/timing\ATimingService.c **** }
 1047              		.loc 1 288 0
 1048 0042 07F11007 		add	r7, r7, #16
 1049 0046 BD46     		mov	sp, r7
 1050 0048 80BD     		pop	{r7, pc}
 1051              		.cfi_endproc
 1052              	.LFE13:
 1054 004a 00BF     		.section	.text.ATimingService_receiveMessage,"ax",%progbits
 1055              		.align	2
 1056              		.global	ATimingService_receiveMessage
 1057              		.thumb
 1058              		.thumb_func
 1060              	ATimingService_receiveMessage:
 1061              	.LFB14:
 289:C:/data/workspaces/github/de.protos.demos/src/HexagonCANDemo/etrice.HexagonCANDemo.demo/src-gen-st/room/basic/service/timing\ATimingService.c **** 
 290:C:/data/workspaces/github/de.protos.demos/src/HexagonCANDemo/etrice.HexagonCANDemo.demo/src-gen-st/room/basic/service/timing\ATimingService.c **** 
 291:C:/data/workspaces/github/de.protos.demos/src/HexagonCANDemo/etrice.HexagonCANDemo.demo/src-gen-st/room/basic/service/timing\ATimingService.c **** void ATimingService_receiveMessage(void* self, const void* ifitem, const etMessage* msg){
 1062              		.loc 1 291 0
 1063              		.cfi_startproc
 1064              		@ args = 0, pretend = 0, frame = 16
 1065              		@ frame_needed = 1, uses_anonymous_args = 0
 1066 0000 80B5     		push	{r7, lr}
 1067              	.LCFI42:
 1068              		.cfi_def_cfa_offset 8
 1069              		.cfi_offset 7, -8
 1070              		.cfi_offset 14, -4
 1071 0002 84B0     		sub	sp, sp, #16
 1072              	.LCFI43:
 1073              		.cfi_def_cfa_offset 24
 1074 0004 00AF     		add	r7, sp, #0
 1075              	.LCFI44:
 1076              		.cfi_def_cfa_register 7
 1077 0006 F860     		str	r0, [r7, #12]
 1078 0008 B960     		str	r1, [r7, #8]
 1079 000a 7A60     		str	r2, [r7, #4]
 292:C:/data/workspaces/github/de.protos.demos/src/HexagonCANDemo/etrice.HexagonCANDemo.demo/src-gen-st/room/basic/service/timing\ATimingService.c **** 	ET_MSC_LOGGER_SYNC_ENTRY("ATimingService", "_receiveMessage")
 293:C:/data/workspaces/github/de.protos.demos/src/HexagonCANDemo/etrice.HexagonCANDemo.demo/src-gen-st/room/basic/service/timing\ATimingService.c **** 	
 294:C:/data/workspaces/github/de.protos.demos/src/HexagonCANDemo/etrice.HexagonCANDemo.demo/src-gen-st/room/basic/service/timing\ATimingService.c **** 	ATimingService_receiveEvent(self, (etPort*)ifitem, msg->evtID, (void*)(((char*)msg)+MEM_CEIL(sizeo
 1080              		.loc 1 294 0
 1081 000c 7B68     		ldr	r3, [r7, #4]
 1082 000e DB88     		ldrh	r3, [r3, #6]
 1083 0010 1AB2     		sxth	r2, r3
 1084 0012 7B68     		ldr	r3, [r7, #4]
 1085 0014 03F10803 		add	r3, r3, #8
 1086 0018 F868     		ldr	r0, [r7, #12]
 1087 001a B968     		ldr	r1, [r7, #8]
 1088 001c FFF7FEFF 		bl	ATimingService_receiveEvent
 295:C:/data/workspaces/github/de.protos.demos/src/HexagonCANDemo/etrice.HexagonCANDemo.demo/src-gen-st/room/basic/service/timing\ATimingService.c **** 	
 296:C:/data/workspaces/github/de.protos.demos/src/HexagonCANDemo/etrice.HexagonCANDemo.demo/src-gen-st/room/basic/service/timing\ATimingService.c **** 	ET_MSC_LOGGER_SYNC_EXIT
 297:C:/data/workspaces/github/de.protos.demos/src/HexagonCANDemo/etrice.HexagonCANDemo.demo/src-gen-st/room/basic/service/timing\ATimingService.c **** }
 1089              		.loc 1 297 0
 1090 0020 07F11007 		add	r7, r7, #16
 1091 0024 BD46     		mov	sp, r7
 1092 0026 80BD     		pop	{r7, pc}
 1093              		.cfi_endproc
 1094              	.LFE14:
 1096              		.section	.text.ATimingService_execute,"ax",%progbits
 1097              		.align	2
 1098              		.global	ATimingService_execute
 1099              		.thumb
 1100              		.thumb_func
 1102              	ATimingService_execute:
 1103              	.LFB15:
 298:C:/data/workspaces/github/de.protos.demos/src/HexagonCANDemo/etrice.HexagonCANDemo.demo/src-gen-st/room/basic/service/timing\ATimingService.c **** 
 299:C:/data/workspaces/github/de.protos.demos/src/HexagonCANDemo/etrice.HexagonCANDemo.demo/src-gen-st/room/basic/service/timing\ATimingService.c **** void ATimingService_execute(ATimingService* self) {
 1104              		.loc 1 299 0
 1105              		.cfi_startproc
 1106              		@ args = 0, pretend = 0, frame = 8
 1107              		@ frame_needed = 1, uses_anonymous_args = 0
 1108 0000 80B5     		push	{r7, lr}
 1109              	.LCFI45:
 1110              		.cfi_def_cfa_offset 8
 1111              		.cfi_offset 7, -8
 1112              		.cfi_offset 14, -4
 1113 0002 82B0     		sub	sp, sp, #8
 1114              	.LCFI46:
 1115              		.cfi_def_cfa_offset 16
 1116 0004 00AF     		add	r7, sp, #0
 1117              	.LCFI47:
 1118              		.cfi_def_cfa_register 7
 1119 0006 7860     		str	r0, [r7, #4]
 300:C:/data/workspaces/github/de.protos.demos/src/HexagonCANDemo/etrice.HexagonCANDemo.demo/src-gen-st/room/basic/service/timing\ATimingService.c **** 	ET_MSC_LOGGER_SYNC_ENTRY("ATimingService", "_execute")
 301:C:/data/workspaces/github/de.protos.demos/src/HexagonCANDemo/etrice.HexagonCANDemo.demo/src-gen-st/room/basic/service/timing\ATimingService.c **** 	
 302:C:/data/workspaces/github/de.protos.demos/src/HexagonCANDemo/etrice.HexagonCANDemo.demo/src-gen-st/room/basic/service/timing\ATimingService.c **** 	ATimingService_receiveEvent(self, NULL, 0, NULL);
 1120              		.loc 1 302 0
 1121 0008 7868     		ldr	r0, [r7, #4]
 1122 000a 4FF00001 		mov	r1, #0
 1123 000e 4FF00002 		mov	r2, #0
 1124 0012 4FF00003 		mov	r3, #0
 1125 0016 FFF7FEFF 		bl	ATimingService_receiveEvent
 303:C:/data/workspaces/github/de.protos.demos/src/HexagonCANDemo/etrice.HexagonCANDemo.demo/src-gen-st/room/basic/service/timing\ATimingService.c **** 	
 304:C:/data/workspaces/github/de.protos.demos/src/HexagonCANDemo/etrice.HexagonCANDemo.demo/src-gen-st/room/basic/service/timing\ATimingService.c **** 	ET_MSC_LOGGER_SYNC_EXIT
 305:C:/data/workspaces/github/de.protos.demos/src/HexagonCANDemo/etrice.HexagonCANDemo.demo/src-gen-st/room/basic/service/timing\ATimingService.c **** }
 1126              		.loc 1 305 0
 1127 001a 07F10807 		add	r7, r7, #8
 1128 001e BD46     		mov	sp, r7
 1129 0020 80BD     		pop	{r7, pc}
 1130              		.cfi_endproc
 1131              	.LFE15:
 1133 0022 00BF     		.section	.text.ATimingService_getTcb,"ax",%progbits
 1134              		.align	2
 1135              		.global	ATimingService_getTcb
 1136              		.thumb
 1137              		.thumb_func
 1139              	ATimingService_getTcb:
 1140              	.LFB16:
 306:C:/data/workspaces/github/de.protos.demos/src/HexagonCANDemo/etrice.HexagonCANDemo.demo/src-gen-st/room/basic/service/timing\ATimingService.c **** 
 307:C:/data/workspaces/github/de.protos.demos/src/HexagonCANDemo/etrice.HexagonCANDemo.demo/src-gen-st/room/basic/service/timing\ATimingService.c **** /*--------------------- operations ---------------------*/
 308:C:/data/workspaces/github/de.protos.demos/src/HexagonCANDemo/etrice.HexagonCANDemo.demo/src-gen-st/room/basic/service/timing\ATimingService.c **** etTimerControlBlock* ATimingService_getTcb(ATimingService* self) {
 1141              		.loc 1 308 0
 1142              		.cfi_startproc
 1143              		@ args = 0, pretend = 0, frame = 16
 1144              		@ frame_needed = 1, uses_anonymous_args = 0
 1145              		@ link register save eliminated.
 1146 0000 80B4     		push	{r7}
 1147              	.LCFI48:
 1148              		.cfi_def_cfa_offset 4
 1149              		.cfi_offset 7, -4
 1150 0002 85B0     		sub	sp, sp, #20
 1151              	.LCFI49:
 1152              		.cfi_def_cfa_offset 24
 1153 0004 00AF     		add	r7, sp, #0
 1154              	.LCFI50:
 1155              		.cfi_def_cfa_register 7
 1156 0006 7860     		str	r0, [r7, #4]
 309:C:/data/workspaces/github/de.protos.demos/src/HexagonCANDemo/etrice.HexagonCANDemo.demo/src-gen-st/room/basic/service/timing\ATimingService.c **** 	etTimerControlBlock* temp = freeTcbsRoot;
 1157              		.loc 1 309 0
 1158 0008 7B68     		ldr	r3, [r7, #4]
 1159 000a D3F8D832 		ldr	r3, [r3, #728]
 1160 000e FB60     		str	r3, [r7, #12]
 310:C:/data/workspaces/github/de.protos.demos/src/HexagonCANDemo/etrice.HexagonCANDemo.demo/src-gen-st/room/basic/service/timing\ATimingService.c **** 	
 311:C:/data/workspaces/github/de.protos.demos/src/HexagonCANDemo/etrice.HexagonCANDemo.demo/src-gen-st/room/basic/service/timing\ATimingService.c **** 	if(freeTcbsRoot!=0) {
 1161              		.loc 1 311 0
 1162 0010 7B68     		ldr	r3, [r7, #4]
 1163 0012 D3F8D832 		ldr	r3, [r3, #728]
 1164 0016 002B     		cmp	r3, #0
 1165 0018 0AD0     		beq	.L69
 312:C:/data/workspaces/github/de.protos.demos/src/HexagonCANDemo/etrice.HexagonCANDemo.demo/src-gen-st/room/basic/service/timing\ATimingService.c **** 		freeTcbsRoot=freeTcbsRoot->next;
 1166              		.loc 1 312 0
 1167 001a 7B68     		ldr	r3, [r7, #4]
 1168 001c D3F8D832 		ldr	r3, [r3, #728]
 1169 0020 5A69     		ldr	r2, [r3, #20]
 1170 0022 7B68     		ldr	r3, [r7, #4]
 1171 0024 C3F8D822 		str	r2, [r3, #728]
 313:C:/data/workspaces/github/de.protos.demos/src/HexagonCANDemo/etrice.HexagonCANDemo.demo/src-gen-st/room/basic/service/timing\ATimingService.c **** 		temp->next=0;
 1172              		.loc 1 313 0
 1173 0028 FB68     		ldr	r3, [r7, #12]
 1174 002a 4FF00002 		mov	r2, #0
 1175 002e 5A61     		str	r2, [r3, #20]
 1176              	.L69:
 314:C:/data/workspaces/github/de.protos.demos/src/HexagonCANDemo/etrice.HexagonCANDemo.demo/src-gen-st/room/basic/service/timing\ATimingService.c **** 		}
 315:C:/data/workspaces/github/de.protos.demos/src/HexagonCANDemo/etrice.HexagonCANDemo.demo/src-gen-st/room/basic/service/timing\ATimingService.c **** 	return temp;
 1177              		.loc 1 315 0
 1178 0030 FB68     		ldr	r3, [r7, #12]
 316:C:/data/workspaces/github/de.protos.demos/src/HexagonCANDemo/etrice.HexagonCANDemo.demo/src-gen-st/room/basic/service/timing\ATimingService.c **** }
 1179              		.loc 1 316 0
 1180 0032 1846     		mov	r0, r3
 1181 0034 07F11407 		add	r7, r7, #20
 1182 0038 BD46     		mov	sp, r7
 1183 003a 80BC     		pop	{r7}
 1184 003c 7047     		bx	lr
 1185              		.cfi_endproc
 1186              	.LFE16:
 1188 003e 00BF     		.section	.text.ATimingService_returnTcb,"ax",%progbits
 1189              		.align	2
 1190              		.global	ATimingService_returnTcb
 1191              		.thumb
 1192              		.thumb_func
 1194              	ATimingService_returnTcb:
 1195              	.LFB17:
 317:C:/data/workspaces/github/de.protos.demos/src/HexagonCANDemo/etrice.HexagonCANDemo.demo/src-gen-st/room/basic/service/timing\ATimingService.c **** void ATimingService_returnTcb(ATimingService* self, etTimerControlBlock* block) {
 1196              		.loc 1 317 0
 1197              		.cfi_startproc
 1198              		@ args = 0, pretend = 0, frame = 8
 1199              		@ frame_needed = 1, uses_anonymous_args = 0
 1200              		@ link register save eliminated.
 1201 0000 80B4     		push	{r7}
 1202              	.LCFI51:
 1203              		.cfi_def_cfa_offset 4
 1204              		.cfi_offset 7, -4
 1205 0002 83B0     		sub	sp, sp, #12
 1206              	.LCFI52:
 1207              		.cfi_def_cfa_offset 16
 1208 0004 00AF     		add	r7, sp, #0
 1209              	.LCFI53:
 1210              		.cfi_def_cfa_register 7
 1211 0006 7860     		str	r0, [r7, #4]
 1212 0008 3960     		str	r1, [r7, #0]
 318:C:/data/workspaces/github/de.protos.demos/src/HexagonCANDemo/etrice.HexagonCANDemo.demo/src-gen-st/room/basic/service/timing\ATimingService.c **** 	block->next=freeTcbsRoot;
 1213              		.loc 1 318 0
 1214 000a 7B68     		ldr	r3, [r7, #4]
 1215 000c D3F8D822 		ldr	r2, [r3, #728]
 1216 0010 3B68     		ldr	r3, [r7, #0]
 1217 0012 5A61     		str	r2, [r3, #20]
 319:C:/data/workspaces/github/de.protos.demos/src/HexagonCANDemo/etrice.HexagonCANDemo.demo/src-gen-st/room/basic/service/timing\ATimingService.c **** 	freeTcbsRoot=block;
 1218              		.loc 1 319 0
 1219 0014 7B68     		ldr	r3, [r7, #4]
 1220 0016 3A68     		ldr	r2, [r7, #0]
 1221 0018 C3F8D822 		str	r2, [r3, #728]
 320:C:/data/workspaces/github/de.protos.demos/src/HexagonCANDemo/etrice.HexagonCANDemo.demo/src-gen-st/room/basic/service/timing\ATimingService.c **** }
 1222              		.loc 1 320 0
 1223 001c 07F10C07 		add	r7, r7, #12
 1224 0020 BD46     		mov	sp, r7
 1225 0022 80BC     		pop	{r7}
 1226 0024 7047     		bx	lr
 1227              		.cfi_endproc
 1228              	.LFE17:
 1230 0026 00BF     		.section	.text.ATimingService_removeTcbFromUsedList,"ax",%progbits
 1231              		.align	2
 1232              		.global	ATimingService_removeTcbFromUsedList
 1233              		.thumb
 1234              		.thumb_func
 1236              	ATimingService_removeTcbFromUsedList:
 1237              	.LFB18:
 321:C:/data/workspaces/github/de.protos.demos/src/HexagonCANDemo/etrice.HexagonCANDemo.demo/src-gen-st/room/basic/service/timing\ATimingService.c **** void ATimingService_removeTcbFromUsedList(ATimingService* self, int32 idx) {
 1238              		.loc 1 321 0
 1239              		.cfi_startproc
 1240              		@ args = 0, pretend = 0, frame = 16
 1241              		@ frame_needed = 1, uses_anonymous_args = 0
 1242 0000 80B5     		push	{r7, lr}
 1243              	.LCFI54:
 1244              		.cfi_def_cfa_offset 8
 1245              		.cfi_offset 7, -8
 1246              		.cfi_offset 14, -4
 1247 0002 84B0     		sub	sp, sp, #16
 1248              	.LCFI55:
 1249              		.cfi_def_cfa_offset 24
 1250 0004 00AF     		add	r7, sp, #0
 1251              	.LCFI56:
 1252              		.cfi_def_cfa_register 7
 1253 0006 7860     		str	r0, [r7, #4]
 1254 0008 3960     		str	r1, [r7, #0]
 322:C:/data/workspaces/github/de.protos.demos/src/HexagonCANDemo/etrice.HexagonCANDemo.demo/src-gen-st/room/basic/service/timing\ATimingService.c **** 	etTimerControlBlock* temp=usedTcbsRoot;
 1255              		.loc 1 322 0
 1256 000a 7B68     		ldr	r3, [r7, #4]
 1257 000c D3F8D432 		ldr	r3, [r3, #724]
 1258 0010 FB60     		str	r3, [r7, #12]
 323:C:/data/workspaces/github/de.protos.demos/src/HexagonCANDemo/etrice.HexagonCANDemo.demo/src-gen-st/room/basic/service/timing\ATimingService.c **** 	etTimerControlBlock* temp2=usedTcbsRoot;
 1259              		.loc 1 323 0
 1260 0012 7B68     		ldr	r3, [r7, #4]
 1261 0014 D3F8D432 		ldr	r3, [r3, #724]
 1262 0018 BB60     		str	r3, [r7, #8]
 324:C:/data/workspaces/github/de.protos.demos/src/HexagonCANDemo/etrice.HexagonCANDemo.demo/src-gen-st/room/basic/service/timing\ATimingService.c **** 	
 325:C:/data/workspaces/github/de.protos.demos/src/HexagonCANDemo/etrice.HexagonCANDemo.demo/src-gen-st/room/basic/service/timing\ATimingService.c **** 	if (temp==0) return;
 1263              		.loc 1 325 0
 1264 001a FB68     		ldr	r3, [r7, #12]
 1265 001c 002B     		cmp	r3, #0
 1266 001e 2DD0     		beq	.L79
 1267              	.L73:
 326:C:/data/workspaces/github/de.protos.demos/src/HexagonCANDemo/etrice.HexagonCANDemo.demo/src-gen-st/room/basic/service/timing\ATimingService.c **** 	
 327:C:/data/workspaces/github/de.protos.demos/src/HexagonCANDemo/etrice.HexagonCANDemo.demo/src-gen-st/room/basic/service/timing\ATimingService.c **** 	if (usedTcbsRoot->portIdx == idx){
 1268              		.loc 1 327 0
 1269 0020 7B68     		ldr	r3, [r7, #4]
 1270 0022 D3F8D432 		ldr	r3, [r3, #724]
 1271 0026 1A69     		ldr	r2, [r3, #16]
 1272 0028 3B68     		ldr	r3, [r7, #0]
 1273 002a 9A42     		cmp	r2, r3
 1274 002c 0BD1     		bne	.L75
 328:C:/data/workspaces/github/de.protos.demos/src/HexagonCANDemo/etrice.HexagonCANDemo.demo/src-gen-st/room/basic/service/timing\ATimingService.c **** 		/* element found, the first one */
 329:C:/data/workspaces/github/de.protos.demos/src/HexagonCANDemo/etrice.HexagonCANDemo.demo/src-gen-st/room/basic/service/timing\ATimingService.c **** 		usedTcbsRoot = usedTcbsRoot->next;
 1275              		.loc 1 329 0
 1276 002e 7B68     		ldr	r3, [r7, #4]
 1277 0030 D3F8D432 		ldr	r3, [r3, #724]
 1278 0034 5A69     		ldr	r2, [r3, #20]
 1279 0036 7B68     		ldr	r3, [r7, #4]
 1280 0038 C3F8D422 		str	r2, [r3, #724]
 330:C:/data/workspaces/github/de.protos.demos/src/HexagonCANDemo/etrice.HexagonCANDemo.demo/src-gen-st/room/basic/service/timing\ATimingService.c **** 		returnTcb(temp);
 1281              		.loc 1 330 0
 1282 003c 7868     		ldr	r0, [r7, #4]
 1283 003e F968     		ldr	r1, [r7, #12]
 1284 0040 FFF7FEFF 		bl	ATimingService_returnTcb
 331:C:/data/workspaces/github/de.protos.demos/src/HexagonCANDemo/etrice.HexagonCANDemo.demo/src-gen-st/room/basic/service/timing\ATimingService.c **** 		return;
 1285              		.loc 1 331 0
 1286 0044 1BE0     		b	.L72
 1287              	.L75:
 332:C:/data/workspaces/github/de.protos.demos/src/HexagonCANDemo/etrice.HexagonCANDemo.demo/src-gen-st/room/basic/service/timing\ATimingService.c **** 	}
 333:C:/data/workspaces/github/de.protos.demos/src/HexagonCANDemo/etrice.HexagonCANDemo.demo/src-gen-st/room/basic/service/timing\ATimingService.c **** 	
 334:C:/data/workspaces/github/de.protos.demos/src/HexagonCANDemo/etrice.HexagonCANDemo.demo/src-gen-st/room/basic/service/timing\ATimingService.c **** 	temp=temp->next;
 1288              		.loc 1 334 0
 1289 0046 FB68     		ldr	r3, [r7, #12]
 1290 0048 5B69     		ldr	r3, [r3, #20]
 1291 004a FB60     		str	r3, [r7, #12]
 335:C:/data/workspaces/github/de.protos.demos/src/HexagonCANDemo/etrice.HexagonCANDemo.demo/src-gen-st/room/basic/service/timing\ATimingService.c **** 	while(temp!=0){
 1292              		.loc 1 335 0
 1293 004c 12E0     		b	.L76
 1294              	.L78:
 336:C:/data/workspaces/github/de.protos.demos/src/HexagonCANDemo/etrice.HexagonCANDemo.demo/src-gen-st/room/basic/service/timing\ATimingService.c **** 		if(temp->portIdx==idx){
 1295              		.loc 1 336 0
 1296 004e FB68     		ldr	r3, [r7, #12]
 1297 0050 1A69     		ldr	r2, [r3, #16]
 1298 0052 3B68     		ldr	r3, [r7, #0]
 1299 0054 9A42     		cmp	r2, r3
 1300 0056 08D1     		bne	.L77
 337:C:/data/workspaces/github/de.protos.demos/src/HexagonCANDemo/etrice.HexagonCANDemo.demo/src-gen-st/room/basic/service/timing\ATimingService.c **** 			temp2->next=temp->next;
 1301              		.loc 1 337 0
 1302 0058 FB68     		ldr	r3, [r7, #12]
 1303 005a 5A69     		ldr	r2, [r3, #20]
 1304 005c BB68     		ldr	r3, [r7, #8]
 1305 005e 5A61     		str	r2, [r3, #20]
 338:C:/data/workspaces/github/de.protos.demos/src/HexagonCANDemo/etrice.HexagonCANDemo.demo/src-gen-st/room/basic/service/timing\ATimingService.c **** 			returnTcb(temp);
 1306              		.loc 1 338 0
 1307 0060 7868     		ldr	r0, [r7, #4]
 1308 0062 F968     		ldr	r1, [r7, #12]
 1309 0064 FFF7FEFF 		bl	ATimingService_returnTcb
 339:C:/data/workspaces/github/de.protos.demos/src/HexagonCANDemo/etrice.HexagonCANDemo.demo/src-gen-st/room/basic/service/timing\ATimingService.c **** 			return;			
 1310              		.loc 1 339 0
 1311 0068 09E0     		b	.L72
 1312              	.L77:
 340:C:/data/workspaces/github/de.protos.demos/src/HexagonCANDemo/etrice.HexagonCANDemo.demo/src-gen-st/room/basic/service/timing\ATimingService.c **** 		}else{
 341:C:/data/workspaces/github/de.protos.demos/src/HexagonCANDemo/etrice.HexagonCANDemo.demo/src-gen-st/room/basic/service/timing\ATimingService.c **** 			/* try next */
 342:C:/data/workspaces/github/de.protos.demos/src/HexagonCANDemo/etrice.HexagonCANDemo.demo/src-gen-st/room/basic/service/timing\ATimingService.c **** 			temp2=temp;
 1313              		.loc 1 342 0
 1314 006a FB68     		ldr	r3, [r7, #12]
 1315 006c BB60     		str	r3, [r7, #8]
 343:C:/data/workspaces/github/de.protos.demos/src/HexagonCANDemo/etrice.HexagonCANDemo.demo/src-gen-st/room/basic/service/timing\ATimingService.c **** 			temp=temp->next;
 1316              		.loc 1 343 0
 1317 006e FB68     		ldr	r3, [r7, #12]
 1318 0070 5B69     		ldr	r3, [r3, #20]
 1319 0072 FB60     		str	r3, [r7, #12]
 1320              	.L76:
 335:C:/data/workspaces/github/de.protos.demos/src/HexagonCANDemo/etrice.HexagonCANDemo.demo/src-gen-st/room/basic/service/timing\ATimingService.c **** 	while(temp!=0){
 1321              		.loc 1 335 0 discriminator 1
 1322 0074 FB68     		ldr	r3, [r7, #12]
 1323 0076 002B     		cmp	r3, #0
 1324 0078 E9D1     		bne	.L78
 1325 007a 00E0     		b	.L72
 1326              	.L79:
 325:C:/data/workspaces/github/de.protos.demos/src/HexagonCANDemo/etrice.HexagonCANDemo.demo/src-gen-st/room/basic/service/timing\ATimingService.c **** 	if (temp==0) return;
 1327              		.loc 1 325 0
 1328 007c 00BF     		nop
 1329              	.L72:
 344:C:/data/workspaces/github/de.protos.demos/src/HexagonCANDemo/etrice.HexagonCANDemo.demo/src-gen-st/room/basic/service/timing\ATimingService.c **** 			}
 345:C:/data/workspaces/github/de.protos.demos/src/HexagonCANDemo/etrice.HexagonCANDemo.demo/src-gen-st/room/basic/service/timing\ATimingService.c **** 	}
 346:C:/data/workspaces/github/de.protos.demos/src/HexagonCANDemo/etrice.HexagonCANDemo.demo/src-gen-st/room/basic/service/timing\ATimingService.c **** }
 1330              		.loc 1 346 0
 1331 007e 07F11007 		add	r7, r7, #16
 1332 0082 BD46     		mov	sp, r7
 1333 0084 80BD     		pop	{r7, pc}
 1334              		.cfi_endproc
 1335              	.LFE18:
 1337 0086 00BF     		.section	.text.ATimingService_putTcbToUsedList,"ax",%progbits
 1338              		.align	2
 1339              		.global	ATimingService_putTcbToUsedList
 1340              		.thumb
 1341              		.thumb_func
 1343              	ATimingService_putTcbToUsedList:
 1344              	.LFB19:
 347:C:/data/workspaces/github/de.protos.demos/src/HexagonCANDemo/etrice.HexagonCANDemo.demo/src-gen-st/room/basic/service/timing\ATimingService.c **** void ATimingService_putTcbToUsedList(ATimingService* self, etTimerControlBlock* block) {
 1345              		.loc 1 347 0
 1346              		.cfi_startproc
 1347              		@ args = 0, pretend = 0, frame = 16
 1348              		@ frame_needed = 1, uses_anonymous_args = 0
 1349 0000 80B5     		push	{r7, lr}
 1350              	.LCFI57:
 1351              		.cfi_def_cfa_offset 8
 1352              		.cfi_offset 7, -8
 1353              		.cfi_offset 14, -4
 1354 0002 84B0     		sub	sp, sp, #16
 1355              	.LCFI58:
 1356              		.cfi_def_cfa_offset 24
 1357 0004 00AF     		add	r7, sp, #0
 1358              	.LCFI59:
 1359              		.cfi_def_cfa_register 7
 1360 0006 7860     		str	r0, [r7, #4]
 1361 0008 3960     		str	r1, [r7, #0]
 348:C:/data/workspaces/github/de.protos.demos/src/HexagonCANDemo/etrice.HexagonCANDemo.demo/src-gen-st/room/basic/service/timing\ATimingService.c **** 	etTimerControlBlock* temp=usedTcbsRoot;
 1362              		.loc 1 348 0
 1363 000a 7B68     		ldr	r3, [r7, #4]
 1364 000c D3F8D432 		ldr	r3, [r3, #724]
 1365 0010 FB60     		str	r3, [r7, #12]
 349:C:/data/workspaces/github/de.protos.demos/src/HexagonCANDemo/etrice.HexagonCANDemo.demo/src-gen-st/room/basic/service/timing\ATimingService.c **** 	etTimerControlBlock* temp2=usedTcbsRoot;
 1366              		.loc 1 349 0
 1367 0012 7B68     		ldr	r3, [r7, #4]
 1368 0014 D3F8D432 		ldr	r3, [r3, #724]
 1369 0018 BB60     		str	r3, [r7, #8]
 350:C:/data/workspaces/github/de.protos.demos/src/HexagonCANDemo/etrice.HexagonCANDemo.demo/src-gen-st/room/basic/service/timing\ATimingService.c **** 	
 351:C:/data/workspaces/github/de.protos.demos/src/HexagonCANDemo/etrice.HexagonCANDemo.demo/src-gen-st/room/basic/service/timing\ATimingService.c **** 	if (temp==0){
 1370              		.loc 1 351 0
 1371 001a FB68     		ldr	r3, [r7, #12]
 1372 001c 002B     		cmp	r3, #0
 1373 001e 08D1     		bne	.L81
 352:C:/data/workspaces/github/de.protos.demos/src/HexagonCANDemo/etrice.HexagonCANDemo.demo/src-gen-st/room/basic/service/timing\ATimingService.c **** 		/* list empty put new block to root */
 353:C:/data/workspaces/github/de.protos.demos/src/HexagonCANDemo/etrice.HexagonCANDemo.demo/src-gen-st/room/basic/service/timing\ATimingService.c **** 		block->next=0;
 1374              		.loc 1 353 0
 1375 0020 3B68     		ldr	r3, [r7, #0]
 1376 0022 4FF00002 		mov	r2, #0
 1377 0026 5A61     		str	r2, [r3, #20]
 354:C:/data/workspaces/github/de.protos.demos/src/HexagonCANDemo/etrice.HexagonCANDemo.demo/src-gen-st/room/basic/service/timing\ATimingService.c **** 		usedTcbsRoot=block;
 1378              		.loc 1 354 0
 1379 0028 7B68     		ldr	r3, [r7, #4]
 1380 002a 3A68     		ldr	r2, [r7, #0]
 1381 002c C3F8D422 		str	r2, [r3, #724]
 355:C:/data/workspaces/github/de.protos.demos/src/HexagonCANDemo/etrice.HexagonCANDemo.demo/src-gen-st/room/basic/service/timing\ATimingService.c **** 		return;
 1382              		.loc 1 355 0
 1383 0030 2CE0     		b	.L80
 1384              	.L81:
 356:C:/data/workspaces/github/de.protos.demos/src/HexagonCANDemo/etrice.HexagonCANDemo.demo/src-gen-st/room/basic/service/timing\ATimingService.c **** 		}
 357:C:/data/workspaces/github/de.protos.demos/src/HexagonCANDemo/etrice.HexagonCANDemo.demo/src-gen-st/room/basic/service/timing\ATimingService.c **** 	
 358:C:/data/workspaces/github/de.protos.demos/src/HexagonCANDemo/etrice.HexagonCANDemo.demo/src-gen-st/room/basic/service/timing\ATimingService.c **** 	while(1){
 359:C:/data/workspaces/github/de.protos.demos/src/HexagonCANDemo/etrice.HexagonCANDemo.demo/src-gen-st/room/basic/service/timing\ATimingService.c **** 		if (temp != 0){
 1385              		.loc 1 359 0
 1386 0032 FB68     		ldr	r3, [r7, #12]
 1387 0034 002B     		cmp	r3, #0
 1388 0036 21D0     		beq	.L83
 360:C:/data/workspaces/github/de.protos.demos/src/HexagonCANDemo/etrice.HexagonCANDemo.demo/src-gen-st/room/basic/service/timing\ATimingService.c **** 			if (isTimeGreater(&block->expTime,&temp->expTime)){
 1389              		.loc 1 360 0
 1390 0038 3A68     		ldr	r2, [r7, #0]
 1391 003a FB68     		ldr	r3, [r7, #12]
 1392 003c 7868     		ldr	r0, [r7, #4]
 1393 003e 1146     		mov	r1, r2
 1394 0040 1A46     		mov	r2, r3
 1395 0042 FFF7FEFF 		bl	ATimingService_isTimeGreater
 1396 0046 0346     		mov	r3, r0
 1397 0048 002B     		cmp	r3, #0
 1398 004a 05D0     		beq	.L84
 361:C:/data/workspaces/github/de.protos.demos/src/HexagonCANDemo/etrice.HexagonCANDemo.demo/src-gen-st/room/basic/service/timing\ATimingService.c **** 				/* try next position */
 362:C:/data/workspaces/github/de.protos.demos/src/HexagonCANDemo/etrice.HexagonCANDemo.demo/src-gen-st/room/basic/service/timing\ATimingService.c **** 				temp2=temp;	
 1399              		.loc 1 362 0
 1400 004c FB68     		ldr	r3, [r7, #12]
 1401 004e BB60     		str	r3, [r7, #8]
 363:C:/data/workspaces/github/de.protos.demos/src/HexagonCANDemo/etrice.HexagonCANDemo.demo/src-gen-st/room/basic/service/timing\ATimingService.c **** 				temp=temp->next;
 1402              		.loc 1 363 0
 1403 0050 FB68     		ldr	r3, [r7, #12]
 1404 0052 5B69     		ldr	r3, [r3, #20]
 1405 0054 FB60     		str	r3, [r7, #12]
 364:C:/data/workspaces/github/de.protos.demos/src/HexagonCANDemo/etrice.HexagonCANDemo.demo/src-gen-st/room/basic/service/timing\ATimingService.c **** 				}else{
 365:C:/data/workspaces/github/de.protos.demos/src/HexagonCANDemo/etrice.HexagonCANDemo.demo/src-gen-st/room/basic/service/timing\ATimingService.c **** 				/* right position found */
 366:C:/data/workspaces/github/de.protos.demos/src/HexagonCANDemo/etrice.HexagonCANDemo.demo/src-gen-st/room/basic/service/timing\ATimingService.c **** 				block->next=temp;
 367:C:/data/workspaces/github/de.protos.demos/src/HexagonCANDemo/etrice.HexagonCANDemo.demo/src-gen-st/room/basic/service/timing\ATimingService.c **** 				if(temp==usedTcbsRoot){
 368:C:/data/workspaces/github/de.protos.demos/src/HexagonCANDemo/etrice.HexagonCANDemo.demo/src-gen-st/room/basic/service/timing\ATimingService.c **** 					usedTcbsRoot=block;
 369:C:/data/workspaces/github/de.protos.demos/src/HexagonCANDemo/etrice.HexagonCANDemo.demo/src-gen-st/room/basic/service/timing\ATimingService.c **** 					}else{
 370:C:/data/workspaces/github/de.protos.demos/src/HexagonCANDemo/etrice.HexagonCANDemo.demo/src-gen-st/room/basic/service/timing\ATimingService.c **** 					temp2->next=block;
 371:C:/data/workspaces/github/de.protos.demos/src/HexagonCANDemo/etrice.HexagonCANDemo.demo/src-gen-st/room/basic/service/timing\ATimingService.c **** 					}
 372:C:/data/workspaces/github/de.protos.demos/src/HexagonCANDemo/etrice.HexagonCANDemo.demo/src-gen-st/room/basic/service/timing\ATimingService.c **** 				return;
 373:C:/data/workspaces/github/de.protos.demos/src/HexagonCANDemo/etrice.HexagonCANDemo.demo/src-gen-st/room/basic/service/timing\ATimingService.c **** 				}
 374:C:/data/workspaces/github/de.protos.demos/src/HexagonCANDemo/etrice.HexagonCANDemo.demo/src-gen-st/room/basic/service/timing\ATimingService.c **** 			}else{
 375:C:/data/workspaces/github/de.protos.demos/src/HexagonCANDemo/etrice.HexagonCANDemo.demo/src-gen-st/room/basic/service/timing\ATimingService.c **** 			/* end of list reached */
 376:C:/data/workspaces/github/de.protos.demos/src/HexagonCANDemo/etrice.HexagonCANDemo.demo/src-gen-st/room/basic/service/timing\ATimingService.c **** 			block->next=0;
 377:C:/data/workspaces/github/de.protos.demos/src/HexagonCANDemo/etrice.HexagonCANDemo.demo/src-gen-st/room/basic/service/timing\ATimingService.c **** 			temp2->next=block;
 378:C:/data/workspaces/github/de.protos.demos/src/HexagonCANDemo/etrice.HexagonCANDemo.demo/src-gen-st/room/basic/service/timing\ATimingService.c **** 			return;
 379:C:/data/workspaces/github/de.protos.demos/src/HexagonCANDemo/etrice.HexagonCANDemo.demo/src-gen-st/room/basic/service/timing\ATimingService.c **** 		}
 380:C:/data/workspaces/github/de.protos.demos/src/HexagonCANDemo/etrice.HexagonCANDemo.demo/src-gen-st/room/basic/service/timing\ATimingService.c **** 	}
 1406              		.loc 1 380 0
 1407 0056 ECE7     		b	.L81
 1408              	.L84:
 366:C:/data/workspaces/github/de.protos.demos/src/HexagonCANDemo/etrice.HexagonCANDemo.demo/src-gen-st/room/basic/service/timing\ATimingService.c **** 				block->next=temp;
 1409              		.loc 1 366 0
 1410 0058 3B68     		ldr	r3, [r7, #0]
 1411 005a FA68     		ldr	r2, [r7, #12]
 1412 005c 5A61     		str	r2, [r3, #20]
 367:C:/data/workspaces/github/de.protos.demos/src/HexagonCANDemo/etrice.HexagonCANDemo.demo/src-gen-st/room/basic/service/timing\ATimingService.c **** 				if(temp==usedTcbsRoot){
 1413              		.loc 1 367 0
 1414 005e 7B68     		ldr	r3, [r7, #4]
 1415 0060 D3F8D422 		ldr	r2, [r3, #724]
 1416 0064 FB68     		ldr	r3, [r7, #12]
 1417 0066 9A42     		cmp	r2, r3
 1418 0068 04D1     		bne	.L85
 368:C:/data/workspaces/github/de.protos.demos/src/HexagonCANDemo/etrice.HexagonCANDemo.demo/src-gen-st/room/basic/service/timing\ATimingService.c **** 					usedTcbsRoot=block;
 1419              		.loc 1 368 0
 1420 006a 7B68     		ldr	r3, [r7, #4]
 1421 006c 3A68     		ldr	r2, [r7, #0]
 1422 006e C3F8D422 		str	r2, [r3, #724]
 372:C:/data/workspaces/github/de.protos.demos/src/HexagonCANDemo/etrice.HexagonCANDemo.demo/src-gen-st/room/basic/service/timing\ATimingService.c **** 				return;
 1423              		.loc 1 372 0
 1424 0072 0BE0     		b	.L80
 1425              	.L85:
 370:C:/data/workspaces/github/de.protos.demos/src/HexagonCANDemo/etrice.HexagonCANDemo.demo/src-gen-st/room/basic/service/timing\ATimingService.c **** 					temp2->next=block;
 1426              		.loc 1 370 0
 1427 0074 BB68     		ldr	r3, [r7, #8]
 1428 0076 3A68     		ldr	r2, [r7, #0]
 1429 0078 5A61     		str	r2, [r3, #20]
 372:C:/data/workspaces/github/de.protos.demos/src/HexagonCANDemo/etrice.HexagonCANDemo.demo/src-gen-st/room/basic/service/timing\ATimingService.c **** 				return;
 1430              		.loc 1 372 0
 1431 007a 07E0     		b	.L80
 1432              	.L83:
 376:C:/data/workspaces/github/de.protos.demos/src/HexagonCANDemo/etrice.HexagonCANDemo.demo/src-gen-st/room/basic/service/timing\ATimingService.c **** 			block->next=0;
 1433              		.loc 1 376 0
 1434 007c 3B68     		ldr	r3, [r7, #0]
 1435 007e 4FF00002 		mov	r2, #0
 1436 0082 5A61     		str	r2, [r3, #20]
 377:C:/data/workspaces/github/de.protos.demos/src/HexagonCANDemo/etrice.HexagonCANDemo.demo/src-gen-st/room/basic/service/timing\ATimingService.c **** 			temp2->next=block;
 1437              		.loc 1 377 0
 1438 0084 BB68     		ldr	r3, [r7, #8]
 1439 0086 3A68     		ldr	r2, [r7, #0]
 1440 0088 5A61     		str	r2, [r3, #20]
 378:C:/data/workspaces/github/de.protos.demos/src/HexagonCANDemo/etrice.HexagonCANDemo.demo/src-gen-st/room/basic/service/timing\ATimingService.c **** 			return;
 1441              		.loc 1 378 0
 1442 008a 00BF     		nop
 1443              	.L80:
 381:C:/data/workspaces/github/de.protos.demos/src/HexagonCANDemo/etrice.HexagonCANDemo.demo/src-gen-st/room/basic/service/timing\ATimingService.c **** }
 1444              		.loc 1 381 0
 1445 008c 07F11007 		add	r7, r7, #16
 1446 0090 BD46     		mov	sp, r7
 1447 0092 80BD     		pop	{r7, pc}
 1448              		.cfi_endproc
 1449              	.LFE19:
 1451              		.section	.text.ATimingService_isTimeGreater,"ax",%progbits
 1452              		.align	2
 1453              		.global	ATimingService_isTimeGreater
 1454              		.thumb
 1455              		.thumb_func
 1457              	ATimingService_isTimeGreater:
 1458              	.LFB20:
 382:C:/data/workspaces/github/de.protos.demos/src/HexagonCANDemo/etrice.HexagonCANDemo.demo/src-gen-st/room/basic/service/timing\ATimingService.c **** boolean ATimingService_isTimeGreater(ATimingService* self, etTime* t1, etTime* t2) {
 1459              		.loc 1 382 0
 1460              		.cfi_startproc
 1461              		@ args = 0, pretend = 0, frame = 16
 1462              		@ frame_needed = 1, uses_anonymous_args = 0
 1463              		@ link register save eliminated.
 1464 0000 80B4     		push	{r7}
 1465              	.LCFI60:
 1466              		.cfi_def_cfa_offset 4
 1467              		.cfi_offset 7, -4
 1468 0002 85B0     		sub	sp, sp, #20
 1469              	.LCFI61:
 1470              		.cfi_def_cfa_offset 24
 1471 0004 00AF     		add	r7, sp, #0
 1472              	.LCFI62:
 1473              		.cfi_def_cfa_register 7
 1474 0006 F860     		str	r0, [r7, #12]
 1475 0008 B960     		str	r1, [r7, #8]
 1476 000a 7A60     		str	r2, [r7, #4]
 383:C:/data/workspaces/github/de.protos.demos/src/HexagonCANDemo/etrice.HexagonCANDemo.demo/src-gen-st/room/basic/service/timing\ATimingService.c **** 	if (t1->sec > t2->sec) return ET_TRUE;
 1477              		.loc 1 383 0
 1478 000c BB68     		ldr	r3, [r7, #8]
 1479 000e 1A68     		ldr	r2, [r3, #0]
 1480 0010 7B68     		ldr	r3, [r7, #4]
 1481 0012 1B68     		ldr	r3, [r3, #0]
 1482 0014 9A42     		cmp	r2, r3
 1483 0016 02DD     		ble	.L88
 1484              		.loc 1 383 0 is_stmt 0 discriminator 1
 1485 0018 4FF00103 		mov	r3, #1
 1486 001c 13E0     		b	.L89
 1487              	.L88:
 384:C:/data/workspaces/github/de.protos.demos/src/HexagonCANDemo/etrice.HexagonCANDemo.demo/src-gen-st/room/basic/service/timing\ATimingService.c **** 	if (t1->sec < t2->sec) return ET_FALSE;
 1488              		.loc 1 384 0 is_stmt 1
 1489 001e BB68     		ldr	r3, [r7, #8]
 1490 0020 1A68     		ldr	r2, [r3, #0]
 1491 0022 7B68     		ldr	r3, [r7, #4]
 1492 0024 1B68     		ldr	r3, [r3, #0]
 1493 0026 9A42     		cmp	r2, r3
 1494 0028 02DA     		bge	.L90
 1495              		.loc 1 384 0 is_stmt 0 discriminator 1
 1496 002a 4FF00003 		mov	r3, #0
 1497 002e 0AE0     		b	.L89
 1498              	.L90:
 385:C:/data/workspaces/github/de.protos.demos/src/HexagonCANDemo/etrice.HexagonCANDemo.demo/src-gen-st/room/basic/service/timing\ATimingService.c **** 	if (t1->nSec > t2->nSec) return ET_TRUE;
 1499              		.loc 1 385 0 is_stmt 1
 1500 0030 BB68     		ldr	r3, [r7, #8]
 1501 0032 5A68     		ldr	r2, [r3, #4]
 1502 0034 7B68     		ldr	r3, [r7, #4]
 1503 0036 5B68     		ldr	r3, [r3, #4]
 1504 0038 9A42     		cmp	r2, r3
 1505 003a 02DD     		ble	.L91
 1506              		.loc 1 385 0 is_stmt 0 discriminator 1
 1507 003c 4FF00103 		mov	r3, #1
 1508 0040 01E0     		b	.L89
 1509              	.L91:
 386:C:/data/workspaces/github/de.protos.demos/src/HexagonCANDemo/etrice.HexagonCANDemo.demo/src-gen-st/room/basic/service/timing\ATimingService.c **** 	return ET_FALSE;
 1510              		.loc 1 386 0 is_stmt 1
 1511 0042 4FF00003 		mov	r3, #0
 1512              	.L89:
 387:C:/data/workspaces/github/de.protos.demos/src/HexagonCANDemo/etrice.HexagonCANDemo.demo/src-gen-st/room/basic/service/timing\ATimingService.c **** }
 1513              		.loc 1 387 0
 1514 0046 1846     		mov	r0, r3
 1515 0048 07F11407 		add	r7, r7, #20
 1516 004c BD46     		mov	sp, r7
 1517 004e 80BC     		pop	{r7}
 1518 0050 7047     		bx	lr
 1519              		.cfi_endproc
 1520              	.LFE20:
 1522 0052 00BF     		.section	.text.ATimingService_addTime,"ax",%progbits
 1523              		.align	2
 1524              		.global	ATimingService_addTime
 1525              		.thumb
 1526              		.thumb_func
 1528              	ATimingService_addTime:
 1529              	.LFB21:
 388:C:/data/workspaces/github/de.protos.demos/src/HexagonCANDemo/etrice.HexagonCANDemo.demo/src-gen-st/room/basic/service/timing\ATimingService.c **** void ATimingService_addTime(ATimingService* self, etTime* t1, etTime* t2) {
 1530              		.loc 1 388 0
 1531              		.cfi_startproc
 1532              		@ args = 0, pretend = 0, frame = 16
 1533              		@ frame_needed = 1, uses_anonymous_args = 0
 1534              		@ link register save eliminated.
 1535 0000 80B4     		push	{r7}
 1536              	.LCFI63:
 1537              		.cfi_def_cfa_offset 4
 1538              		.cfi_offset 7, -4
 1539 0002 85B0     		sub	sp, sp, #20
 1540              	.LCFI64:
 1541              		.cfi_def_cfa_offset 24
 1542 0004 00AF     		add	r7, sp, #0
 1543              	.LCFI65:
 1544              		.cfi_def_cfa_register 7
 1545 0006 F860     		str	r0, [r7, #12]
 1546 0008 B960     		str	r1, [r7, #8]
 1547 000a 7A60     		str	r2, [r7, #4]
 389:C:/data/workspaces/github/de.protos.demos/src/HexagonCANDemo/etrice.HexagonCANDemo.demo/src-gen-st/room/basic/service/timing\ATimingService.c **** 	t1->sec += t2->sec;
 1548              		.loc 1 389 0
 1549 000c BB68     		ldr	r3, [r7, #8]
 1550 000e 1A68     		ldr	r2, [r3, #0]
 1551 0010 7B68     		ldr	r3, [r7, #4]
 1552 0012 1B68     		ldr	r3, [r3, #0]
 1553 0014 D218     		adds	r2, r2, r3
 1554 0016 BB68     		ldr	r3, [r7, #8]
 1555 0018 1A60     		str	r2, [r3, #0]
 390:C:/data/workspaces/github/de.protos.demos/src/HexagonCANDemo/etrice.HexagonCANDemo.demo/src-gen-st/room/basic/service/timing\ATimingService.c **** 	t1->nSec += t2->nSec;
 1556              		.loc 1 390 0
 1557 001a BB68     		ldr	r3, [r7, #8]
 1558 001c 5A68     		ldr	r2, [r3, #4]
 1559 001e 7B68     		ldr	r3, [r7, #4]
 1560 0020 5B68     		ldr	r3, [r3, #4]
 1561 0022 D218     		adds	r2, r2, r3
 1562 0024 BB68     		ldr	r3, [r7, #8]
 1563 0026 5A60     		str	r2, [r3, #4]
 391:C:/data/workspaces/github/de.protos.demos/src/HexagonCANDemo/etrice.HexagonCANDemo.demo/src-gen-st/room/basic/service/timing\ATimingService.c **** 	while(t1->nSec >= 1000000000L){
 1564              		.loc 1 391 0
 1565 0028 0EE0     		b	.L93
 1566              	.L94:
 392:C:/data/workspaces/github/de.protos.demos/src/HexagonCANDemo/etrice.HexagonCANDemo.demo/src-gen-st/room/basic/service/timing\ATimingService.c **** 		t1->sec++;
 1567              		.loc 1 392 0
 1568 002a BB68     		ldr	r3, [r7, #8]
 1569 002c 1B68     		ldr	r3, [r3, #0]
 1570 002e 03F10102 		add	r2, r3, #1
 1571 0032 BB68     		ldr	r3, [r7, #8]
 1572 0034 1A60     		str	r2, [r3, #0]
 393:C:/data/workspaces/github/de.protos.demos/src/HexagonCANDemo/etrice.HexagonCANDemo.demo/src-gen-st/room/basic/service/timing\ATimingService.c **** 		t1->nSec-=1000000000L;
 1573              		.loc 1 393 0
 1574 0036 BB68     		ldr	r3, [r7, #8]
 1575 0038 5A68     		ldr	r2, [r3, #4]
 1576 003a 4FF45853 		mov	r3, #13824
 1577 003e CCF26543 		movt	r3, 50277
 1578 0042 D318     		adds	r3, r2, r3
 1579 0044 BA68     		ldr	r2, [r7, #8]
 1580 0046 5360     		str	r3, [r2, #4]
 1581              	.L93:
 391:C:/data/workspaces/github/de.protos.demos/src/HexagonCANDemo/etrice.HexagonCANDemo.demo/src-gen-st/room/basic/service/timing\ATimingService.c **** 	while(t1->nSec >= 1000000000L){
 1582              		.loc 1 391 0 discriminator 1
 1583 0048 BB68     		ldr	r3, [r7, #8]
 1584 004a 5A68     		ldr	r2, [r3, #4]
 1585 004c 4CF6FF13 		movw	r3, #51711
 1586 0050 C3F69A33 		movt	r3, 15258
 1587 0054 9A42     		cmp	r2, r3
 1588 0056 E8DC     		bgt	.L94
 394:C:/data/workspaces/github/de.protos.demos/src/HexagonCANDemo/etrice.HexagonCANDemo.demo/src-gen-st/room/basic/service/timing\ATimingService.c **** 	}
 395:C:/data/workspaces/github/de.protos.demos/src/HexagonCANDemo/etrice.HexagonCANDemo.demo/src-gen-st/room/basic/service/timing\ATimingService.c **** }
 1589              		.loc 1 395 0
 1590 0058 07F11407 		add	r7, r7, #20
 1591 005c BD46     		mov	sp, r7
 1592 005e 80BC     		pop	{r7}
 1593 0060 7047     		bx	lr
 1594              		.cfi_endproc
 1595              	.LFE21:
 1597 0062 00BF     		.text
 1598              	.Letext0:
 1599              		.file 2 "C:\\data\\workspaces\\github\\de.protos.demos\\src\\HexagonCANDemo\\etrice.runtime.c\\etR
 1600              		.file 3 "C:\\data\\workspaces\\github\\de.protos.demos\\src\\HexagonCANDemo\\etrice.runtime.c\\etR
 1601              		.file 4 "C:\\data\\workspaces\\github\\de.protos.demos\\src\\HexagonCANDemo\\etrice.runtime.c\\etR
 1602              		.file 5 "C:\\data\\workspaces\\github\\de.protos.demos\\src\\HexagonCANDemo\\etrice.runtime.c\\etR
 1603              		.file 6 "C:\\data\\workspaces\\github\\de.protos.demos\\src\\HexagonCANDemo\\etrice.runtime.c\\etR
 1604              		.file 7 "C:\\data\\workspaces\\github\\de.protos.demos\\src\\HexagonCANDemo\\etrice.runtime.c\\etR
 1605              		.file 8 "C:\\data\\workspaces\\github\\de.protos.demos\\src\\HexagonCANDemo\\etrice.runtime.c\\etR
 1606              		.file 9 "C:\\data\\workspaces\\github\\de.protos.demos\\src\\HexagonCANDemo\\etrice.runtime.c\\etR
 1607              		.file 10 "C:\\data\\workspaces\\github\\de.protos.demos\\src\\HexagonCANDemo\\etrice.runtime.c\\et
 1608              		.file 11 "C:\\data\\workspaces\\github\\de.protos.demos\\src\\HexagonCANDemo\\etrice.runtime.c\\et
 1609              		.file 12 "C:\\data\\workspaces\\github\\de.protos.demos\\src\\HexagonCANDemo\\etrice.runtime.c\\et
 1610              		.file 13 "C:/data/workspaces/github/de.protos.demos/src/HexagonCANDemo/etrice.HexagonCANDemo.demo/
DEFINED SYMBOLS
                            *ABS*:00000000 ATimingService.c
C:\Users\TJung\AppData\Local\Temp\ccHNUrLk.s:20     .text.setState:00000000 $t
C:\Users\TJung\AppData\Local\Temp\ccHNUrLk.s:24     .text.setState:00000000 setState
C:\Users\TJung\AppData\Local\Temp\ccHNUrLk.s:58     .text.getState:00000000 $t
C:\Users\TJung\AppData\Local\Temp\ccHNUrLk.s:62     .text.getState:00000000 getState
C:\Users\TJung\AppData\Local\Temp\ccHNUrLk.s:94     .text.entry_Operational:00000000 $t
C:\Users\TJung\AppData\Local\Temp\ccHNUrLk.s:98     .text.entry_Operational:00000000 entry_Operational
C:\Users\TJung\AppData\Local\Temp\ccHNUrLk.s:125    .text.do_Operational:00000000 $t
C:\Users\TJung\AppData\Local\Temp\ccHNUrLk.s:129    .text.do_Operational:00000000 do_Operational
C:\Users\TJung\AppData\Local\Temp\ccHNUrLk.s:1457   .text.ATimingService_isTimeGreater:00000000 ATimingService_isTimeGreater
C:\Users\TJung\AppData\Local\Temp\ccHNUrLk.s:1194   .text.ATimingService_returnTcb:00000000 ATimingService_returnTcb
C:\Users\TJung\AppData\Local\Temp\ccHNUrLk.s:1528   .text.ATimingService_addTime:00000000 ATimingService_addTime
C:\Users\TJung\AppData\Local\Temp\ccHNUrLk.s:1343   .text.ATimingService_putTcbToUsedList:00000000 ATimingService_putTcbToUsedList
C:\Users\TJung\AppData\Local\Temp\ccHNUrLk.s:232    .text.action_TRANS_INITIAL_TO__Operational:00000000 $t
C:\Users\TJung\AppData\Local\Temp\ccHNUrLk.s:236    .text.action_TRANS_INITIAL_TO__Operational:00000000 action_TRANS_INITIAL_TO__Operational
C:\Users\TJung\AppData\Local\Temp\ccHNUrLk.s:309    .text.action_TRANS_tr1_FROM_Operational_TO_Operational_BY_startTimeouttimer_tr1:00000000 $t
C:\Users\TJung\AppData\Local\Temp\ccHNUrLk.s:313    .text.action_TRANS_tr1_FROM_Operational_TO_Operational_BY_startTimeouttimer_tr1:00000000 action_TRANS_tr1_FROM_Operational_TO_Operational_BY_startTimeouttimer_tr1
C:\Users\TJung\AppData\Local\Temp\ccHNUrLk.s:1139   .text.ATimingService_getTcb:00000000 ATimingService_getTcb
C:\Users\TJung\AppData\Local\Temp\ccHNUrLk.s:399    .text.action_TRANS_tr3_FROM_Operational_TO_Operational_BY_startTimertimer_tr3:00000000 $t
C:\Users\TJung\AppData\Local\Temp\ccHNUrLk.s:403    .text.action_TRANS_tr3_FROM_Operational_TO_Operational_BY_startTimertimer_tr3:00000000 action_TRANS_tr3_FROM_Operational_TO_Operational_BY_startTimertimer_tr3
C:\Users\TJung\AppData\Local\Temp\ccHNUrLk.s:487    .text.action_TRANS_tr4_FROM_Operational_TO_Operational_BY_killtimer_tr4:00000000 $t
C:\Users\TJung\AppData\Local\Temp\ccHNUrLk.s:491    .text.action_TRANS_tr4_FROM_Operational_TO_Operational_BY_killtimer_tr4:00000000 action_TRANS_tr4_FROM_Operational_TO_Operational_BY_killtimer_tr4
C:\Users\TJung\AppData\Local\Temp\ccHNUrLk.s:1236   .text.ATimingService_removeTcbFromUsedList:00000000 ATimingService_removeTcbFromUsedList
C:\Users\TJung\AppData\Local\Temp\ccHNUrLk.s:524    .text.exitTo:00000000 $t
C:\Users\TJung\AppData\Local\Temp\ccHNUrLk.s:528    .text.exitTo:00000000 exitTo
C:\Users\TJung\AppData\Local\Temp\ccHNUrLk.s:585    .text.executeTransitionChain:00000000 $t
C:\Users\TJung\AppData\Local\Temp\ccHNUrLk.s:589    .text.executeTransitionChain:00000000 executeTransitionChain
C:\Users\TJung\AppData\Local\Temp\ccHNUrLk.s:619    .text.executeTransitionChain:00000020 $d
C:\Users\TJung\AppData\Local\Temp\ccHNUrLk.s:625    .text.executeTransitionChain:00000030 $t
C:\Users\TJung\AppData\Local\Temp\ccHNUrLk.s:685    .text.enterHistory:00000000 $t
C:\Users\TJung\AppData\Local\Temp\ccHNUrLk.s:689    .text.enterHistory:00000000 enterHistory
C:\Users\TJung\AppData\Local\Temp\ccHNUrLk.s:770    .text.ATimingService_executeInitTransition:00000000 $t
C:\Users\TJung\AppData\Local\Temp\ccHNUrLk.s:774    .text.ATimingService_executeInitTransition:00000000 ATimingService_executeInitTransition
C:\Users\TJung\AppData\Local\Temp\ccHNUrLk.s:823    .text.ATimingService_receiveEvent:00000000 $t
C:\Users\TJung\AppData\Local\Temp\ccHNUrLk.s:827    .text.ATimingService_receiveEvent:00000000 ATimingService_receiveEvent
C:\Users\TJung\AppData\Local\Temp\ccHNUrLk.s:993    .text.ATimingService_init:00000000 $t
C:\Users\TJung\AppData\Local\Temp\ccHNUrLk.s:998    .text.ATimingService_init:00000000 ATimingService_init
C:\Users\TJung\AppData\Local\Temp\ccHNUrLk.s:1055   .text.ATimingService_receiveMessage:00000000 $t
C:\Users\TJung\AppData\Local\Temp\ccHNUrLk.s:1060   .text.ATimingService_receiveMessage:00000000 ATimingService_receiveMessage
C:\Users\TJung\AppData\Local\Temp\ccHNUrLk.s:1097   .text.ATimingService_execute:00000000 $t
C:\Users\TJung\AppData\Local\Temp\ccHNUrLk.s:1102   .text.ATimingService_execute:00000000 ATimingService_execute
C:\Users\TJung\AppData\Local\Temp\ccHNUrLk.s:1134   .text.ATimingService_getTcb:00000000 $t
C:\Users\TJung\AppData\Local\Temp\ccHNUrLk.s:1189   .text.ATimingService_returnTcb:00000000 $t
C:\Users\TJung\AppData\Local\Temp\ccHNUrLk.s:1231   .text.ATimingService_removeTcbFromUsedList:00000000 $t
C:\Users\TJung\AppData\Local\Temp\ccHNUrLk.s:1338   .text.ATimingService_putTcbToUsedList:00000000 $t
C:\Users\TJung\AppData\Local\Temp\ccHNUrLk.s:1452   .text.ATimingService_isTimeGreater:00000000 $t
C:\Users\TJung\AppData\Local\Temp\ccHNUrLk.s:1523   .text.ATimingService_addTime:00000000 $t
                     .debug_frame:00000010 $d

UNDEFINED SYMBOLS
getTimeFromTarget
PTimerReplPort_timeout
handleSystemEvent
