   1              		.syntax unified
   2              		.cpu cortex-m4
   3              		.eabi_attribute 27, 3
   4              		.fpu fpv4-sp-d16
   5              		.eabi_attribute 20, 1
   6              		.eabi_attribute 21, 1
   7              		.eabi_attribute 23, 3
   8              		.eabi_attribute 24, 1
   9              		.eabi_attribute 25, 1
  10              		.eabi_attribute 26, 1
  11              		.eabi_attribute 30, 6
  12              		.eabi_attribute 34, 1
  13              		.eabi_attribute 18, 4
  14              		.thumb
  15              		.file	"ATimingService.c"
  16              		.text
  17              	.Ltext0:
  18              		.cfi_sections	.debug_frame
  19              		.comm	tcbs,480,4
  20              		.comm	usedTcbsRoot,4,4
  21              		.comm	freeTcbsRoot,4,4
  22              		.section	.text.setState,"ax",%progbits
  23              		.align	2
  24              		.thumb
  25              		.thumb_func
  27              	setState:
  28              	.LFB0:
  29              		.file 1 "C:/data/workspaces/github/de.protos.demos/src/HexagonCANDemo/etrice.HexagonCANDemo.demo/s
   1:C:/data/workspaces/github/de.protos.demos/src/HexagonCANDemo/etrice.HexagonCANDemo.demo/src-gen-st/room/basic/service/timing\ATimingService.c **** /**
   2:C:/data/workspaces/github/de.protos.demos/src/HexagonCANDemo/etrice.HexagonCANDemo.demo/src-gen-st/room/basic/service/timing\ATimingService.c ****  * @author generated by eTrice
   3:C:/data/workspaces/github/de.protos.demos/src/HexagonCANDemo/etrice.HexagonCANDemo.demo/src-gen-st/room/basic/service/timing\ATimingService.c ****  *
   4:C:/data/workspaces/github/de.protos.demos/src/HexagonCANDemo/etrice.HexagonCANDemo.demo/src-gen-st/room/basic/service/timing\ATimingService.c ****  * Source File of ActorClass ATimingService
   5:C:/data/workspaces/github/de.protos.demos/src/HexagonCANDemo/etrice.HexagonCANDemo.demo/src-gen-st/room/basic/service/timing\ATimingService.c ****  * 
   6:C:/data/workspaces/github/de.protos.demos/src/HexagonCANDemo/etrice.HexagonCANDemo.demo/src-gen-st/room/basic/service/timing\ATimingService.c ****  */
   7:C:/data/workspaces/github/de.protos.demos/src/HexagonCANDemo/etrice.HexagonCANDemo.demo/src-gen-st/room/basic/service/timing\ATimingService.c **** 
   8:C:/data/workspaces/github/de.protos.demos/src/HexagonCANDemo/etrice.HexagonCANDemo.demo/src-gen-st/room/basic/service/timing\ATimingService.c **** #include "ATimingService.h"
   9:C:/data/workspaces/github/de.protos.demos/src/HexagonCANDemo/etrice.HexagonCANDemo.demo/src-gen-st/room/basic/service/timing\ATimingService.c **** 
  10:C:/data/workspaces/github/de.protos.demos/src/HexagonCANDemo/etrice.HexagonCANDemo.demo/src-gen-st/room/basic/service/timing\ATimingService.c **** #include "modelbase/etActor.h"
  11:C:/data/workspaces/github/de.protos.demos/src/HexagonCANDemo/etrice.HexagonCANDemo.demo/src-gen-st/room/basic/service/timing\ATimingService.c **** #include "debugging/etLogger.h"
  12:C:/data/workspaces/github/de.protos.demos/src/HexagonCANDemo/etrice.HexagonCANDemo.demo/src-gen-st/room/basic/service/timing\ATimingService.c **** #include "debugging/etMSCLogger.h"
  13:C:/data/workspaces/github/de.protos.demos/src/HexagonCANDemo/etrice.HexagonCANDemo.demo/src-gen-st/room/basic/service/timing\ATimingService.c **** #include "etUnit/etUnit.h"
  14:C:/data/workspaces/github/de.protos.demos/src/HexagonCANDemo/etrice.HexagonCANDemo.demo/src-gen-st/room/basic/service/timing\ATimingService.c **** #include "base/etMemory.h"
  15:C:/data/workspaces/github/de.protos.demos/src/HexagonCANDemo/etrice.HexagonCANDemo.demo/src-gen-st/room/basic/service/timing\ATimingService.c **** 
  16:C:/data/workspaces/github/de.protos.demos/src/HexagonCANDemo/etrice.HexagonCANDemo.demo/src-gen-st/room/basic/service/timing\ATimingService.c **** #include "room/basic/service/timing/PTimer.h"
  17:C:/data/workspaces/github/de.protos.demos/src/HexagonCANDemo/etrice.HexagonCANDemo.demo/src-gen-st/room/basic/service/timing\ATimingService.c **** 
  18:C:/data/workspaces/github/de.protos.demos/src/HexagonCANDemo/etrice.HexagonCANDemo.demo/src-gen-st/room/basic/service/timing\ATimingService.c **** #include "ATimingService_Utils.h"
  19:C:/data/workspaces/github/de.protos.demos/src/HexagonCANDemo/etrice.HexagonCANDemo.demo/src-gen-st/room/basic/service/timing\ATimingService.c **** 
  20:C:/data/workspaces/github/de.protos.demos/src/HexagonCANDemo/etrice.HexagonCANDemo.demo/src-gen-st/room/basic/service/timing\ATimingService.c **** /*--------------------- begin user code ---------------------*/
  21:C:/data/workspaces/github/de.protos.demos/src/HexagonCANDemo/etrice.HexagonCANDemo.demo/src-gen-st/room/basic/service/timing\ATimingService.c **** etTimerControlBlock tcbs[ET_NB_OF_TCBS];
  22:C:/data/workspaces/github/de.protos.demos/src/HexagonCANDemo/etrice.HexagonCANDemo.demo/src-gen-st/room/basic/service/timing\ATimingService.c **** etTimerControlBlock* usedTcbsRoot; 
  23:C:/data/workspaces/github/de.protos.demos/src/HexagonCANDemo/etrice.HexagonCANDemo.demo/src-gen-st/room/basic/service/timing\ATimingService.c **** etTimerControlBlock* freeTcbsRoot;
  24:C:/data/workspaces/github/de.protos.demos/src/HexagonCANDemo/etrice.HexagonCANDemo.demo/src-gen-st/room/basic/service/timing\ATimingService.c **** /*--------------------- end user code ---------------------*/
  25:C:/data/workspaces/github/de.protos.demos/src/HexagonCANDemo/etrice.HexagonCANDemo.demo/src-gen-st/room/basic/service/timing\ATimingService.c **** 
  26:C:/data/workspaces/github/de.protos.demos/src/HexagonCANDemo/etrice.HexagonCANDemo.demo/src-gen-st/room/basic/service/timing\ATimingService.c **** /* interface item IDs */
  27:C:/data/workspaces/github/de.protos.demos/src/HexagonCANDemo/etrice.HexagonCANDemo.demo/src-gen-st/room/basic/service/timing\ATimingService.c **** enum interface_items {
  28:C:/data/workspaces/github/de.protos.demos/src/HexagonCANDemo/etrice.HexagonCANDemo.demo/src-gen-st/room/basic/service/timing\ATimingService.c **** 	IFITEM_timer = 1
  29:C:/data/workspaces/github/de.protos.demos/src/HexagonCANDemo/etrice.HexagonCANDemo.demo/src-gen-st/room/basic/service/timing\ATimingService.c **** };
  30:C:/data/workspaces/github/de.protos.demos/src/HexagonCANDemo/etrice.HexagonCANDemo.demo/src-gen-st/room/basic/service/timing\ATimingService.c **** 
  31:C:/data/workspaces/github/de.protos.demos/src/HexagonCANDemo/etrice.HexagonCANDemo.demo/src-gen-st/room/basic/service/timing\ATimingService.c **** /* state IDs */
  32:C:/data/workspaces/github/de.protos.demos/src/HexagonCANDemo/etrice.HexagonCANDemo.demo/src-gen-st/room/basic/service/timing\ATimingService.c **** enum state_ids {
  33:C:/data/workspaces/github/de.protos.demos/src/HexagonCANDemo/etrice.HexagonCANDemo.demo/src-gen-st/room/basic/service/timing\ATimingService.c **** 	NO_STATE = 0,
  34:C:/data/workspaces/github/de.protos.demos/src/HexagonCANDemo/etrice.HexagonCANDemo.demo/src-gen-st/room/basic/service/timing\ATimingService.c **** 	STATE_TOP = 1,
  35:C:/data/workspaces/github/de.protos.demos/src/HexagonCANDemo/etrice.HexagonCANDemo.demo/src-gen-st/room/basic/service/timing\ATimingService.c **** 	STATE_Operational = 2,
  36:C:/data/workspaces/github/de.protos.demos/src/HexagonCANDemo/etrice.HexagonCANDemo.demo/src-gen-st/room/basic/service/timing\ATimingService.c **** 	STATE_MAX = 3
  37:C:/data/workspaces/github/de.protos.demos/src/HexagonCANDemo/etrice.HexagonCANDemo.demo/src-gen-st/room/basic/service/timing\ATimingService.c **** };
  38:C:/data/workspaces/github/de.protos.demos/src/HexagonCANDemo/etrice.HexagonCANDemo.demo/src-gen-st/room/basic/service/timing\ATimingService.c **** 
  39:C:/data/workspaces/github/de.protos.demos/src/HexagonCANDemo/etrice.HexagonCANDemo.demo/src-gen-st/room/basic/service/timing\ATimingService.c **** /* transition chains */
  40:C:/data/workspaces/github/de.protos.demos/src/HexagonCANDemo/etrice.HexagonCANDemo.demo/src-gen-st/room/basic/service/timing\ATimingService.c **** enum chain_ids {
  41:C:/data/workspaces/github/de.protos.demos/src/HexagonCANDemo/etrice.HexagonCANDemo.demo/src-gen-st/room/basic/service/timing\ATimingService.c **** 	CHAIN_TRANS_INITIAL_TO__Operational = 1,
  42:C:/data/workspaces/github/de.protos.demos/src/HexagonCANDemo/etrice.HexagonCANDemo.demo/src-gen-st/room/basic/service/timing\ATimingService.c **** 	CHAIN_TRANS_tr1_FROM_Operational_TO_Operational_BY_startTimeouttimer_tr1 = 2,
  43:C:/data/workspaces/github/de.protos.demos/src/HexagonCANDemo/etrice.HexagonCANDemo.demo/src-gen-st/room/basic/service/timing\ATimingService.c **** 	CHAIN_TRANS_tr3_FROM_Operational_TO_Operational_BY_startTimertimer_tr3 = 3,
  44:C:/data/workspaces/github/de.protos.demos/src/HexagonCANDemo/etrice.HexagonCANDemo.demo/src-gen-st/room/basic/service/timing\ATimingService.c **** 	CHAIN_TRANS_tr4_FROM_Operational_TO_Operational_BY_killtimer_tr4 = 4
  45:C:/data/workspaces/github/de.protos.demos/src/HexagonCANDemo/etrice.HexagonCANDemo.demo/src-gen-st/room/basic/service/timing\ATimingService.c **** };
  46:C:/data/workspaces/github/de.protos.demos/src/HexagonCANDemo/etrice.HexagonCANDemo.demo/src-gen-st/room/basic/service/timing\ATimingService.c **** 
  47:C:/data/workspaces/github/de.protos.demos/src/HexagonCANDemo/etrice.HexagonCANDemo.demo/src-gen-st/room/basic/service/timing\ATimingService.c **** /* triggers */
  48:C:/data/workspaces/github/de.protos.demos/src/HexagonCANDemo/etrice.HexagonCANDemo.demo/src-gen-st/room/basic/service/timing\ATimingService.c **** enum triggers {
  49:C:/data/workspaces/github/de.protos.demos/src/HexagonCANDemo/etrice.HexagonCANDemo.demo/src-gen-st/room/basic/service/timing\ATimingService.c **** 	POLLING = 0,
  50:C:/data/workspaces/github/de.protos.demos/src/HexagonCANDemo/etrice.HexagonCANDemo.demo/src-gen-st/room/basic/service/timing\ATimingService.c **** 	TRIG_timer__startTimer = IFITEM_timer + EVT_SHIFT*PTimer_IN_startTimer,
  51:C:/data/workspaces/github/de.protos.demos/src/HexagonCANDemo/etrice.HexagonCANDemo.demo/src-gen-st/room/basic/service/timing\ATimingService.c **** 	TRIG_timer__startTimeout = IFITEM_timer + EVT_SHIFT*PTimer_IN_startTimeout,
  52:C:/data/workspaces/github/de.protos.demos/src/HexagonCANDemo/etrice.HexagonCANDemo.demo/src-gen-st/room/basic/service/timing\ATimingService.c **** 	TRIG_timer__kill = IFITEM_timer + EVT_SHIFT*PTimer_IN_kill
  53:C:/data/workspaces/github/de.protos.demos/src/HexagonCANDemo/etrice.HexagonCANDemo.demo/src-gen-st/room/basic/service/timing\ATimingService.c **** };
  54:C:/data/workspaces/github/de.protos.demos/src/HexagonCANDemo/etrice.HexagonCANDemo.demo/src-gen-st/room/basic/service/timing\ATimingService.c **** 
  55:C:/data/workspaces/github/de.protos.demos/src/HexagonCANDemo/etrice.HexagonCANDemo.demo/src-gen-st/room/basic/service/timing\ATimingService.c **** 
  56:C:/data/workspaces/github/de.protos.demos/src/HexagonCANDemo/etrice.HexagonCANDemo.demo/src-gen-st/room/basic/service/timing\ATimingService.c **** static void setState(ATimingService* self, etInt16 new_state) {
  30              		.loc 1 56 0
  31              		.cfi_startproc
  32              		@ args = 0, pretend = 0, frame = 8
  33              		@ frame_needed = 1, uses_anonymous_args = 0
  34              		@ link register save eliminated.
  35 0000 80B4     		push	{r7}
  36              	.LCFI0:
  37              		.cfi_def_cfa_offset 4
  38              		.cfi_offset 7, -4
  39 0002 83B0     		sub	sp, sp, #12
  40              	.LCFI1:
  41              		.cfi_def_cfa_offset 16
  42 0004 00AF     		add	r7, sp, #0
  43              	.LCFI2:
  44              		.cfi_def_cfa_register 7
  45 0006 7860     		str	r0, [r7, #4]
  46 0008 0B46     		mov	r3, r1
  47 000a 7B80     		strh	r3, [r7, #2]	@ movhi
  57:C:/data/workspaces/github/de.protos.demos/src/HexagonCANDemo/etrice.HexagonCANDemo.demo/src-gen-st/room/basic/service/timing\ATimingService.c **** 	self->state = new_state;
  48              		.loc 1 57 0
  49 000c 7B68     		ldr	r3, [r7, #4]
  50 000e 7A88     		ldrh	r2, [r7, #2]	@ movhi
  51 0010 9A80     		strh	r2, [r3, #4]	@ movhi
  58:C:/data/workspaces/github/de.protos.demos/src/HexagonCANDemo/etrice.HexagonCANDemo.demo/src-gen-st/room/basic/service/timing\ATimingService.c **** }
  52              		.loc 1 58 0
  53 0012 07F10C07 		add	r7, r7, #12
  54 0016 BD46     		mov	sp, r7
  55 0018 80BC     		pop	{r7}
  56 001a 7047     		bx	lr
  57              		.cfi_endproc
  58              	.LFE0:
  60              		.section	.text.getState,"ax",%progbits
  61              		.align	2
  62              		.thumb
  63              		.thumb_func
  65              	getState:
  66              	.LFB1:
  59:C:/data/workspaces/github/de.protos.demos/src/HexagonCANDemo/etrice.HexagonCANDemo.demo/src-gen-st/room/basic/service/timing\ATimingService.c **** 
  60:C:/data/workspaces/github/de.protos.demos/src/HexagonCANDemo/etrice.HexagonCANDemo.demo/src-gen-st/room/basic/service/timing\ATimingService.c **** static etInt16 getState(ATimingService* self) {
  67              		.loc 1 60 0
  68              		.cfi_startproc
  69              		@ args = 0, pretend = 0, frame = 8
  70              		@ frame_needed = 1, uses_anonymous_args = 0
  71              		@ link register save eliminated.
  72 0000 80B4     		push	{r7}
  73              	.LCFI3:
  74              		.cfi_def_cfa_offset 4
  75              		.cfi_offset 7, -4
  76 0002 83B0     		sub	sp, sp, #12
  77              	.LCFI4:
  78              		.cfi_def_cfa_offset 16
  79 0004 00AF     		add	r7, sp, #0
  80              	.LCFI5:
  81              		.cfi_def_cfa_register 7
  82 0006 7860     		str	r0, [r7, #4]
  61:C:/data/workspaces/github/de.protos.demos/src/HexagonCANDemo/etrice.HexagonCANDemo.demo/src-gen-st/room/basic/service/timing\ATimingService.c **** 	return self->state;
  83              		.loc 1 61 0
  84 0008 7B68     		ldr	r3, [r7, #4]
  85 000a 9B88     		ldrh	r3, [r3, #4]
  86 000c 1BB2     		sxth	r3, r3
  62:C:/data/workspaces/github/de.protos.demos/src/HexagonCANDemo/etrice.HexagonCANDemo.demo/src-gen-st/room/basic/service/timing\ATimingService.c **** }
  87              		.loc 1 62 0
  88 000e 1846     		mov	r0, r3
  89 0010 07F10C07 		add	r7, r7, #12
  90 0014 BD46     		mov	sp, r7
  91 0016 80BC     		pop	{r7}
  92 0018 7047     		bx	lr
  93              		.cfi_endproc
  94              	.LFE1:
  96 001a 00BF     		.section	.text.entry_Operational,"ax",%progbits
  97              		.align	2
  98              		.thumb
  99              		.thumb_func
 101              	entry_Operational:
 102              	.LFB2:
  63:C:/data/workspaces/github/de.protos.demos/src/HexagonCANDemo/etrice.HexagonCANDemo.demo/src-gen-st/room/basic/service/timing\ATimingService.c **** 
  64:C:/data/workspaces/github/de.protos.demos/src/HexagonCANDemo/etrice.HexagonCANDemo.demo/src-gen-st/room/basic/service/timing\ATimingService.c **** /* Entry and Exit Codes */
  65:C:/data/workspaces/github/de.protos.demos/src/HexagonCANDemo/etrice.HexagonCANDemo.demo/src-gen-st/room/basic/service/timing\ATimingService.c **** static void entry_Operational(ATimingService* self) {
 103              		.loc 1 65 0
 104              		.cfi_startproc
 105              		@ args = 0, pretend = 0, frame = 8
 106              		@ frame_needed = 1, uses_anonymous_args = 0
 107              		@ link register save eliminated.
 108 0000 80B4     		push	{r7}
 109              	.LCFI6:
 110              		.cfi_def_cfa_offset 4
 111              		.cfi_offset 7, -4
 112 0002 83B0     		sub	sp, sp, #12
 113              	.LCFI7:
 114              		.cfi_def_cfa_offset 16
 115 0004 00AF     		add	r7, sp, #0
 116              	.LCFI8:
 117              		.cfi_def_cfa_register 7
 118 0006 7860     		str	r0, [r7, #4]
  66:C:/data/workspaces/github/de.protos.demos/src/HexagonCANDemo/etrice.HexagonCANDemo.demo/src-gen-st/room/basic/service/timing\ATimingService.c **** 	/* prepare */
  67:C:/data/workspaces/github/de.protos.demos/src/HexagonCANDemo/etrice.HexagonCANDemo.demo/src-gen-st/room/basic/service/timing\ATimingService.c **** }
 119              		.loc 1 67 0
 120 0008 07F10C07 		add	r7, r7, #12
 121 000c BD46     		mov	sp, r7
 122 000e 80BC     		pop	{r7}
 123 0010 7047     		bx	lr
 124              		.cfi_endproc
 125              	.LFE2:
 127 0012 00BF     		.section	.text.do_Operational,"ax",%progbits
 128              		.align	2
 129              		.thumb
 130              		.thumb_func
 132              	do_Operational:
 133              	.LFB3:
  68:C:/data/workspaces/github/de.protos.demos/src/HexagonCANDemo/etrice.HexagonCANDemo.demo/src-gen-st/room/basic/service/timing\ATimingService.c **** static  void do_Operational(ATimingService* self) {
 134              		.loc 1 68 0
 135              		.cfi_startproc
 136              		@ args = 0, pretend = 0, frame = 24
 137              		@ frame_needed = 1, uses_anonymous_args = 0
 138 0000 80B5     		push	{r7, lr}
 139              	.LCFI9:
 140              		.cfi_def_cfa_offset 8
 141              		.cfi_offset 7, -8
 142              		.cfi_offset 14, -4
 143 0002 86B0     		sub	sp, sp, #24
 144              	.LCFI10:
 145              		.cfi_def_cfa_offset 32
 146 0004 00AF     		add	r7, sp, #0
 147              	.LCFI11:
 148              		.cfi_def_cfa_register 7
 149 0006 7860     		str	r0, [r7, #4]
  69:C:/data/workspaces/github/de.protos.demos/src/HexagonCANDemo/etrice.HexagonCANDemo.demo/src-gen-st/room/basic/service/timing\ATimingService.c **** 	/* maintain timers */
  70:C:/data/workspaces/github/de.protos.demos/src/HexagonCANDemo/etrice.HexagonCANDemo.demo/src-gen-st/room/basic/service/timing\ATimingService.c **** 	etTimerControlBlock* temp;
  71:C:/data/workspaces/github/de.protos.demos/src/HexagonCANDemo/etrice.HexagonCANDemo.demo/src-gen-st/room/basic/service/timing\ATimingService.c **** 	etTime t;
  72:C:/data/workspaces/github/de.protos.demos/src/HexagonCANDemo/etrice.HexagonCANDemo.demo/src-gen-st/room/basic/service/timing\ATimingService.c **** 	
  73:C:/data/workspaces/github/de.protos.demos/src/HexagonCANDemo/etrice.HexagonCANDemo.demo/src-gen-st/room/basic/service/timing\ATimingService.c **** 	getTimeFromTarget(&t);
 150              		.loc 1 73 0
 151 0008 07F10C03 		add	r3, r7, #12
 152 000c 1846     		mov	r0, r3
 153 000e FFF7FEFF 		bl	getTimeFromTarget
  74:C:/data/workspaces/github/de.protos.demos/src/HexagonCANDemo/etrice.HexagonCANDemo.demo/src-gen-st/room/basic/service/timing\ATimingService.c **** 	while (usedTcbsRoot !=0 ){
 154              		.loc 1 74 0
 155 0012 46E0     		b	.L6
 156              	.L11:
  75:C:/data/workspaces/github/de.protos.demos/src/HexagonCANDemo/etrice.HexagonCANDemo.demo/src-gen-st/room/basic/service/timing\ATimingService.c **** 		if (isTimeGreater(&t,&(usedTcbsRoot->expTime))){
 157              		.loc 1 75 0
 158 0014 40F20003 		movw	r3, #:lower16:usedTcbsRoot
 159 0018 C0F20003 		movt	r3, #:upper16:usedTcbsRoot
 160 001c 1B68     		ldr	r3, [r3, #0]
 161 001e 07F10C02 		add	r2, r7, #12
 162 0022 7868     		ldr	r0, [r7, #4]
 163 0024 1146     		mov	r1, r2
 164 0026 1A46     		mov	r2, r3
 165 0028 FFF7FEFF 		bl	ATimingService_isTimeGreater
 166 002c 0346     		mov	r3, r0
 167 002e 002B     		cmp	r3, #0
 168 0030 3FD0     		beq	.L12
  76:C:/data/workspaces/github/de.protos.demos/src/HexagonCANDemo/etrice.HexagonCANDemo.demo/src-gen-st/room/basic/service/timing\ATimingService.c **** 			timer_timeout(usedTcbsRoot->portIdx);
 169              		.loc 1 76 0
 170 0032 7B68     		ldr	r3, [r7, #4]
 171 0034 1B68     		ldr	r3, [r3, #0]
 172 0036 1A46     		mov	r2, r3
 173 0038 40F20003 		movw	r3, #:lower16:usedTcbsRoot
 174 003c C0F20003 		movt	r3, #:upper16:usedTcbsRoot
 175 0040 1B68     		ldr	r3, [r3, #0]
 176 0042 1B69     		ldr	r3, [r3, #16]
 177 0044 1046     		mov	r0, r2
 178 0046 1946     		mov	r1, r3
 179 0048 FFF7FEFF 		bl	PTimerReplPort_timeout
  77:C:/data/workspaces/github/de.protos.demos/src/HexagonCANDemo/etrice.HexagonCANDemo.demo/src-gen-st/room/basic/service/timing\ATimingService.c **** 			temp=usedTcbsRoot;
 180              		.loc 1 77 0
 181 004c 40F20003 		movw	r3, #:lower16:usedTcbsRoot
 182 0050 C0F20003 		movt	r3, #:upper16:usedTcbsRoot
 183 0054 1B68     		ldr	r3, [r3, #0]
 184 0056 7B61     		str	r3, [r7, #20]
  78:C:/data/workspaces/github/de.protos.demos/src/HexagonCANDemo/etrice.HexagonCANDemo.demo/src-gen-st/room/basic/service/timing\ATimingService.c **** 			usedTcbsRoot=usedTcbsRoot->next;
 185              		.loc 1 78 0
 186 0058 40F20003 		movw	r3, #:lower16:usedTcbsRoot
 187 005c C0F20003 		movt	r3, #:upper16:usedTcbsRoot
 188 0060 1B68     		ldr	r3, [r3, #0]
 189 0062 5A69     		ldr	r2, [r3, #20]
 190 0064 40F20003 		movw	r3, #:lower16:usedTcbsRoot
 191 0068 C0F20003 		movt	r3, #:upper16:usedTcbsRoot
 192 006c 1A60     		str	r2, [r3, #0]
  79:C:/data/workspaces/github/de.protos.demos/src/HexagonCANDemo/etrice.HexagonCANDemo.demo/src-gen-st/room/basic/service/timing\ATimingService.c **** 			if((temp->pTime.sec==0)&&(temp->pTime.nSec==0)){
 193              		.loc 1 79 0
 194 006e 7B69     		ldr	r3, [r7, #20]
 195 0070 9B68     		ldr	r3, [r3, #8]
 196 0072 002B     		cmp	r3, #0
 197 0074 08D1     		bne	.L8
 198              		.loc 1 79 0 is_stmt 0 discriminator 1
 199 0076 7B69     		ldr	r3, [r7, #20]
 200 0078 DB68     		ldr	r3, [r3, #12]
 201 007a 002B     		cmp	r3, #0
 202 007c 04D1     		bne	.L8
  80:C:/data/workspaces/github/de.protos.demos/src/HexagonCANDemo/etrice.HexagonCANDemo.demo/src-gen-st/room/basic/service/timing\ATimingService.c **** 				/* single shot timer */
  81:C:/data/workspaces/github/de.protos.demos/src/HexagonCANDemo/etrice.HexagonCANDemo.demo/src-gen-st/room/basic/service/timing\ATimingService.c **** 				returnTcb(temp);
 203              		.loc 1 81 0 is_stmt 1
 204 007e 7868     		ldr	r0, [r7, #4]
 205 0080 7969     		ldr	r1, [r7, #20]
 206 0082 FFF7FEFF 		bl	ATimingService_returnTcb
 207 0086 0CE0     		b	.L6
 208              	.L8:
  82:C:/data/workspaces/github/de.protos.demos/src/HexagonCANDemo/etrice.HexagonCANDemo.demo/src-gen-st/room/basic/service/timing\ATimingService.c **** 			}else{
  83:C:/data/workspaces/github/de.protos.demos/src/HexagonCANDemo/etrice.HexagonCANDemo.demo/src-gen-st/room/basic/service/timing\ATimingService.c **** 				/* periodic timer */
  84:C:/data/workspaces/github/de.protos.demos/src/HexagonCANDemo/etrice.HexagonCANDemo.demo/src-gen-st/room/basic/service/timing\ATimingService.c **** 				addTime(&temp->expTime,&temp->pTime);
 209              		.loc 1 84 0
 210 0088 7A69     		ldr	r2, [r7, #20]
 211 008a 7B69     		ldr	r3, [r7, #20]
 212 008c 03F10803 		add	r3, r3, #8
 213 0090 7868     		ldr	r0, [r7, #4]
 214 0092 1146     		mov	r1, r2
 215 0094 1A46     		mov	r2, r3
 216 0096 FFF7FEFF 		bl	ATimingService_addTime
  85:C:/data/workspaces/github/de.protos.demos/src/HexagonCANDemo/etrice.HexagonCANDemo.demo/src-gen-st/room/basic/service/timing\ATimingService.c **** 				putTcbToUsedList(temp);
 217              		.loc 1 85 0
 218 009a 7868     		ldr	r0, [r7, #4]
 219 009c 7969     		ldr	r1, [r7, #20]
 220 009e FFF7FEFF 		bl	ATimingService_putTcbToUsedList
 221              	.L6:
  74:C:/data/workspaces/github/de.protos.demos/src/HexagonCANDemo/etrice.HexagonCANDemo.demo/src-gen-st/room/basic/service/timing\ATimingService.c **** 	while (usedTcbsRoot !=0 ){
 222              		.loc 1 74 0 discriminator 1
 223 00a2 40F20003 		movw	r3, #:lower16:usedTcbsRoot
 224 00a6 C0F20003 		movt	r3, #:upper16:usedTcbsRoot
 225 00aa 1B68     		ldr	r3, [r3, #0]
 226 00ac 002B     		cmp	r3, #0
 227 00ae B1D1     		bne	.L11
 228 00b0 00E0     		b	.L5
 229              	.L12:
  86:C:/data/workspaces/github/de.protos.demos/src/HexagonCANDemo/etrice.HexagonCANDemo.demo/src-gen-st/room/basic/service/timing\ATimingService.c **** 				}
  87:C:/data/workspaces/github/de.protos.demos/src/HexagonCANDemo/etrice.HexagonCANDemo.demo/src-gen-st/room/basic/service/timing\ATimingService.c **** 			}else{
  88:C:/data/workspaces/github/de.protos.demos/src/HexagonCANDemo/etrice.HexagonCANDemo.demo/src-gen-st/room/basic/service/timing\ATimingService.c **** 				break;
 230              		.loc 1 88 0
 231 00b2 00BF     		nop
 232              	.L5:
  89:C:/data/workspaces/github/de.protos.demos/src/HexagonCANDemo/etrice.HexagonCANDemo.demo/src-gen-st/room/basic/service/timing\ATimingService.c **** 				}
  90:C:/data/workspaces/github/de.protos.demos/src/HexagonCANDemo/etrice.HexagonCANDemo.demo/src-gen-st/room/basic/service/timing\ATimingService.c **** 		}
  91:C:/data/workspaces/github/de.protos.demos/src/HexagonCANDemo/etrice.HexagonCANDemo.demo/src-gen-st/room/basic/service/timing\ATimingService.c **** }
 233              		.loc 1 91 0
 234 00b4 07F11807 		add	r7, r7, #24
 235 00b8 BD46     		mov	sp, r7
 236 00ba 80BD     		pop	{r7, pc}
 237              		.cfi_endproc
 238              	.LFE3:
 240              		.section	.text.action_TRANS_INITIAL_TO__Operational,"ax",%progbits
 241              		.align	2
 242              		.thumb
 243              		.thumb_func
 245              	action_TRANS_INITIAL_TO__Operational:
 246              	.LFB4:
  92:C:/data/workspaces/github/de.protos.demos/src/HexagonCANDemo/etrice.HexagonCANDemo.demo/src-gen-st/room/basic/service/timing\ATimingService.c **** 
  93:C:/data/workspaces/github/de.protos.demos/src/HexagonCANDemo/etrice.HexagonCANDemo.demo/src-gen-st/room/basic/service/timing\ATimingService.c **** /* Action Codes */
  94:C:/data/workspaces/github/de.protos.demos/src/HexagonCANDemo/etrice.HexagonCANDemo.demo/src-gen-st/room/basic/service/timing\ATimingService.c **** static void action_TRANS_INITIAL_TO__Operational(ATimingService* self) {
 247              		.loc 1 94 0
 248              		.cfi_startproc
 249              		@ args = 0, pretend = 0, frame = 16
 250              		@ frame_needed = 1, uses_anonymous_args = 0
 251              		@ link register save eliminated.
 252 0000 80B4     		push	{r7}
 253              	.LCFI12:
 254              		.cfi_def_cfa_offset 4
 255              		.cfi_offset 7, -4
 256 0002 85B0     		sub	sp, sp, #20
 257              	.LCFI13:
 258              		.cfi_def_cfa_offset 24
 259 0004 00AF     		add	r7, sp, #0
 260              	.LCFI14:
 261              		.cfi_def_cfa_register 7
 262 0006 7860     		str	r0, [r7, #4]
  95:C:/data/workspaces/github/de.protos.demos/src/HexagonCANDemo/etrice.HexagonCANDemo.demo/src-gen-st/room/basic/service/timing\ATimingService.c **** 	int i;
  96:C:/data/workspaces/github/de.protos.demos/src/HexagonCANDemo/etrice.HexagonCANDemo.demo/src-gen-st/room/basic/service/timing\ATimingService.c **** 	usedTcbsRoot=0;
 263              		.loc 1 96 0
 264 0008 40F20003 		movw	r3, #:lower16:usedTcbsRoot
 265 000c C0F20003 		movt	r3, #:upper16:usedTcbsRoot
 266 0010 4FF00002 		mov	r2, #0
 267 0014 1A60     		str	r2, [r3, #0]
  97:C:/data/workspaces/github/de.protos.demos/src/HexagonCANDemo/etrice.HexagonCANDemo.demo/src-gen-st/room/basic/service/timing\ATimingService.c **** 	freeTcbsRoot=&tcbs[0];
 268              		.loc 1 97 0
 269 0016 40F20003 		movw	r3, #:lower16:freeTcbsRoot
 270 001a C0F20003 		movt	r3, #:upper16:freeTcbsRoot
 271 001e 40F20002 		movw	r2, #:lower16:tcbs
 272 0022 C0F20002 		movt	r2, #:upper16:tcbs
 273 0026 1A60     		str	r2, [r3, #0]
  98:C:/data/workspaces/github/de.protos.demos/src/HexagonCANDemo/etrice.HexagonCANDemo.demo/src-gen-st/room/basic/service/timing\ATimingService.c **** 	tcbs[ET_NB_OF_TCBS-1].next=0;
 274              		.loc 1 98 0
 275 0028 40F20003 		movw	r3, #:lower16:tcbs
 276 002c C0F20003 		movt	r3, #:upper16:tcbs
 277 0030 4FF00002 		mov	r2, #0
 278 0034 C3F8DC21 		str	r2, [r3, #476]
  99:C:/data/workspaces/github/de.protos.demos/src/HexagonCANDemo/etrice.HexagonCANDemo.demo/src-gen-st/room/basic/service/timing\ATimingService.c **** 	for (i=0;i<ET_NB_OF_TCBS-1;i++){
 279              		.loc 1 99 0
 280 0038 4FF00003 		mov	r3, #0
 281 003c FB60     		str	r3, [r7, #12]
 282 003e 20E0     		b	.L14
 283              	.L15:
 100:C:/data/workspaces/github/de.protos.demos/src/HexagonCANDemo/etrice.HexagonCANDemo.demo/src-gen-st/room/basic/service/timing\ATimingService.c **** 		tcbs[i].next=&tcbs[i+1];
 284              		.loc 1 100 0 discriminator 2
 285 0040 FB68     		ldr	r3, [r7, #12]
 286 0042 03F10102 		add	r2, r3, #1
 287 0046 1346     		mov	r3, r2
 288 0048 4FEA4303 		lsl	r3, r3, #1
 289 004c 9B18     		adds	r3, r3, r2
 290 004e 4FEAC303 		lsl	r3, r3, #3
 291 0052 40F20002 		movw	r2, #:lower16:tcbs
 292 0056 C0F20002 		movt	r2, #:upper16:tcbs
 293 005a 9818     		adds	r0, r3, r2
 294 005c 40F20002 		movw	r2, #:lower16:tcbs
 295 0060 C0F20002 		movt	r2, #:upper16:tcbs
 296 0064 F968     		ldr	r1, [r7, #12]
 297 0066 0B46     		mov	r3, r1
 298 0068 4FEA4303 		lsl	r3, r3, #1
 299 006c 5B18     		adds	r3, r3, r1
 300 006e 4FEAC303 		lsl	r3, r3, #3
 301 0072 D318     		adds	r3, r2, r3
 302 0074 03F11403 		add	r3, r3, #20
 303 0078 1860     		str	r0, [r3, #0]
  99:C:/data/workspaces/github/de.protos.demos/src/HexagonCANDemo/etrice.HexagonCANDemo.demo/src-gen-st/room/basic/service/timing\ATimingService.c **** 	for (i=0;i<ET_NB_OF_TCBS-1;i++){
 304              		.loc 1 99 0 discriminator 2
 305 007a FB68     		ldr	r3, [r7, #12]
 306 007c 03F10103 		add	r3, r3, #1
 307 0080 FB60     		str	r3, [r7, #12]
 308              	.L14:
  99:C:/data/workspaces/github/de.protos.demos/src/HexagonCANDemo/etrice.HexagonCANDemo.demo/src-gen-st/room/basic/service/timing\ATimingService.c **** 	for (i=0;i<ET_NB_OF_TCBS-1;i++){
 309              		.loc 1 99 0 is_stmt 0 discriminator 1
 310 0082 FB68     		ldr	r3, [r7, #12]
 311 0084 122B     		cmp	r3, #18
 312 0086 DBDD     		ble	.L15
 101:C:/data/workspaces/github/de.protos.demos/src/HexagonCANDemo/etrice.HexagonCANDemo.demo/src-gen-st/room/basic/service/timing\ATimingService.c **** 		}
 102:C:/data/workspaces/github/de.protos.demos/src/HexagonCANDemo/etrice.HexagonCANDemo.demo/src-gen-st/room/basic/service/timing\ATimingService.c **** }
 313              		.loc 1 102 0 is_stmt 1
 314 0088 07F11407 		add	r7, r7, #20
 315 008c BD46     		mov	sp, r7
 316 008e 80BC     		pop	{r7}
 317 0090 7047     		bx	lr
 318              		.cfi_endproc
 319              	.LFE4:
 321 0092 00BF     		.section	.text.action_TRANS_tr1_FROM_Operational_TO_Operational_BY_startTimeouttimer_tr1,"ax",%pro
 322              		.align	2
 323              		.thumb
 324              		.thumb_func
 326              	action_TRANS_tr1_FROM_Operational_TO_Operational_BY_startTimeouttimer_tr1:
 327              	.LFB5:
 103:C:/data/workspaces/github/de.protos.demos/src/HexagonCANDemo/etrice.HexagonCANDemo.demo/src-gen-st/room/basic/service/timing\ATimingService.c **** static void action_TRANS_tr1_FROM_Operational_TO_Operational_BY_startTimeouttimer_tr1(ATimingServic
 328              		.loc 1 103 0
 329              		.cfi_startproc
 330              		@ args = 0, pretend = 0, frame = 32
 331              		@ frame_needed = 1, uses_anonymous_args = 0
 332 0000 80B5     		push	{r7, lr}
 333              	.LCFI15:
 334              		.cfi_def_cfa_offset 8
 335              		.cfi_offset 7, -8
 336              		.cfi_offset 14, -4
 337 0002 88B0     		sub	sp, sp, #32
 338              	.LCFI16:
 339              		.cfi_def_cfa_offset 40
 340 0004 00AF     		add	r7, sp, #0
 341              	.LCFI17:
 342              		.cfi_def_cfa_register 7
 343 0006 F860     		str	r0, [r7, #12]
 344 0008 B960     		str	r1, [r7, #8]
 345 000a 7A60     		str	r2, [r7, #4]
 104:C:/data/workspaces/github/de.protos.demos/src/HexagonCANDemo/etrice.HexagonCANDemo.demo/src-gen-st/room/basic/service/timing\ATimingService.c **** 	etTimerControlBlock* timer = getTcb();
 346              		.loc 1 104 0
 347 000c F868     		ldr	r0, [r7, #12]
 348 000e FFF7FEFF 		bl	ATimingService_getTcb
 349 0012 F861     		str	r0, [r7, #28]
 105:C:/data/workspaces/github/de.protos.demos/src/HexagonCANDemo/etrice.HexagonCANDemo.demo/src-gen-st/room/basic/service/timing\ATimingService.c **** 	etTime t;
 106:C:/data/workspaces/github/de.protos.demos/src/HexagonCANDemo/etrice.HexagonCANDemo.demo/src-gen-st/room/basic/service/timing\ATimingService.c **** 	if (timer!= 0){
 350              		.loc 1 106 0
 351 0014 FB69     		ldr	r3, [r7, #28]
 352 0016 002B     		cmp	r3, #0
 353 0018 3BD0     		beq	.L16
 107:C:/data/workspaces/github/de.protos.demos/src/HexagonCANDemo/etrice.HexagonCANDemo.demo/src-gen-st/room/basic/service/timing\ATimingService.c **** 		t.sec=time/1000;
 354              		.loc 1 107 0
 355 001a 7A68     		ldr	r2, [r7, #4]
 356 001c 44F6D353 		movw	r3, #19923
 357 0020 C1F26203 		movt	r3, 4194
 358 0024 A3FB0213 		umull	r1, r3, r3, r2
 359 0028 4FEA9313 		lsr	r3, r3, #6
 360 002c 7B61     		str	r3, [r7, #20]
 108:C:/data/workspaces/github/de.protos.demos/src/HexagonCANDemo/etrice.HexagonCANDemo.demo/src-gen-st/room/basic/service/timing\ATimingService.c **** 		t.nSec=(time%1000)*1000000L;
 361              		.loc 1 108 0
 362 002e 7A68     		ldr	r2, [r7, #4]
 363 0030 44F6D353 		movw	r3, #19923
 364 0034 C1F26203 		movt	r3, 4194
 365 0038 A3FB0213 		umull	r1, r3, r3, r2
 366 003c 4FEA9313 		lsr	r3, r3, #6
 367 0040 4FF47A71 		mov	r1, #1000
 368 0044 01FB03F3 		mul	r3, r1, r3
 369 0048 D31A     		subs	r3, r2, r3
 370 004a 44F24022 		movw	r2, #16960
 371 004e C0F20F02 		movt	r2, 15
 372 0052 02FB03F3 		mul	r3, r2, r3
 373 0056 BB61     		str	r3, [r7, #24]
 109:C:/data/workspaces/github/de.protos.demos/src/HexagonCANDemo/etrice.HexagonCANDemo.demo/src-gen-st/room/basic/service/timing\ATimingService.c **** 		timer->pTime.sec = 0;
 374              		.loc 1 109 0
 375 0058 FB69     		ldr	r3, [r7, #28]
 376 005a 4FF00002 		mov	r2, #0
 377 005e 9A60     		str	r2, [r3, #8]
 110:C:/data/workspaces/github/de.protos.demos/src/HexagonCANDemo/etrice.HexagonCANDemo.demo/src-gen-st/room/basic/service/timing\ATimingService.c **** 		timer->pTime.nSec = 0;
 378              		.loc 1 110 0
 379 0060 FB69     		ldr	r3, [r7, #28]
 380 0062 4FF00002 		mov	r2, #0
 381 0066 DA60     		str	r2, [r3, #12]
 111:C:/data/workspaces/github/de.protos.demos/src/HexagonCANDemo/etrice.HexagonCANDemo.demo/src-gen-st/room/basic/service/timing\ATimingService.c **** 		timer->portIdx=((etReplSubPort*)ifitem)->index;
 382              		.loc 1 111 0
 383 0068 BB68     		ldr	r3, [r7, #8]
 384 006a 1B7B     		ldrb	r3, [r3, #12]	@ zero_extendqisi2
 385 006c 1A46     		mov	r2, r3
 386 006e FB69     		ldr	r3, [r7, #28]
 387 0070 1A61     		str	r2, [r3, #16]
 112:C:/data/workspaces/github/de.protos.demos/src/HexagonCANDemo/etrice.HexagonCANDemo.demo/src-gen-st/room/basic/service/timing\ATimingService.c **** 		getTimeFromTarget(&(timer->expTime));
 388              		.loc 1 112 0
 389 0072 FB69     		ldr	r3, [r7, #28]
 390 0074 1846     		mov	r0, r3
 391 0076 FFF7FEFF 		bl	getTimeFromTarget
 113:C:/data/workspaces/github/de.protos.demos/src/HexagonCANDemo/etrice.HexagonCANDemo.demo/src-gen-st/room/basic/service/timing\ATimingService.c **** 		addTime(&(timer->expTime),&t);
 392              		.loc 1 113 0
 393 007a FA69     		ldr	r2, [r7, #28]
 394 007c 07F11403 		add	r3, r7, #20
 395 0080 F868     		ldr	r0, [r7, #12]
 396 0082 1146     		mov	r1, r2
 397 0084 1A46     		mov	r2, r3
 398 0086 FFF7FEFF 		bl	ATimingService_addTime
 114:C:/data/workspaces/github/de.protos.demos/src/HexagonCANDemo/etrice.HexagonCANDemo.demo/src-gen-st/room/basic/service/timing\ATimingService.c **** 		putTcbToUsedList(timer);
 399              		.loc 1 114 0
 400 008a F868     		ldr	r0, [r7, #12]
 401 008c F969     		ldr	r1, [r7, #28]
 402 008e FFF7FEFF 		bl	ATimingService_putTcbToUsedList
 403              	.L16:
 115:C:/data/workspaces/github/de.protos.demos/src/HexagonCANDemo/etrice.HexagonCANDemo.demo/src-gen-st/room/basic/service/timing\ATimingService.c **** 		}
 116:C:/data/workspaces/github/de.protos.demos/src/HexagonCANDemo/etrice.HexagonCANDemo.demo/src-gen-st/room/basic/service/timing\ATimingService.c **** }
 404              		.loc 1 116 0
 405 0092 07F12007 		add	r7, r7, #32
 406 0096 BD46     		mov	sp, r7
 407 0098 80BD     		pop	{r7, pc}
 408              		.cfi_endproc
 409              	.LFE5:
 411 009a 00BF     		.section	.text.action_TRANS_tr3_FROM_Operational_TO_Operational_BY_startTimertimer_tr3,"ax",%progb
 412              		.align	2
 413              		.thumb
 414              		.thumb_func
 416              	action_TRANS_tr3_FROM_Operational_TO_Operational_BY_startTimertimer_tr3:
 417              	.LFB6:
 117:C:/data/workspaces/github/de.protos.demos/src/HexagonCANDemo/etrice.HexagonCANDemo.demo/src-gen-st/room/basic/service/timing\ATimingService.c **** static void action_TRANS_tr3_FROM_Operational_TO_Operational_BY_startTimertimer_tr3(ATimingService*
 418              		.loc 1 117 0
 419              		.cfi_startproc
 420              		@ args = 0, pretend = 0, frame = 32
 421              		@ frame_needed = 1, uses_anonymous_args = 0
 422 0000 80B5     		push	{r7, lr}
 423              	.LCFI18:
 424              		.cfi_def_cfa_offset 8
 425              		.cfi_offset 7, -8
 426              		.cfi_offset 14, -4
 427 0002 88B0     		sub	sp, sp, #32
 428              	.LCFI19:
 429              		.cfi_def_cfa_offset 40
 430 0004 00AF     		add	r7, sp, #0
 431              	.LCFI20:
 432              		.cfi_def_cfa_register 7
 433 0006 F860     		str	r0, [r7, #12]
 434 0008 B960     		str	r1, [r7, #8]
 435 000a 7A60     		str	r2, [r7, #4]
 118:C:/data/workspaces/github/de.protos.demos/src/HexagonCANDemo/etrice.HexagonCANDemo.demo/src-gen-st/room/basic/service/timing\ATimingService.c **** 	etTimerControlBlock* timer = getTcb();
 436              		.loc 1 118 0
 437 000c F868     		ldr	r0, [r7, #12]
 438 000e FFF7FEFF 		bl	ATimingService_getTcb
 439 0012 F861     		str	r0, [r7, #28]
 119:C:/data/workspaces/github/de.protos.demos/src/HexagonCANDemo/etrice.HexagonCANDemo.demo/src-gen-st/room/basic/service/timing\ATimingService.c **** 	etTime t;
 120:C:/data/workspaces/github/de.protos.demos/src/HexagonCANDemo/etrice.HexagonCANDemo.demo/src-gen-st/room/basic/service/timing\ATimingService.c **** 	if (timer!= 0){
 440              		.loc 1 120 0
 441 0014 FB69     		ldr	r3, [r7, #28]
 442 0016 002B     		cmp	r3, #0
 443 0018 3CD0     		beq	.L18
 121:C:/data/workspaces/github/de.protos.demos/src/HexagonCANDemo/etrice.HexagonCANDemo.demo/src-gen-st/room/basic/service/timing\ATimingService.c **** 		t.sec=time/1000;
 444              		.loc 1 121 0
 445 001a 7A68     		ldr	r2, [r7, #4]
 446 001c 44F6D353 		movw	r3, #19923
 447 0020 C1F26203 		movt	r3, 4194
 448 0024 A3FB0213 		umull	r1, r3, r3, r2
 449 0028 4FEA9313 		lsr	r3, r3, #6
 450 002c 7B61     		str	r3, [r7, #20]
 122:C:/data/workspaces/github/de.protos.demos/src/HexagonCANDemo/etrice.HexagonCANDemo.demo/src-gen-st/room/basic/service/timing\ATimingService.c **** 		t.nSec=(time%1000)*1000000L;
 451              		.loc 1 122 0
 452 002e 7A68     		ldr	r2, [r7, #4]
 453 0030 44F6D353 		movw	r3, #19923
 454 0034 C1F26203 		movt	r3, 4194
 455 0038 A3FB0213 		umull	r1, r3, r3, r2
 456 003c 4FEA9313 		lsr	r3, r3, #6
 457 0040 4FF47A71 		mov	r1, #1000
 458 0044 01FB03F3 		mul	r3, r1, r3
 459 0048 D31A     		subs	r3, r2, r3
 460 004a 44F24022 		movw	r2, #16960
 461 004e C0F20F02 		movt	r2, 15
 462 0052 02FB03F3 		mul	r3, r2, r3
 463 0056 BB61     		str	r3, [r7, #24]
 123:C:/data/workspaces/github/de.protos.demos/src/HexagonCANDemo/etrice.HexagonCANDemo.demo/src-gen-st/room/basic/service/timing\ATimingService.c **** 		timer->pTime = t;
 464              		.loc 1 123 0
 465 0058 FB69     		ldr	r3, [r7, #28]
 466 005a 03F10803 		add	r3, r3, #8
 467 005e 07F11402 		add	r2, r7, #20
 468 0062 92E80300 		ldmia	r2, {r0, r1}
 469 0066 83E80300 		stmia	r3, {r0, r1}
 124:C:/data/workspaces/github/de.protos.demos/src/HexagonCANDemo/etrice.HexagonCANDemo.demo/src-gen-st/room/basic/service/timing\ATimingService.c **** 		timer->portIdx=((etReplSubPort*)ifitem)->index;
 470              		.loc 1 124 0
 471 006a BB68     		ldr	r3, [r7, #8]
 472 006c 1B7B     		ldrb	r3, [r3, #12]	@ zero_extendqisi2
 473 006e 1A46     		mov	r2, r3
 474 0070 FB69     		ldr	r3, [r7, #28]
 475 0072 1A61     		str	r2, [r3, #16]
 125:C:/data/workspaces/github/de.protos.demos/src/HexagonCANDemo/etrice.HexagonCANDemo.demo/src-gen-st/room/basic/service/timing\ATimingService.c **** 		getTimeFromTarget(&(timer->expTime));
 476              		.loc 1 125 0
 477 0074 FB69     		ldr	r3, [r7, #28]
 478 0076 1846     		mov	r0, r3
 479 0078 FFF7FEFF 		bl	getTimeFromTarget
 126:C:/data/workspaces/github/de.protos.demos/src/HexagonCANDemo/etrice.HexagonCANDemo.demo/src-gen-st/room/basic/service/timing\ATimingService.c **** 		addTime(&(timer->expTime),&t);
 480              		.loc 1 126 0
 481 007c FA69     		ldr	r2, [r7, #28]
 482 007e 07F11403 		add	r3, r7, #20
 483 0082 F868     		ldr	r0, [r7, #12]
 484 0084 1146     		mov	r1, r2
 485 0086 1A46     		mov	r2, r3
 486 0088 FFF7FEFF 		bl	ATimingService_addTime
 127:C:/data/workspaces/github/de.protos.demos/src/HexagonCANDemo/etrice.HexagonCANDemo.demo/src-gen-st/room/basic/service/timing\ATimingService.c **** 		putTcbToUsedList(timer);
 487              		.loc 1 127 0
 488 008c F868     		ldr	r0, [r7, #12]
 489 008e F969     		ldr	r1, [r7, #28]
 490 0090 FFF7FEFF 		bl	ATimingService_putTcbToUsedList
 491              	.L18:
 128:C:/data/workspaces/github/de.protos.demos/src/HexagonCANDemo/etrice.HexagonCANDemo.demo/src-gen-st/room/basic/service/timing\ATimingService.c **** 		}
 129:C:/data/workspaces/github/de.protos.demos/src/HexagonCANDemo/etrice.HexagonCANDemo.demo/src-gen-st/room/basic/service/timing\ATimingService.c **** }
 492              		.loc 1 129 0
 493 0094 07F12007 		add	r7, r7, #32
 494 0098 BD46     		mov	sp, r7
 495 009a 80BD     		pop	{r7, pc}
 496              		.cfi_endproc
 497              	.LFE6:
 499              		.section	.text.action_TRANS_tr4_FROM_Operational_TO_Operational_BY_killtimer_tr4,"ax",%progbits
 500              		.align	2
 501              		.thumb
 502              		.thumb_func
 504              	action_TRANS_tr4_FROM_Operational_TO_Operational_BY_killtimer_tr4:
 505              	.LFB7:
 130:C:/data/workspaces/github/de.protos.demos/src/HexagonCANDemo/etrice.HexagonCANDemo.demo/src-gen-st/room/basic/service/timing\ATimingService.c **** static void action_TRANS_tr4_FROM_Operational_TO_Operational_BY_killtimer_tr4(ATimingService* self,
 506              		.loc 1 130 0
 507              		.cfi_startproc
 508              		@ args = 0, pretend = 0, frame = 8
 509              		@ frame_needed = 1, uses_anonymous_args = 0
 510 0000 80B5     		push	{r7, lr}
 511              	.LCFI21:
 512              		.cfi_def_cfa_offset 8
 513              		.cfi_offset 7, -8
 514              		.cfi_offset 14, -4
 515 0002 82B0     		sub	sp, sp, #8
 516              	.LCFI22:
 517              		.cfi_def_cfa_offset 16
 518 0004 00AF     		add	r7, sp, #0
 519              	.LCFI23:
 520              		.cfi_def_cfa_register 7
 521 0006 7860     		str	r0, [r7, #4]
 522 0008 3960     		str	r1, [r7, #0]
 131:C:/data/workspaces/github/de.protos.demos/src/HexagonCANDemo/etrice.HexagonCANDemo.demo/src-gen-st/room/basic/service/timing\ATimingService.c **** 	removeTcbFromUsedList(((etReplSubPort*)ifitem)->index);
 523              		.loc 1 131 0
 524 000a 3B68     		ldr	r3, [r7, #0]
 525 000c 1B7B     		ldrb	r3, [r3, #12]	@ zero_extendqisi2
 526 000e 7868     		ldr	r0, [r7, #4]
 527 0010 1946     		mov	r1, r3
 528 0012 FFF7FEFF 		bl	ATimingService_removeTcbFromUsedList
 132:C:/data/workspaces/github/de.protos.demos/src/HexagonCANDemo/etrice.HexagonCANDemo.demo/src-gen-st/room/basic/service/timing\ATimingService.c **** }
 529              		.loc 1 132 0
 530 0016 07F10807 		add	r7, r7, #8
 531 001a BD46     		mov	sp, r7
 532 001c 80BD     		pop	{r7, pc}
 533              		.cfi_endproc
 534              	.LFE7:
 536 001e 00BF     		.section	.text.exitTo,"ax",%progbits
 537              		.align	2
 538              		.thumb
 539              		.thumb_func
 541              	exitTo:
 542              	.LFB8:
 133:C:/data/workspaces/github/de.protos.demos/src/HexagonCANDemo/etrice.HexagonCANDemo.demo/src-gen-st/room/basic/service/timing\ATimingService.c **** 
 134:C:/data/workspaces/github/de.protos.demos/src/HexagonCANDemo/etrice.HexagonCANDemo.demo/src-gen-st/room/basic/service/timing\ATimingService.c **** /**
 135:C:/data/workspaces/github/de.protos.demos/src/HexagonCANDemo/etrice.HexagonCANDemo.demo/src-gen-st/room/basic/service/timing\ATimingService.c ****  * calls exit codes while exiting from the current state to one of its
 136:C:/data/workspaces/github/de.protos.demos/src/HexagonCANDemo/etrice.HexagonCANDemo.demo/src-gen-st/room/basic/service/timing\ATimingService.c ****  * parent states while remembering the history
 137:C:/data/workspaces/github/de.protos.demos/src/HexagonCANDemo/etrice.HexagonCANDemo.demo/src-gen-st/room/basic/service/timing\ATimingService.c ****  * @param current__et - the current state
 138:C:/data/workspaces/github/de.protos.demos/src/HexagonCANDemo/etrice.HexagonCANDemo.demo/src-gen-st/room/basic/service/timing\ATimingService.c ****  * @param to - the final parent state
 139:C:/data/workspaces/github/de.protos.demos/src/HexagonCANDemo/etrice.HexagonCANDemo.demo/src-gen-st/room/basic/service/timing\ATimingService.c ****  */
 140:C:/data/workspaces/github/de.protos.demos/src/HexagonCANDemo/etrice.HexagonCANDemo.demo/src-gen-st/room/basic/service/timing\ATimingService.c **** static void exitTo(ATimingService* self, etInt16 current__et, etInt16 to) {
 543              		.loc 1 140 0
 544              		.cfi_startproc
 545              		@ args = 0, pretend = 0, frame = 8
 546              		@ frame_needed = 1, uses_anonymous_args = 0
 547              		@ link register save eliminated.
 548 0000 80B4     		push	{r7}
 549              	.LCFI24:
 550              		.cfi_def_cfa_offset 4
 551              		.cfi_offset 7, -4
 552 0002 83B0     		sub	sp, sp, #12
 553              	.LCFI25:
 554              		.cfi_def_cfa_offset 16
 555 0004 00AF     		add	r7, sp, #0
 556              	.LCFI26:
 557              		.cfi_def_cfa_register 7
 558 0006 7860     		str	r0, [r7, #4]
 559 0008 1346     		mov	r3, r2
 560 000a 0A46     		mov	r2, r1	@ movhi
 561 000c 7A80     		strh	r2, [r7, #2]	@ movhi
 562 000e 3B80     		strh	r3, [r7, #0]	@ movhi
 141:C:/data/workspaces/github/de.protos.demos/src/HexagonCANDemo/etrice.HexagonCANDemo.demo/src-gen-st/room/basic/service/timing\ATimingService.c **** 	while (current__et!=to) {
 563              		.loc 1 141 0
 564 0010 0CE0     		b	.L22
 565              	.L25:
 142:C:/data/workspaces/github/de.protos.demos/src/HexagonCANDemo/etrice.HexagonCANDemo.demo/src-gen-st/room/basic/service/timing\ATimingService.c **** 		switch (current__et) {
 566              		.loc 1 142 0
 567 0012 B7F90230 		ldrsh	r3, [r7, #2]
 568 0016 022B     		cmp	r3, #2
 569 0018 07D1     		bne	.L26
 570              	.L24:
 143:C:/data/workspaces/github/de.protos.demos/src/HexagonCANDemo/etrice.HexagonCANDemo.demo/src-gen-st/room/basic/service/timing\ATimingService.c **** 			case STATE_Operational:
 144:C:/data/workspaces/github/de.protos.demos/src/HexagonCANDemo/etrice.HexagonCANDemo.demo/src-gen-st/room/basic/service/timing\ATimingService.c **** 				self->history[STATE_TOP] = STATE_Operational;
 571              		.loc 1 144 0
 572 001a 7B68     		ldr	r3, [r7, #4]
 573 001c 4FF00202 		mov	r2, #2
 574 0020 1A81     		strh	r2, [r3, #8]	@ movhi
 145:C:/data/workspaces/github/de.protos.demos/src/HexagonCANDemo/etrice.HexagonCANDemo.demo/src-gen-st/room/basic/service/timing\ATimingService.c **** 				current__et = STATE_TOP;
 575              		.loc 1 145 0
 576 0022 4FF00103 		mov	r3, #1
 577 0026 7B80     		strh	r3, [r7, #2]	@ movhi
 146:C:/data/workspaces/github/de.protos.demos/src/HexagonCANDemo/etrice.HexagonCANDemo.demo/src-gen-st/room/basic/service/timing\ATimingService.c **** 				break;
 578              		.loc 1 146 0
 579 0028 00E0     		b	.L22
 580              	.L26:
 147:C:/data/workspaces/github/de.protos.demos/src/HexagonCANDemo/etrice.HexagonCANDemo.demo/src-gen-st/room/basic/service/timing\ATimingService.c **** 			default:
 148:C:/data/workspaces/github/de.protos.demos/src/HexagonCANDemo/etrice.HexagonCANDemo.demo/src-gen-st/room/basic/service/timing\ATimingService.c **** 				/* should not occur */
 149:C:/data/workspaces/github/de.protos.demos/src/HexagonCANDemo/etrice.HexagonCANDemo.demo/src-gen-st/room/basic/service/timing\ATimingService.c **** 				break;
 581              		.loc 1 149 0
 582 002a 00BF     		nop
 583              	.L22:
 141:C:/data/workspaces/github/de.protos.demos/src/HexagonCANDemo/etrice.HexagonCANDemo.demo/src-gen-st/room/basic/service/timing\ATimingService.c **** 	while (current__et!=to) {
 584              		.loc 1 141 0 discriminator 1
 585 002c B7F90220 		ldrsh	r2, [r7, #2]
 586 0030 B7F90030 		ldrsh	r3, [r7, #0]
 587 0034 9A42     		cmp	r2, r3
 588 0036 ECD1     		bne	.L25
 150:C:/data/workspaces/github/de.protos.demos/src/HexagonCANDemo/etrice.HexagonCANDemo.demo/src-gen-st/room/basic/service/timing\ATimingService.c **** 		}
 151:C:/data/workspaces/github/de.protos.demos/src/HexagonCANDemo/etrice.HexagonCANDemo.demo/src-gen-st/room/basic/service/timing\ATimingService.c **** 	}
 152:C:/data/workspaces/github/de.protos.demos/src/HexagonCANDemo/etrice.HexagonCANDemo.demo/src-gen-st/room/basic/service/timing\ATimingService.c **** }
 589              		.loc 1 152 0
 590 0038 07F10C07 		add	r7, r7, #12
 591 003c BD46     		mov	sp, r7
 592 003e 80BC     		pop	{r7}
 593 0040 7047     		bx	lr
 594              		.cfi_endproc
 595              	.LFE8:
 597 0042 00BF     		.section	.text.executeTransitionChain,"ax",%progbits
 598              		.align	2
 599              		.thumb
 600              		.thumb_func
 602              	executeTransitionChain:
 603              	.LFB9:
 153:C:/data/workspaces/github/de.protos.demos/src/HexagonCANDemo/etrice.HexagonCANDemo.demo/src-gen-st/room/basic/service/timing\ATimingService.c **** 
 154:C:/data/workspaces/github/de.protos.demos/src/HexagonCANDemo/etrice.HexagonCANDemo.demo/src-gen-st/room/basic/service/timing\ATimingService.c **** /**
 155:C:/data/workspaces/github/de.protos.demos/src/HexagonCANDemo/etrice.HexagonCANDemo.demo/src-gen-st/room/basic/service/timing\ATimingService.c ****  * calls action, entry and exit codes along a transition chain. The generic data are cast to typed 
 156:C:/data/workspaces/github/de.protos.demos/src/HexagonCANDemo/etrice.HexagonCANDemo.demo/src-gen-st/room/basic/service/timing\ATimingService.c ****  * matching the trigger of this chain. The ID of the final state is returned
 157:C:/data/workspaces/github/de.protos.demos/src/HexagonCANDemo/etrice.HexagonCANDemo.demo/src-gen-st/room/basic/service/timing\ATimingService.c ****  * @param chain__et - the chain ID
 158:C:/data/workspaces/github/de.protos.demos/src/HexagonCANDemo/etrice.HexagonCANDemo.demo/src-gen-st/room/basic/service/timing\ATimingService.c ****  * @param generic_data__et - the generic data pointer
 159:C:/data/workspaces/github/de.protos.demos/src/HexagonCANDemo/etrice.HexagonCANDemo.demo/src-gen-st/room/basic/service/timing\ATimingService.c ****  * @return the +/- ID of the final state either with a positive sign, that indicates to execute the
 160:C:/data/workspaces/github/de.protos.demos/src/HexagonCANDemo/etrice.HexagonCANDemo.demo/src-gen-st/room/basic/service/timing\ATimingService.c ****  */
 161:C:/data/workspaces/github/de.protos.demos/src/HexagonCANDemo/etrice.HexagonCANDemo.demo/src-gen-st/room/basic/service/timing\ATimingService.c **** static etInt16 executeTransitionChain(ATimingService* self, int chain__et, const InterfaceItemBase*
 604              		.loc 1 161 0
 605              		.cfi_startproc
 606              		@ args = 0, pretend = 0, frame = 24
 607              		@ frame_needed = 1, uses_anonymous_args = 0
 608 0000 80B5     		push	{r7, lr}
 609              	.LCFI27:
 610              		.cfi_def_cfa_offset 8
 611              		.cfi_offset 7, -8
 612              		.cfi_offset 14, -4
 613 0002 86B0     		sub	sp, sp, #24
 614              	.LCFI28:
 615              		.cfi_def_cfa_offset 32
 616 0004 00AF     		add	r7, sp, #0
 617              	.LCFI29:
 618              		.cfi_def_cfa_register 7
 619 0006 F860     		str	r0, [r7, #12]
 620 0008 B960     		str	r1, [r7, #8]
 621 000a 7A60     		str	r2, [r7, #4]
 622 000c 3B60     		str	r3, [r7, #0]
 162:C:/data/workspaces/github/de.protos.demos/src/HexagonCANDemo/etrice.HexagonCANDemo.demo/src-gen-st/room/basic/service/timing\ATimingService.c **** 	switch (chain__et) {
 623              		.loc 1 162 0
 624 000e BB68     		ldr	r3, [r7, #8]
 625 0010 03F1FF33 		add	r3, r3, #-1
 626 0014 032B     		cmp	r3, #3
 627 0016 2ED8     		bhi	.L36
 628 0018 01A2     		adr	r2, .L33
 629 001a 52F823F0 		ldr	pc, [r2, r3, lsl #2]
 630 001e 00BF     		.align	2
 631              	.L33:
 632 0020 31000000 		.word	.L29+1
 633 0024 3D000000 		.word	.L30+1
 634 0028 53000000 		.word	.L31+1
 635 002c 69000000 		.word	.L32+1
 636              	.L29:
 163:C:/data/workspaces/github/de.protos.demos/src/HexagonCANDemo/etrice.HexagonCANDemo.demo/src-gen-st/room/basic/service/timing\ATimingService.c **** 		case CHAIN_TRANS_INITIAL_TO__Operational:
 164:C:/data/workspaces/github/de.protos.demos/src/HexagonCANDemo/etrice.HexagonCANDemo.demo/src-gen-st/room/basic/service/timing\ATimingService.c **** 		{
 165:C:/data/workspaces/github/de.protos.demos/src/HexagonCANDemo/etrice.HexagonCANDemo.demo/src-gen-st/room/basic/service/timing\ATimingService.c **** 			action_TRANS_INITIAL_TO__Operational(self);
 637              		.loc 1 165 0
 638 0030 F868     		ldr	r0, [r7, #12]
 639 0032 FFF7FEFF 		bl	action_TRANS_INITIAL_TO__Operational
 166:C:/data/workspaces/github/de.protos.demos/src/HexagonCANDemo/etrice.HexagonCANDemo.demo/src-gen-st/room/basic/service/timing\ATimingService.c **** 			return STATE_Operational;
 640              		.loc 1 166 0
 641 0036 4FF00203 		mov	r3, #2
 642 003a 1FE0     		b	.L34
 643              	.L30:
 644              	.LBB2:
 167:C:/data/workspaces/github/de.protos.demos/src/HexagonCANDemo/etrice.HexagonCANDemo.demo/src-gen-st/room/basic/service/timing\ATimingService.c **** 		}
 168:C:/data/workspaces/github/de.protos.demos/src/HexagonCANDemo/etrice.HexagonCANDemo.demo/src-gen-st/room/basic/service/timing\ATimingService.c **** 		case CHAIN_TRANS_tr1_FROM_Operational_TO_Operational_BY_startTimeouttimer_tr1:
 169:C:/data/workspaces/github/de.protos.demos/src/HexagonCANDemo/etrice.HexagonCANDemo.demo/src-gen-st/room/basic/service/timing\ATimingService.c **** 		{
 170:C:/data/workspaces/github/de.protos.demos/src/HexagonCANDemo/etrice.HexagonCANDemo.demo/src-gen-st/room/basic/service/timing\ATimingService.c **** 			uint32 time = *((uint32*) generic_data__et);
 645              		.loc 1 170 0
 646 003c 3B68     		ldr	r3, [r7, #0]
 647 003e 1B68     		ldr	r3, [r3, #0]
 648 0040 7B61     		str	r3, [r7, #20]
 171:C:/data/workspaces/github/de.protos.demos/src/HexagonCANDemo/etrice.HexagonCANDemo.demo/src-gen-st/room/basic/service/timing\ATimingService.c **** 			action_TRANS_tr1_FROM_Operational_TO_Operational_BY_startTimeouttimer_tr1(self, ifitem, time);
 649              		.loc 1 171 0
 650 0042 F868     		ldr	r0, [r7, #12]
 651 0044 7968     		ldr	r1, [r7, #4]
 652 0046 7A69     		ldr	r2, [r7, #20]
 653 0048 FFF7FEFF 		bl	action_TRANS_tr1_FROM_Operational_TO_Operational_BY_startTimeouttimer_tr1
 172:C:/data/workspaces/github/de.protos.demos/src/HexagonCANDemo/etrice.HexagonCANDemo.demo/src-gen-st/room/basic/service/timing\ATimingService.c **** 			return STATE_Operational;
 654              		.loc 1 172 0
 655 004c 4FF00203 		mov	r3, #2
 656 0050 14E0     		b	.L34
 657              	.L31:
 658              	.LBE2:
 659              	.LBB3:
 173:C:/data/workspaces/github/de.protos.demos/src/HexagonCANDemo/etrice.HexagonCANDemo.demo/src-gen-st/room/basic/service/timing\ATimingService.c **** 		}
 174:C:/data/workspaces/github/de.protos.demos/src/HexagonCANDemo/etrice.HexagonCANDemo.demo/src-gen-st/room/basic/service/timing\ATimingService.c **** 		case CHAIN_TRANS_tr3_FROM_Operational_TO_Operational_BY_startTimertimer_tr3:
 175:C:/data/workspaces/github/de.protos.demos/src/HexagonCANDemo/etrice.HexagonCANDemo.demo/src-gen-st/room/basic/service/timing\ATimingService.c **** 		{
 176:C:/data/workspaces/github/de.protos.demos/src/HexagonCANDemo/etrice.HexagonCANDemo.demo/src-gen-st/room/basic/service/timing\ATimingService.c **** 			uint32 time = *((uint32*) generic_data__et);
 660              		.loc 1 176 0
 661 0052 3B68     		ldr	r3, [r7, #0]
 662 0054 1B68     		ldr	r3, [r3, #0]
 663 0056 3B61     		str	r3, [r7, #16]
 177:C:/data/workspaces/github/de.protos.demos/src/HexagonCANDemo/etrice.HexagonCANDemo.demo/src-gen-st/room/basic/service/timing\ATimingService.c **** 			action_TRANS_tr3_FROM_Operational_TO_Operational_BY_startTimertimer_tr3(self, ifitem, time);
 664              		.loc 1 177 0
 665 0058 F868     		ldr	r0, [r7, #12]
 666 005a 7968     		ldr	r1, [r7, #4]
 667 005c 3A69     		ldr	r2, [r7, #16]
 668 005e FFF7FEFF 		bl	action_TRANS_tr3_FROM_Operational_TO_Operational_BY_startTimertimer_tr3
 178:C:/data/workspaces/github/de.protos.demos/src/HexagonCANDemo/etrice.HexagonCANDemo.demo/src-gen-st/room/basic/service/timing\ATimingService.c **** 			return STATE_Operational;
 669              		.loc 1 178 0
 670 0062 4FF00203 		mov	r3, #2
 671 0066 09E0     		b	.L34
 672              	.L32:
 673              	.LBE3:
 179:C:/data/workspaces/github/de.protos.demos/src/HexagonCANDemo/etrice.HexagonCANDemo.demo/src-gen-st/room/basic/service/timing\ATimingService.c **** 		}
 180:C:/data/workspaces/github/de.protos.demos/src/HexagonCANDemo/etrice.HexagonCANDemo.demo/src-gen-st/room/basic/service/timing\ATimingService.c **** 		case CHAIN_TRANS_tr4_FROM_Operational_TO_Operational_BY_killtimer_tr4:
 181:C:/data/workspaces/github/de.protos.demos/src/HexagonCANDemo/etrice.HexagonCANDemo.demo/src-gen-st/room/basic/service/timing\ATimingService.c **** 		{
 182:C:/data/workspaces/github/de.protos.demos/src/HexagonCANDemo/etrice.HexagonCANDemo.demo/src-gen-st/room/basic/service/timing\ATimingService.c **** 			action_TRANS_tr4_FROM_Operational_TO_Operational_BY_killtimer_tr4(self, ifitem);
 674              		.loc 1 182 0
 675 0068 F868     		ldr	r0, [r7, #12]
 676 006a 7968     		ldr	r1, [r7, #4]
 677 006c FFF7FEFF 		bl	action_TRANS_tr4_FROM_Operational_TO_Operational_BY_killtimer_tr4
 183:C:/data/workspaces/github/de.protos.demos/src/HexagonCANDemo/etrice.HexagonCANDemo.demo/src-gen-st/room/basic/service/timing\ATimingService.c **** 			return STATE_Operational;
 678              		.loc 1 183 0
 679 0070 4FF00203 		mov	r3, #2
 680 0074 02E0     		b	.L34
 681              	.L36:
 184:C:/data/workspaces/github/de.protos.demos/src/HexagonCANDemo/etrice.HexagonCANDemo.demo/src-gen-st/room/basic/service/timing\ATimingService.c **** 		}
 185:C:/data/workspaces/github/de.protos.demos/src/HexagonCANDemo/etrice.HexagonCANDemo.demo/src-gen-st/room/basic/service/timing\ATimingService.c **** 			default:
 186:C:/data/workspaces/github/de.protos.demos/src/HexagonCANDemo/etrice.HexagonCANDemo.demo/src-gen-st/room/basic/service/timing\ATimingService.c **** 				/* should not occur */
 187:C:/data/workspaces/github/de.protos.demos/src/HexagonCANDemo/etrice.HexagonCANDemo.demo/src-gen-st/room/basic/service/timing\ATimingService.c **** 				break;
 682              		.loc 1 187 0
 683 0076 00BF     		nop
 684              	.L35:
 188:C:/data/workspaces/github/de.protos.demos/src/HexagonCANDemo/etrice.HexagonCANDemo.demo/src-gen-st/room/basic/service/timing\ATimingService.c **** 	}
 189:C:/data/workspaces/github/de.protos.demos/src/HexagonCANDemo/etrice.HexagonCANDemo.demo/src-gen-st/room/basic/service/timing\ATimingService.c **** 	return NO_STATE;
 685              		.loc 1 189 0
 686 0078 4FF00003 		mov	r3, #0
 687              	.L34:
 688 007c 1BB2     		sxth	r3, r3
 190:C:/data/workspaces/github/de.protos.demos/src/HexagonCANDemo/etrice.HexagonCANDemo.demo/src-gen-st/room/basic/service/timing\ATimingService.c **** }
 689              		.loc 1 190 0
 690 007e 1846     		mov	r0, r3
 691 0080 07F11807 		add	r7, r7, #24
 692 0084 BD46     		mov	sp, r7
 693 0086 80BD     		pop	{r7, pc}
 694              		.cfi_endproc
 695              	.LFE9:
 697              		.section	.text.enterHistory,"ax",%progbits
 698              		.align	2
 699              		.thumb
 700              		.thumb_func
 702              	enterHistory:
 703              	.LFB10:
 191:C:/data/workspaces/github/de.protos.demos/src/HexagonCANDemo/etrice.HexagonCANDemo.demo/src-gen-st/room/basic/service/timing\ATimingService.c **** 
 192:C:/data/workspaces/github/de.protos.demos/src/HexagonCANDemo/etrice.HexagonCANDemo.demo/src-gen-st/room/basic/service/timing\ATimingService.c **** /**
 193:C:/data/workspaces/github/de.protos.demos/src/HexagonCANDemo/etrice.HexagonCANDemo.demo/src-gen-st/room/basic/service/timing\ATimingService.c ****  * calls entry codes while entering a state's history. The ID of the final leaf state is returned
 194:C:/data/workspaces/github/de.protos.demos/src/HexagonCANDemo/etrice.HexagonCANDemo.demo/src-gen-st/room/basic/service/timing\ATimingService.c ****  * @param state__et - the state which is entered
 195:C:/data/workspaces/github/de.protos.demos/src/HexagonCANDemo/etrice.HexagonCANDemo.demo/src-gen-st/room/basic/service/timing\ATimingService.c ****  * @return - the ID of the final leaf state
 196:C:/data/workspaces/github/de.protos.demos/src/HexagonCANDemo/etrice.HexagonCANDemo.demo/src-gen-st/room/basic/service/timing\ATimingService.c ****  */
 197:C:/data/workspaces/github/de.protos.demos/src/HexagonCANDemo/etrice.HexagonCANDemo.demo/src-gen-st/room/basic/service/timing\ATimingService.c **** static etInt16 enterHistory(ATimingService* self, etInt16 state__et) {
 704              		.loc 1 197 0
 705              		.cfi_startproc
 706              		@ args = 0, pretend = 0, frame = 16
 707              		@ frame_needed = 1, uses_anonymous_args = 0
 708 0000 80B5     		push	{r7, lr}
 709              	.LCFI30:
 710              		.cfi_def_cfa_offset 8
 711              		.cfi_offset 7, -8
 712              		.cfi_offset 14, -4
 713 0002 84B0     		sub	sp, sp, #16
 714              	.LCFI31:
 715              		.cfi_def_cfa_offset 24
 716 0004 00AF     		add	r7, sp, #0
 717              	.LCFI32:
 718              		.cfi_def_cfa_register 7
 719 0006 7860     		str	r0, [r7, #4]
 720 0008 0B46     		mov	r3, r1
 721 000a 7B80     		strh	r3, [r7, #2]	@ movhi
 198:C:/data/workspaces/github/de.protos.demos/src/HexagonCANDemo/etrice.HexagonCANDemo.demo/src-gen-st/room/basic/service/timing\ATimingService.c **** 	boolean skip_entry__et = ET_FALSE;
 722              		.loc 1 198 0
 723 000c 4FF00003 		mov	r3, #0
 724 0010 FB73     		strb	r3, [r7, #15]
 199:C:/data/workspaces/github/de.protos.demos/src/HexagonCANDemo/etrice.HexagonCANDemo.demo/src-gen-st/room/basic/service/timing\ATimingService.c **** 	if (state__et >= STATE_MAX) {
 725              		.loc 1 199 0
 726 0012 B7F90230 		ldrsh	r3, [r7, #2]
 727 0016 022B     		cmp	r3, #2
 728 0018 07DD     		ble	.L38
 200:C:/data/workspaces/github/de.protos.demos/src/HexagonCANDemo/etrice.HexagonCANDemo.demo/src-gen-st/room/basic/service/timing\ATimingService.c **** 		state__et = (etInt16) (state__et - STATE_MAX);
 729              		.loc 1 200 0
 730 001a 7B88     		ldrh	r3, [r7, #2]
 731 001c A3F10303 		sub	r3, r3, #3
 732 0020 9BB2     		uxth	r3, r3
 733 0022 7B80     		strh	r3, [r7, #2]	@ movhi
 201:C:/data/workspaces/github/de.protos.demos/src/HexagonCANDemo/etrice.HexagonCANDemo.demo/src-gen-st/room/basic/service/timing\ATimingService.c **** 		skip_entry__et = ET_TRUE;
 734              		.loc 1 201 0
 735 0024 4FF00103 		mov	r3, #1
 736 0028 FB73     		strb	r3, [r7, #15]
 737              	.L38:
 202:C:/data/workspaces/github/de.protos.demos/src/HexagonCANDemo/etrice.HexagonCANDemo.demo/src-gen-st/room/basic/service/timing\ATimingService.c **** 	}
 203:C:/data/workspaces/github/de.protos.demos/src/HexagonCANDemo/etrice.HexagonCANDemo.demo/src-gen-st/room/basic/service/timing\ATimingService.c **** 	while (ET_TRUE) {
 204:C:/data/workspaces/github/de.protos.demos/src/HexagonCANDemo/etrice.HexagonCANDemo.demo/src-gen-st/room/basic/service/timing\ATimingService.c **** 		switch (state__et) {
 738              		.loc 1 204 0
 739 002a B7F90230 		ldrsh	r3, [r7, #2]
 740 002e 012B     		cmp	r3, #1
 741 0030 0BD0     		beq	.L40
 742 0032 022B     		cmp	r3, #2
 743 0034 0DD1     		bne	.L45
 744              	.L41:
 205:C:/data/workspaces/github/de.protos.demos/src/HexagonCANDemo/etrice.HexagonCANDemo.demo/src-gen-st/room/basic/service/timing\ATimingService.c **** 			case STATE_Operational:
 206:C:/data/workspaces/github/de.protos.demos/src/HexagonCANDemo/etrice.HexagonCANDemo.demo/src-gen-st/room/basic/service/timing\ATimingService.c **** 				if (!(skip_entry__et)) entry_Operational(self);
 745              		.loc 1 206 0
 746 0036 FB7B     		ldrb	r3, [r7, #15]	@ zero_extendqisi2
 747 0038 002B     		cmp	r3, #0
 748 003a 02D1     		bne	.L42
 749              		.loc 1 206 0 is_stmt 0 discriminator 1
 750 003c 7868     		ldr	r0, [r7, #4]
 751 003e FFF7FEFF 		bl	entry_Operational
 752              	.L42:
 207:C:/data/workspaces/github/de.protos.demos/src/HexagonCANDemo/etrice.HexagonCANDemo.demo/src-gen-st/room/basic/service/timing\ATimingService.c **** 				/* in leaf state: return state id */
 208:C:/data/workspaces/github/de.protos.demos/src/HexagonCANDemo/etrice.HexagonCANDemo.demo/src-gen-st/room/basic/service/timing\ATimingService.c **** 				return STATE_Operational;
 753              		.loc 1 208 0 is_stmt 1
 754 0042 4FF00203 		mov	r3, #2
 755 0046 1BB2     		sxth	r3, r3
 756 0048 08E0     		b	.L46
 757              	.L40:
 209:C:/data/workspaces/github/de.protos.demos/src/HexagonCANDemo/etrice.HexagonCANDemo.demo/src-gen-st/room/basic/service/timing\ATimingService.c **** 			case STATE_TOP:
 210:C:/data/workspaces/github/de.protos.demos/src/HexagonCANDemo/etrice.HexagonCANDemo.demo/src-gen-st/room/basic/service/timing\ATimingService.c **** 				state__et = self->history[STATE_TOP];
 758              		.loc 1 210 0
 759 004a 7B68     		ldr	r3, [r7, #4]
 760 004c 1B89     		ldrh	r3, [r3, #8]	@ movhi
 761 004e 7B80     		strh	r3, [r7, #2]	@ movhi
 211:C:/data/workspaces/github/de.protos.demos/src/HexagonCANDemo/etrice.HexagonCANDemo.demo/src-gen-st/room/basic/service/timing\ATimingService.c **** 				break;
 762              		.loc 1 211 0
 763 0050 00E0     		b	.L44
 764              	.L45:
 212:C:/data/workspaces/github/de.protos.demos/src/HexagonCANDemo/etrice.HexagonCANDemo.demo/src-gen-st/room/basic/service/timing\ATimingService.c **** 			default:
 213:C:/data/workspaces/github/de.protos.demos/src/HexagonCANDemo/etrice.HexagonCANDemo.demo/src-gen-st/room/basic/service/timing\ATimingService.c **** 				/* should not occur */
 214:C:/data/workspaces/github/de.protos.demos/src/HexagonCANDemo/etrice.HexagonCANDemo.demo/src-gen-st/room/basic/service/timing\ATimingService.c **** 				break;
 765              		.loc 1 214 0
 766 0052 00BF     		nop
 767              	.L44:
 215:C:/data/workspaces/github/de.protos.demos/src/HexagonCANDemo/etrice.HexagonCANDemo.demo/src-gen-st/room/basic/service/timing\ATimingService.c **** 		}
 216:C:/data/workspaces/github/de.protos.demos/src/HexagonCANDemo/etrice.HexagonCANDemo.demo/src-gen-st/room/basic/service/timing\ATimingService.c **** 		skip_entry__et = ET_FALSE;
 768              		.loc 1 216 0
 769 0054 4FF00003 		mov	r3, #0
 770 0058 FB73     		strb	r3, [r7, #15]
 217:C:/data/workspaces/github/de.protos.demos/src/HexagonCANDemo/etrice.HexagonCANDemo.demo/src-gen-st/room/basic/service/timing\ATimingService.c **** 	}
 771              		.loc 1 217 0
 772 005a E6E7     		b	.L38
 773              	.L46:
 218:C:/data/workspaces/github/de.protos.demos/src/HexagonCANDemo/etrice.HexagonCANDemo.demo/src-gen-st/room/basic/service/timing\ATimingService.c **** 	/* return NO_STATE; // required by CDT but detected as unreachable by JDT because of while (true) 
 219:C:/data/workspaces/github/de.protos.demos/src/HexagonCANDemo/etrice.HexagonCANDemo.demo/src-gen-st/room/basic/service/timing\ATimingService.c **** }
 774              		.loc 1 219 0
 775 005c 1846     		mov	r0, r3
 776 005e 07F11007 		add	r7, r7, #16
 777 0062 BD46     		mov	sp, r7
 778 0064 80BD     		pop	{r7, pc}
 779              		.cfi_endproc
 780              	.LFE10:
 782 0066 00BF     		.section	.text.ATimingService_executeInitTransition,"ax",%progbits
 783              		.align	2
 784              		.thumb
 785              		.thumb_func
 787              	ATimingService_executeInitTransition:
 788              	.LFB11:
 220:C:/data/workspaces/github/de.protos.demos/src/HexagonCANDemo/etrice.HexagonCANDemo.demo/src-gen-st/room/basic/service/timing\ATimingService.c **** 
 221:C:/data/workspaces/github/de.protos.demos/src/HexagonCANDemo/etrice.HexagonCANDemo.demo/src-gen-st/room/basic/service/timing\ATimingService.c **** static void ATimingService_executeInitTransition(ATimingService* self) {
 789              		.loc 1 221 0
 790              		.cfi_startproc
 791              		@ args = 0, pretend = 0, frame = 16
 792              		@ frame_needed = 1, uses_anonymous_args = 0
 793 0000 80B5     		push	{r7, lr}
 794              	.LCFI33:
 795              		.cfi_def_cfa_offset 8
 796              		.cfi_offset 7, -8
 797              		.cfi_offset 14, -4
 798 0002 84B0     		sub	sp, sp, #16
 799              	.LCFI34:
 800              		.cfi_def_cfa_offset 24
 801 0004 00AF     		add	r7, sp, #0
 802              	.LCFI35:
 803              		.cfi_def_cfa_register 7
 804 0006 7860     		str	r0, [r7, #4]
 222:C:/data/workspaces/github/de.protos.demos/src/HexagonCANDemo/etrice.HexagonCANDemo.demo/src-gen-st/room/basic/service/timing\ATimingService.c **** 	int chain__et = CHAIN_TRANS_INITIAL_TO__Operational;
 805              		.loc 1 222 0
 806 0008 4FF00103 		mov	r3, #1
 807 000c FB60     		str	r3, [r7, #12]
 223:C:/data/workspaces/github/de.protos.demos/src/HexagonCANDemo/etrice.HexagonCANDemo.demo/src-gen-st/room/basic/service/timing\ATimingService.c **** 	etInt16 next__et = executeTransitionChain(self, chain__et, NULL, NULL);
 808              		.loc 1 223 0
 809 000e 7868     		ldr	r0, [r7, #4]
 810 0010 F968     		ldr	r1, [r7, #12]
 811 0012 4FF00002 		mov	r2, #0
 812 0016 4FF00003 		mov	r3, #0
 813 001a FFF7FEFF 		bl	executeTransitionChain
 814 001e 0346     		mov	r3, r0
 815 0020 7B81     		strh	r3, [r7, #10]	@ movhi
 224:C:/data/workspaces/github/de.protos.demos/src/HexagonCANDemo/etrice.HexagonCANDemo.demo/src-gen-st/room/basic/service/timing\ATimingService.c **** 	next__et = enterHistory(self, next__et);
 816              		.loc 1 224 0
 817 0022 B7F90A30 		ldrsh	r3, [r7, #10]
 818 0026 7868     		ldr	r0, [r7, #4]
 819 0028 1946     		mov	r1, r3
 820 002a FFF7FEFF 		bl	enterHistory
 821 002e 0346     		mov	r3, r0
 822 0030 7B81     		strh	r3, [r7, #10]	@ movhi
 225:C:/data/workspaces/github/de.protos.demos/src/HexagonCANDemo/etrice.HexagonCANDemo.demo/src-gen-st/room/basic/service/timing\ATimingService.c **** 	setState(self, next__et);
 823              		.loc 1 225 0
 824 0032 B7F90A30 		ldrsh	r3, [r7, #10]
 825 0036 7868     		ldr	r0, [r7, #4]
 826 0038 1946     		mov	r1, r3
 827 003a FFF7FEFF 		bl	setState
 226:C:/data/workspaces/github/de.protos.demos/src/HexagonCANDemo/etrice.HexagonCANDemo.demo/src-gen-st/room/basic/service/timing\ATimingService.c **** }
 828              		.loc 1 226 0
 829 003e 07F11007 		add	r7, r7, #16
 830 0042 BD46     		mov	sp, r7
 831 0044 80BD     		pop	{r7, pc}
 832              		.cfi_endproc
 833              	.LFE11:
 835 0046 00BF     		.section	.text.ATimingService_receiveEvent,"ax",%progbits
 836              		.align	2
 837              		.thumb
 838              		.thumb_func
 840              	ATimingService_receiveEvent:
 841              	.LFB12:
 227:C:/data/workspaces/github/de.protos.demos/src/HexagonCANDemo/etrice.HexagonCANDemo.demo/src-gen-st/room/basic/service/timing\ATimingService.c **** 
 228:C:/data/workspaces/github/de.protos.demos/src/HexagonCANDemo/etrice.HexagonCANDemo.demo/src-gen-st/room/basic/service/timing\ATimingService.c **** /* receiveEvent contains the main implementation of the FSM */
 229:C:/data/workspaces/github/de.protos.demos/src/HexagonCANDemo/etrice.HexagonCANDemo.demo/src-gen-st/room/basic/service/timing\ATimingService.c **** static void ATimingService_receiveEvent(ATimingService* self, InterfaceItemBase* ifitem, int evt, v
 842              		.loc 1 229 0
 843              		.cfi_startproc
 844              		@ args = 0, pretend = 0, frame = 32
 845              		@ frame_needed = 1, uses_anonymous_args = 0
 846 0000 80B5     		push	{r7, lr}
 847              	.LCFI36:
 848              		.cfi_def_cfa_offset 8
 849              		.cfi_offset 7, -8
 850              		.cfi_offset 14, -4
 851 0002 88B0     		sub	sp, sp, #32
 852              	.LCFI37:
 853              		.cfi_def_cfa_offset 40
 854 0004 00AF     		add	r7, sp, #0
 855              	.LCFI38:
 856              		.cfi_def_cfa_register 7
 857 0006 F860     		str	r0, [r7, #12]
 858 0008 B960     		str	r1, [r7, #8]
 859 000a 7A60     		str	r2, [r7, #4]
 860 000c 3B60     		str	r3, [r7, #0]
 230:C:/data/workspaces/github/de.protos.demos/src/HexagonCANDemo/etrice.HexagonCANDemo.demo/src-gen-st/room/basic/service/timing\ATimingService.c **** 	int trigger__et = (ifitem==NULL)? POLLING : ifitem->localId + EVT_SHIFT*evt;
 861              		.loc 1 230 0
 862 000e BB68     		ldr	r3, [r7, #8]
 863 0010 002B     		cmp	r3, #0
 864 0012 09D0     		beq	.L49
 865              		.loc 1 230 0 is_stmt 0 discriminator 1
 866 0014 BB68     		ldr	r3, [r7, #8]
 867 0016 5B7A     		ldrb	r3, [r3, #9]	@ zero_extendqisi2
 868 0018 1A46     		mov	r2, r3
 869 001a 7B68     		ldr	r3, [r7, #4]
 870 001c 4FF06401 		mov	r1, #100
 871 0020 01FB03F3 		mul	r3, r1, r3
 872 0024 D318     		adds	r3, r2, r3
 873 0026 01E0     		b	.L50
 874              	.L49:
 875              		.loc 1 230 0 discriminator 2
 876 0028 4FF00003 		mov	r3, #0
 877              	.L50:
 878              		.loc 1 230 0 discriminator 3
 879 002c 7B61     		str	r3, [r7, #20]
 231:C:/data/workspaces/github/de.protos.demos/src/HexagonCANDemo/etrice.HexagonCANDemo.demo/src-gen-st/room/basic/service/timing\ATimingService.c **** 	int chain__et = NOT_CAUGHT;
 880              		.loc 1 231 0 is_stmt 1 discriminator 3
 881 002e 4FF00003 		mov	r3, #0
 882 0032 FB61     		str	r3, [r7, #28]
 232:C:/data/workspaces/github/de.protos.demos/src/HexagonCANDemo/etrice.HexagonCANDemo.demo/src-gen-st/room/basic/service/timing\ATimingService.c **** 	etInt16 catching_state__et = NO_STATE;
 883              		.loc 1 232 0 discriminator 3
 884 0034 4FF00003 		mov	r3, #0
 885 0038 7B83     		strh	r3, [r7, #26]	@ movhi
 233:C:/data/workspaces/github/de.protos.demos/src/HexagonCANDemo/etrice.HexagonCANDemo.demo/src-gen-st/room/basic/service/timing\ATimingService.c **** 	((void)trigger__et);	/* avoids unused warning */
 234:C:/data/workspaces/github/de.protos.demos/src/HexagonCANDemo/etrice.HexagonCANDemo.demo/src-gen-st/room/basic/service/timing\ATimingService.c **** 	
 235:C:/data/workspaces/github/de.protos.demos/src/HexagonCANDemo/etrice.HexagonCANDemo.demo/src-gen-st/room/basic/service/timing\ATimingService.c **** 	if (!handleSystemEvent(ifitem, evt, generic_data__et)) {
 886              		.loc 1 235 0 discriminator 3
 887 003a B868     		ldr	r0, [r7, #8]
 888 003c 7968     		ldr	r1, [r7, #4]
 889 003e 3A68     		ldr	r2, [r7, #0]
 890 0040 FFF7FEFF 		bl	handleSystemEvent
 891 0044 0346     		mov	r3, r0
 892 0046 002B     		cmp	r3, #0
 893 0048 32D1     		bne	.L51
 236:C:/data/workspaces/github/de.protos.demos/src/HexagonCANDemo/etrice.HexagonCANDemo.demo/src-gen-st/room/basic/service/timing\ATimingService.c **** 		switch (getState(self)) {
 894              		.loc 1 236 0
 895 004a F868     		ldr	r0, [r7, #12]
 896 004c FFF7FEFF 		bl	getState
 897 0050 0346     		mov	r3, r0
 898 0052 022B     		cmp	r3, #2
 899 0054 2BD1     		bne	.L62
 900              	.L53:
 237:C:/data/workspaces/github/de.protos.demos/src/HexagonCANDemo/etrice.HexagonCANDemo.demo/src-gen-st/room/basic/service/timing\ATimingService.c **** 			case STATE_Operational:
 238:C:/data/workspaces/github/de.protos.demos/src/HexagonCANDemo/etrice.HexagonCANDemo.demo/src-gen-st/room/basic/service/timing\ATimingService.c **** 				switch(trigger__et) {
 901              		.loc 1 238 0
 902 0056 7B69     		ldr	r3, [r7, #20]
 903 0058 C92B     		cmp	r3, #201
 904 005a 18D0     		beq	.L56
 905 005c C92B     		cmp	r3, #201
 906 005e 02DC     		bgt	.L59
 907 0060 002B     		cmp	r3, #0
 908 0062 09D0     		beq	.L55
 909 0064 21E0     		b	.L54
 910              	.L59:
 911 0066 40F22D12 		movw	r2, #301
 912 006a 9342     		cmp	r3, r2
 913 006c 08D0     		beq	.L57
 914 006e 40F29112 		movw	r2, #401
 915 0072 9342     		cmp	r3, r2
 916 0074 12D0     		beq	.L58
 917 0076 18E0     		b	.L54
 918              	.L55:
 239:C:/data/workspaces/github/de.protos.demos/src/HexagonCANDemo/etrice.HexagonCANDemo.demo/src-gen-st/room/basic/service/timing\ATimingService.c **** 					case POLLING:
 240:C:/data/workspaces/github/de.protos.demos/src/HexagonCANDemo/etrice.HexagonCANDemo.demo/src-gen-st/room/basic/service/timing\ATimingService.c **** 						do_Operational(self);
 919              		.loc 1 240 0
 920 0078 F868     		ldr	r0, [r7, #12]
 921 007a FFF7FEFF 		bl	do_Operational
 241:C:/data/workspaces/github/de.protos.demos/src/HexagonCANDemo/etrice.HexagonCANDemo.demo/src-gen-st/room/basic/service/timing\ATimingService.c **** 						break;
 922              		.loc 1 241 0
 923 007e 15E0     		b	.L60
 924              	.L57:
 242:C:/data/workspaces/github/de.protos.demos/src/HexagonCANDemo/etrice.HexagonCANDemo.demo/src-gen-st/room/basic/service/timing\ATimingService.c **** 					case TRIG_timer__startTimeout:
 243:C:/data/workspaces/github/de.protos.demos/src/HexagonCANDemo/etrice.HexagonCANDemo.demo/src-gen-st/room/basic/service/timing\ATimingService.c **** 						{
 244:C:/data/workspaces/github/de.protos.demos/src/HexagonCANDemo/etrice.HexagonCANDemo.demo/src-gen-st/room/basic/service/timing\ATimingService.c **** 							chain__et = CHAIN_TRANS_tr1_FROM_Operational_TO_Operational_BY_startTimeouttimer_tr1;
 925              		.loc 1 244 0
 926 0080 4FF00203 		mov	r3, #2
 927 0084 FB61     		str	r3, [r7, #28]
 245:C:/data/workspaces/github/de.protos.demos/src/HexagonCANDemo/etrice.HexagonCANDemo.demo/src-gen-st/room/basic/service/timing\ATimingService.c **** 							catching_state__et = STATE_TOP;
 928              		.loc 1 245 0
 929 0086 4FF00103 		mov	r3, #1
 930 008a 7B83     		strh	r3, [r7, #26]	@ movhi
 246:C:/data/workspaces/github/de.protos.demos/src/HexagonCANDemo/etrice.HexagonCANDemo.demo/src-gen-st/room/basic/service/timing\ATimingService.c **** 						}
 247:C:/data/workspaces/github/de.protos.demos/src/HexagonCANDemo/etrice.HexagonCANDemo.demo/src-gen-st/room/basic/service/timing\ATimingService.c **** 					break;
 931              		.loc 1 247 0
 932 008c 0EE0     		b	.L60
 933              	.L56:
 248:C:/data/workspaces/github/de.protos.demos/src/HexagonCANDemo/etrice.HexagonCANDemo.demo/src-gen-st/room/basic/service/timing\ATimingService.c **** 					case TRIG_timer__startTimer:
 249:C:/data/workspaces/github/de.protos.demos/src/HexagonCANDemo/etrice.HexagonCANDemo.demo/src-gen-st/room/basic/service/timing\ATimingService.c **** 						{
 250:C:/data/workspaces/github/de.protos.demos/src/HexagonCANDemo/etrice.HexagonCANDemo.demo/src-gen-st/room/basic/service/timing\ATimingService.c **** 							chain__et = CHAIN_TRANS_tr3_FROM_Operational_TO_Operational_BY_startTimertimer_tr3;
 934              		.loc 1 250 0
 935 008e 4FF00303 		mov	r3, #3
 936 0092 FB61     		str	r3, [r7, #28]
 251:C:/data/workspaces/github/de.protos.demos/src/HexagonCANDemo/etrice.HexagonCANDemo.demo/src-gen-st/room/basic/service/timing\ATimingService.c **** 							catching_state__et = STATE_TOP;
 937              		.loc 1 251 0
 938 0094 4FF00103 		mov	r3, #1
 939 0098 7B83     		strh	r3, [r7, #26]	@ movhi
 252:C:/data/workspaces/github/de.protos.demos/src/HexagonCANDemo/etrice.HexagonCANDemo.demo/src-gen-st/room/basic/service/timing\ATimingService.c **** 						}
 253:C:/data/workspaces/github/de.protos.demos/src/HexagonCANDemo/etrice.HexagonCANDemo.demo/src-gen-st/room/basic/service/timing\ATimingService.c **** 					break;
 940              		.loc 1 253 0
 941 009a 07E0     		b	.L60
 942              	.L58:
 254:C:/data/workspaces/github/de.protos.demos/src/HexagonCANDemo/etrice.HexagonCANDemo.demo/src-gen-st/room/basic/service/timing\ATimingService.c **** 					case TRIG_timer__kill:
 255:C:/data/workspaces/github/de.protos.demos/src/HexagonCANDemo/etrice.HexagonCANDemo.demo/src-gen-st/room/basic/service/timing\ATimingService.c **** 						{
 256:C:/data/workspaces/github/de.protos.demos/src/HexagonCANDemo/etrice.HexagonCANDemo.demo/src-gen-st/room/basic/service/timing\ATimingService.c **** 							chain__et = CHAIN_TRANS_tr4_FROM_Operational_TO_Operational_BY_killtimer_tr4;
 943              		.loc 1 256 0
 944 009c 4FF00403 		mov	r3, #4
 945 00a0 FB61     		str	r3, [r7, #28]
 257:C:/data/workspaces/github/de.protos.demos/src/HexagonCANDemo/etrice.HexagonCANDemo.demo/src-gen-st/room/basic/service/timing\ATimingService.c **** 							catching_state__et = STATE_TOP;
 946              		.loc 1 257 0
 947 00a2 4FF00103 		mov	r3, #1
 948 00a6 7B83     		strh	r3, [r7, #26]	@ movhi
 258:C:/data/workspaces/github/de.protos.demos/src/HexagonCANDemo/etrice.HexagonCANDemo.demo/src-gen-st/room/basic/service/timing\ATimingService.c **** 						}
 259:C:/data/workspaces/github/de.protos.demos/src/HexagonCANDemo/etrice.HexagonCANDemo.demo/src-gen-st/room/basic/service/timing\ATimingService.c **** 					break;
 949              		.loc 1 259 0
 950 00a8 00E0     		b	.L60
 951              	.L54:
 260:C:/data/workspaces/github/de.protos.demos/src/HexagonCANDemo/etrice.HexagonCANDemo.demo/src-gen-st/room/basic/service/timing\ATimingService.c **** 					default:
 261:C:/data/workspaces/github/de.protos.demos/src/HexagonCANDemo/etrice.HexagonCANDemo.demo/src-gen-st/room/basic/service/timing\ATimingService.c **** 						/* should not occur */
 262:C:/data/workspaces/github/de.protos.demos/src/HexagonCANDemo/etrice.HexagonCANDemo.demo/src-gen-st/room/basic/service/timing\ATimingService.c **** 						break;
 952              		.loc 1 262 0
 953 00aa 00BF     		nop
 954              	.L60:
 263:C:/data/workspaces/github/de.protos.demos/src/HexagonCANDemo/etrice.HexagonCANDemo.demo/src-gen-st/room/basic/service/timing\ATimingService.c **** 				}
 264:C:/data/workspaces/github/de.protos.demos/src/HexagonCANDemo/etrice.HexagonCANDemo.demo/src-gen-st/room/basic/service/timing\ATimingService.c **** 				break;
 955              		.loc 1 264 0
 956 00ac 00E0     		b	.L51
 957              	.L62:
 265:C:/data/workspaces/github/de.protos.demos/src/HexagonCANDemo/etrice.HexagonCANDemo.demo/src-gen-st/room/basic/service/timing\ATimingService.c **** 			default:
 266:C:/data/workspaces/github/de.protos.demos/src/HexagonCANDemo/etrice.HexagonCANDemo.demo/src-gen-st/room/basic/service/timing\ATimingService.c **** 				/* should not occur */
 267:C:/data/workspaces/github/de.protos.demos/src/HexagonCANDemo/etrice.HexagonCANDemo.demo/src-gen-st/room/basic/service/timing\ATimingService.c **** 				break;
 958              		.loc 1 267 0
 959 00ae 00BF     		nop
 960              	.L51:
 268:C:/data/workspaces/github/de.protos.demos/src/HexagonCANDemo/etrice.HexagonCANDemo.demo/src-gen-st/room/basic/service/timing\ATimingService.c **** 		}
 269:C:/data/workspaces/github/de.protos.demos/src/HexagonCANDemo/etrice.HexagonCANDemo.demo/src-gen-st/room/basic/service/timing\ATimingService.c **** 	}
 270:C:/data/workspaces/github/de.protos.demos/src/HexagonCANDemo/etrice.HexagonCANDemo.demo/src-gen-st/room/basic/service/timing\ATimingService.c **** 	if (chain__et != NOT_CAUGHT) {
 961              		.loc 1 270 0
 962 00b0 FB69     		ldr	r3, [r7, #28]
 963 00b2 002B     		cmp	r3, #0
 964 00b4 21D0     		beq	.L48
 271:C:/data/workspaces/github/de.protos.demos/src/HexagonCANDemo/etrice.HexagonCANDemo.demo/src-gen-st/room/basic/service/timing\ATimingService.c **** 		exitTo(self, getState(self), catching_state__et);
 965              		.loc 1 271 0
 966 00b6 F868     		ldr	r0, [r7, #12]
 967 00b8 FFF7FEFF 		bl	getState
 968 00bc 0346     		mov	r3, r0
 969 00be 1A46     		mov	r2, r3
 970 00c0 B7F91A30 		ldrsh	r3, [r7, #26]
 971 00c4 F868     		ldr	r0, [r7, #12]
 972 00c6 1146     		mov	r1, r2
 973 00c8 1A46     		mov	r2, r3
 974 00ca FFF7FEFF 		bl	exitTo
 975              	.LBB4:
 272:C:/data/workspaces/github/de.protos.demos/src/HexagonCANDemo/etrice.HexagonCANDemo.demo/src-gen-st/room/basic/service/timing\ATimingService.c **** 		{
 273:C:/data/workspaces/github/de.protos.demos/src/HexagonCANDemo/etrice.HexagonCANDemo.demo/src-gen-st/room/basic/service/timing\ATimingService.c **** 			etInt16 next__et = executeTransitionChain(self, chain__et, ifitem, generic_data__et);
 976              		.loc 1 273 0
 977 00ce F868     		ldr	r0, [r7, #12]
 978 00d0 F969     		ldr	r1, [r7, #28]
 979 00d2 BA68     		ldr	r2, [r7, #8]
 980 00d4 3B68     		ldr	r3, [r7, #0]
 981 00d6 FFF7FEFF 		bl	executeTransitionChain
 982 00da 0346     		mov	r3, r0
 983 00dc 7B82     		strh	r3, [r7, #18]	@ movhi
 274:C:/data/workspaces/github/de.protos.demos/src/HexagonCANDemo/etrice.HexagonCANDemo.demo/src-gen-st/room/basic/service/timing\ATimingService.c **** 			next__et = enterHistory(self, next__et);
 984              		.loc 1 274 0
 985 00de B7F91230 		ldrsh	r3, [r7, #18]
 986 00e2 F868     		ldr	r0, [r7, #12]
 987 00e4 1946     		mov	r1, r3
 988 00e6 FFF7FEFF 		bl	enterHistory
 989 00ea 0346     		mov	r3, r0
 990 00ec 7B82     		strh	r3, [r7, #18]	@ movhi
 275:C:/data/workspaces/github/de.protos.demos/src/HexagonCANDemo/etrice.HexagonCANDemo.demo/src-gen-st/room/basic/service/timing\ATimingService.c **** 			setState(self, next__et);
 991              		.loc 1 275 0
 992 00ee B7F91230 		ldrsh	r3, [r7, #18]
 993 00f2 F868     		ldr	r0, [r7, #12]
 994 00f4 1946     		mov	r1, r3
 995 00f6 FFF7FEFF 		bl	setState
 996              	.L48:
 997              	.LBE4:
 276:C:/data/workspaces/github/de.protos.demos/src/HexagonCANDemo/etrice.HexagonCANDemo.demo/src-gen-st/room/basic/service/timing\ATimingService.c **** 		}
 277:C:/data/workspaces/github/de.protos.demos/src/HexagonCANDemo/etrice.HexagonCANDemo.demo/src-gen-st/room/basic/service/timing\ATimingService.c **** 	}
 278:C:/data/workspaces/github/de.protos.demos/src/HexagonCANDemo/etrice.HexagonCANDemo.demo/src-gen-st/room/basic/service/timing\ATimingService.c **** }
 998              		.loc 1 278 0
 999 00fa 07F12007 		add	r7, r7, #32
 1000 00fe BD46     		mov	sp, r7
 1001 0100 80BD     		pop	{r7, pc}
 1002              		.cfi_endproc
 1003              	.LFE12:
 1005 0102 00BF     		.section	.text.ATimingService_init,"ax",%progbits
 1006              		.align	2
 1007              		.global	ATimingService_init
 1008              		.thumb
 1009              		.thumb_func
 1011              	ATimingService_init:
 1012              	.LFB13:
 279:C:/data/workspaces/github/de.protos.demos/src/HexagonCANDemo/etrice.HexagonCANDemo.demo/src-gen-st/room/basic/service/timing\ATimingService.c **** 
 280:C:/data/workspaces/github/de.protos.demos/src/HexagonCANDemo/etrice.HexagonCANDemo.demo/src-gen-st/room/basic/service/timing\ATimingService.c **** void ATimingService_init(ATimingService* self){
 1013              		.loc 1 280 0
 1014              		.cfi_startproc
 1015              		@ args = 0, pretend = 0, frame = 16
 1016              		@ frame_needed = 1, uses_anonymous_args = 0
 1017 0000 80B5     		push	{r7, lr}
 1018              	.LCFI39:
 1019              		.cfi_def_cfa_offset 8
 1020              		.cfi_offset 7, -8
 1021              		.cfi_offset 14, -4
 1022 0002 84B0     		sub	sp, sp, #16
 1023              	.LCFI40:
 1024              		.cfi_def_cfa_offset 24
 1025 0004 00AF     		add	r7, sp, #0
 1026              	.LCFI41:
 1027              		.cfi_def_cfa_register 7
 1028 0006 7860     		str	r0, [r7, #4]
 281:C:/data/workspaces/github/de.protos.demos/src/HexagonCANDemo/etrice.HexagonCANDemo.demo/src-gen-st/room/basic/service/timing\ATimingService.c **** 	ET_MSC_LOGGER_SYNC_ENTRY("ATimingService", "init")
 282:C:/data/workspaces/github/de.protos.demos/src/HexagonCANDemo/etrice.HexagonCANDemo.demo/src-gen-st/room/basic/service/timing\ATimingService.c **** 	self->state = STATE_TOP;
 1029              		.loc 1 282 0
 1030 0008 7B68     		ldr	r3, [r7, #4]
 1031 000a 4FF00102 		mov	r2, #1
 1032 000e 9A80     		strh	r2, [r3, #4]	@ movhi
 1033              	.LBB5:
 283:C:/data/workspaces/github/de.protos.demos/src/HexagonCANDemo/etrice.HexagonCANDemo.demo/src-gen-st/room/basic/service/timing\ATimingService.c **** 	{
 284:C:/data/workspaces/github/de.protos.demos/src/HexagonCANDemo/etrice.HexagonCANDemo.demo/src-gen-st/room/basic/service/timing\ATimingService.c **** 		int i;
 285:C:/data/workspaces/github/de.protos.demos/src/HexagonCANDemo/etrice.HexagonCANDemo.demo/src-gen-st/room/basic/service/timing\ATimingService.c **** 		for (i=0; i<ATIMINGSERVICE_HISTORY_SIZE; ++i)
 1034              		.loc 1 285 0
 1035 0010 4FF00003 		mov	r3, #0
 1036 0014 FB60     		str	r3, [r7, #12]
 1037 0016 0BE0     		b	.L64
 1038              	.L65:
 286:C:/data/workspaces/github/de.protos.demos/src/HexagonCANDemo/etrice.HexagonCANDemo.demo/src-gen-st/room/basic/service/timing\ATimingService.c **** 			self->history[i] = NO_STATE;
 1039              		.loc 1 286 0 discriminator 2
 1040 0018 7A68     		ldr	r2, [r7, #4]
 1041 001a FB68     		ldr	r3, [r7, #12]
 1042 001c 4FEA4303 		lsl	r3, r3, #1
 1043 0020 D318     		adds	r3, r2, r3
 1044 0022 4FF00002 		mov	r2, #0
 1045 0026 DA80     		strh	r2, [r3, #6]	@ movhi
 285:C:/data/workspaces/github/de.protos.demos/src/HexagonCANDemo/etrice.HexagonCANDemo.demo/src-gen-st/room/basic/service/timing\ATimingService.c **** 		for (i=0; i<ATIMINGSERVICE_HISTORY_SIZE; ++i)
 1046              		.loc 1 285 0 discriminator 2
 1047 0028 FB68     		ldr	r3, [r7, #12]
 1048 002a 03F10103 		add	r3, r3, #1
 1049 002e FB60     		str	r3, [r7, #12]
 1050              	.L64:
 285:C:/data/workspaces/github/de.protos.demos/src/HexagonCANDemo/etrice.HexagonCANDemo.demo/src-gen-st/room/basic/service/timing\ATimingService.c **** 		for (i=0; i<ATIMINGSERVICE_HISTORY_SIZE; ++i)
 1051              		.loc 1 285 0 is_stmt 0 discriminator 1
 1052 0030 FB68     		ldr	r3, [r7, #12]
 1053 0032 012B     		cmp	r3, #1
 1054 0034 F0DD     		ble	.L65
 1055              	.LBE5:
 287:C:/data/workspaces/github/de.protos.demos/src/HexagonCANDemo/etrice.HexagonCANDemo.demo/src-gen-st/room/basic/service/timing\ATimingService.c **** 	}
 288:C:/data/workspaces/github/de.protos.demos/src/HexagonCANDemo/etrice.HexagonCANDemo.demo/src-gen-st/room/basic/service/timing\ATimingService.c **** 	ATimingService_executeInitTransition(self);
 1056              		.loc 1 288 0 is_stmt 1
 1057 0036 7868     		ldr	r0, [r7, #4]
 1058 0038 FFF7FEFF 		bl	ATimingService_executeInitTransition
 289:C:/data/workspaces/github/de.protos.demos/src/HexagonCANDemo/etrice.HexagonCANDemo.demo/src-gen-st/room/basic/service/timing\ATimingService.c **** 	ET_MSC_LOGGER_SYNC_EXIT
 290:C:/data/workspaces/github/de.protos.demos/src/HexagonCANDemo/etrice.HexagonCANDemo.demo/src-gen-st/room/basic/service/timing\ATimingService.c **** }
 1059              		.loc 1 290 0
 1060 003c 07F11007 		add	r7, r7, #16
 1061 0040 BD46     		mov	sp, r7
 1062 0042 80BD     		pop	{r7, pc}
 1063              		.cfi_endproc
 1064              	.LFE13:
 1066              		.section	.text.ATimingService_receiveMessage,"ax",%progbits
 1067              		.align	2
 1068              		.global	ATimingService_receiveMessage
 1069              		.thumb
 1070              		.thumb_func
 1072              	ATimingService_receiveMessage:
 1073              	.LFB14:
 291:C:/data/workspaces/github/de.protos.demos/src/HexagonCANDemo/etrice.HexagonCANDemo.demo/src-gen-st/room/basic/service/timing\ATimingService.c **** 
 292:C:/data/workspaces/github/de.protos.demos/src/HexagonCANDemo/etrice.HexagonCANDemo.demo/src-gen-st/room/basic/service/timing\ATimingService.c **** 
 293:C:/data/workspaces/github/de.protos.demos/src/HexagonCANDemo/etrice.HexagonCANDemo.demo/src-gen-st/room/basic/service/timing\ATimingService.c **** void ATimingService_receiveMessage(void* self, const void* ifitem, const etMessage* msg){
 1074              		.loc 1 293 0
 1075              		.cfi_startproc
 1076              		@ args = 0, pretend = 0, frame = 16
 1077              		@ frame_needed = 1, uses_anonymous_args = 0
 1078 0000 80B5     		push	{r7, lr}
 1079              	.LCFI42:
 1080              		.cfi_def_cfa_offset 8
 1081              		.cfi_offset 7, -8
 1082              		.cfi_offset 14, -4
 1083 0002 84B0     		sub	sp, sp, #16
 1084              	.LCFI43:
 1085              		.cfi_def_cfa_offset 24
 1086 0004 00AF     		add	r7, sp, #0
 1087              	.LCFI44:
 1088              		.cfi_def_cfa_register 7
 1089 0006 F860     		str	r0, [r7, #12]
 1090 0008 B960     		str	r1, [r7, #8]
 1091 000a 7A60     		str	r2, [r7, #4]
 294:C:/data/workspaces/github/de.protos.demos/src/HexagonCANDemo/etrice.HexagonCANDemo.demo/src-gen-st/room/basic/service/timing\ATimingService.c **** 	ET_MSC_LOGGER_SYNC_ENTRY("ATimingService", "_receiveMessage")
 295:C:/data/workspaces/github/de.protos.demos/src/HexagonCANDemo/etrice.HexagonCANDemo.demo/src-gen-st/room/basic/service/timing\ATimingService.c **** 	
 296:C:/data/workspaces/github/de.protos.demos/src/HexagonCANDemo/etrice.HexagonCANDemo.demo/src-gen-st/room/basic/service/timing\ATimingService.c **** 	ATimingService_receiveEvent(self, (etPort*)ifitem, msg->evtID, (void*)(((char*)msg)+MEM_CEIL(sizeo
 1092              		.loc 1 296 0
 1093 000c 7B68     		ldr	r3, [r7, #4]
 1094 000e DB88     		ldrh	r3, [r3, #6]
 1095 0010 1AB2     		sxth	r2, r3
 1096 0012 7B68     		ldr	r3, [r7, #4]
 1097 0014 03F10803 		add	r3, r3, #8
 1098 0018 F868     		ldr	r0, [r7, #12]
 1099 001a B968     		ldr	r1, [r7, #8]
 1100 001c FFF7FEFF 		bl	ATimingService_receiveEvent
 297:C:/data/workspaces/github/de.protos.demos/src/HexagonCANDemo/etrice.HexagonCANDemo.demo/src-gen-st/room/basic/service/timing\ATimingService.c **** 	
 298:C:/data/workspaces/github/de.protos.demos/src/HexagonCANDemo/etrice.HexagonCANDemo.demo/src-gen-st/room/basic/service/timing\ATimingService.c **** 	ET_MSC_LOGGER_SYNC_EXIT
 299:C:/data/workspaces/github/de.protos.demos/src/HexagonCANDemo/etrice.HexagonCANDemo.demo/src-gen-st/room/basic/service/timing\ATimingService.c **** }
 1101              		.loc 1 299 0
 1102 0020 07F11007 		add	r7, r7, #16
 1103 0024 BD46     		mov	sp, r7
 1104 0026 80BD     		pop	{r7, pc}
 1105              		.cfi_endproc
 1106              	.LFE14:
 1108              		.section	.text.ATimingService_execute,"ax",%progbits
 1109              		.align	2
 1110              		.global	ATimingService_execute
 1111              		.thumb
 1112              		.thumb_func
 1114              	ATimingService_execute:
 1115              	.LFB15:
 300:C:/data/workspaces/github/de.protos.demos/src/HexagonCANDemo/etrice.HexagonCANDemo.demo/src-gen-st/room/basic/service/timing\ATimingService.c **** 
 301:C:/data/workspaces/github/de.protos.demos/src/HexagonCANDemo/etrice.HexagonCANDemo.demo/src-gen-st/room/basic/service/timing\ATimingService.c **** void ATimingService_execute(ATimingService* self) {
 1116              		.loc 1 301 0
 1117              		.cfi_startproc
 1118              		@ args = 0, pretend = 0, frame = 8
 1119              		@ frame_needed = 1, uses_anonymous_args = 0
 1120 0000 80B5     		push	{r7, lr}
 1121              	.LCFI45:
 1122              		.cfi_def_cfa_offset 8
 1123              		.cfi_offset 7, -8
 1124              		.cfi_offset 14, -4
 1125 0002 82B0     		sub	sp, sp, #8
 1126              	.LCFI46:
 1127              		.cfi_def_cfa_offset 16
 1128 0004 00AF     		add	r7, sp, #0
 1129              	.LCFI47:
 1130              		.cfi_def_cfa_register 7
 1131 0006 7860     		str	r0, [r7, #4]
 302:C:/data/workspaces/github/de.protos.demos/src/HexagonCANDemo/etrice.HexagonCANDemo.demo/src-gen-st/room/basic/service/timing\ATimingService.c **** 	ET_MSC_LOGGER_SYNC_ENTRY("ATimingService", "_execute")
 303:C:/data/workspaces/github/de.protos.demos/src/HexagonCANDemo/etrice.HexagonCANDemo.demo/src-gen-st/room/basic/service/timing\ATimingService.c **** 	
 304:C:/data/workspaces/github/de.protos.demos/src/HexagonCANDemo/etrice.HexagonCANDemo.demo/src-gen-st/room/basic/service/timing\ATimingService.c **** 	ATimingService_receiveEvent(self, NULL, 0, NULL);
 1132              		.loc 1 304 0
 1133 0008 7868     		ldr	r0, [r7, #4]
 1134 000a 4FF00001 		mov	r1, #0
 1135 000e 4FF00002 		mov	r2, #0
 1136 0012 4FF00003 		mov	r3, #0
 1137 0016 FFF7FEFF 		bl	ATimingService_receiveEvent
 305:C:/data/workspaces/github/de.protos.demos/src/HexagonCANDemo/etrice.HexagonCANDemo.demo/src-gen-st/room/basic/service/timing\ATimingService.c **** 	
 306:C:/data/workspaces/github/de.protos.demos/src/HexagonCANDemo/etrice.HexagonCANDemo.demo/src-gen-st/room/basic/service/timing\ATimingService.c **** 	ET_MSC_LOGGER_SYNC_EXIT
 307:C:/data/workspaces/github/de.protos.demos/src/HexagonCANDemo/etrice.HexagonCANDemo.demo/src-gen-st/room/basic/service/timing\ATimingService.c **** }
 1138              		.loc 1 307 0
 1139 001a 07F10807 		add	r7, r7, #8
 1140 001e BD46     		mov	sp, r7
 1141 0020 80BD     		pop	{r7, pc}
 1142              		.cfi_endproc
 1143              	.LFE15:
 1145 0022 00BF     		.section	.text.ATimingService_getTcb,"ax",%progbits
 1146              		.align	2
 1147              		.global	ATimingService_getTcb
 1148              		.thumb
 1149              		.thumb_func
 1151              	ATimingService_getTcb:
 1152              	.LFB16:
 308:C:/data/workspaces/github/de.protos.demos/src/HexagonCANDemo/etrice.HexagonCANDemo.demo/src-gen-st/room/basic/service/timing\ATimingService.c **** 
 309:C:/data/workspaces/github/de.protos.demos/src/HexagonCANDemo/etrice.HexagonCANDemo.demo/src-gen-st/room/basic/service/timing\ATimingService.c **** /*--------------------- operations ---------------------*/
 310:C:/data/workspaces/github/de.protos.demos/src/HexagonCANDemo/etrice.HexagonCANDemo.demo/src-gen-st/room/basic/service/timing\ATimingService.c **** etTimerControlBlock* ATimingService_getTcb(ATimingService* self) {
 1153              		.loc 1 310 0
 1154              		.cfi_startproc
 1155              		@ args = 0, pretend = 0, frame = 16
 1156              		@ frame_needed = 1, uses_anonymous_args = 0
 1157              		@ link register save eliminated.
 1158 0000 80B4     		push	{r7}
 1159              	.LCFI48:
 1160              		.cfi_def_cfa_offset 4
 1161              		.cfi_offset 7, -4
 1162 0002 85B0     		sub	sp, sp, #20
 1163              	.LCFI49:
 1164              		.cfi_def_cfa_offset 24
 1165 0004 00AF     		add	r7, sp, #0
 1166              	.LCFI50:
 1167              		.cfi_def_cfa_register 7
 1168 0006 7860     		str	r0, [r7, #4]
 311:C:/data/workspaces/github/de.protos.demos/src/HexagonCANDemo/etrice.HexagonCANDemo.demo/src-gen-st/room/basic/service/timing\ATimingService.c **** 	
 312:C:/data/workspaces/github/de.protos.demos/src/HexagonCANDemo/etrice.HexagonCANDemo.demo/src-gen-st/room/basic/service/timing\ATimingService.c **** 				etTimerControlBlock* temp = freeTcbsRoot;
 1169              		.loc 1 312 0
 1170 0008 40F20003 		movw	r3, #:lower16:freeTcbsRoot
 1171 000c C0F20003 		movt	r3, #:upper16:freeTcbsRoot
 1172 0010 1B68     		ldr	r3, [r3, #0]
 1173 0012 FB60     		str	r3, [r7, #12]
 313:C:/data/workspaces/github/de.protos.demos/src/HexagonCANDemo/etrice.HexagonCANDemo.demo/src-gen-st/room/basic/service/timing\ATimingService.c **** 				
 314:C:/data/workspaces/github/de.protos.demos/src/HexagonCANDemo/etrice.HexagonCANDemo.demo/src-gen-st/room/basic/service/timing\ATimingService.c **** 				if(freeTcbsRoot!=0) {
 1174              		.loc 1 314 0
 1175 0014 40F20003 		movw	r3, #:lower16:freeTcbsRoot
 1176 0018 C0F20003 		movt	r3, #:upper16:freeTcbsRoot
 1177 001c 1B68     		ldr	r3, [r3, #0]
 1178 001e 002B     		cmp	r3, #0
 1179 0020 0ED0     		beq	.L69
 315:C:/data/workspaces/github/de.protos.demos/src/HexagonCANDemo/etrice.HexagonCANDemo.demo/src-gen-st/room/basic/service/timing\ATimingService.c **** 					freeTcbsRoot=freeTcbsRoot->next;
 1180              		.loc 1 315 0
 1181 0022 40F20003 		movw	r3, #:lower16:freeTcbsRoot
 1182 0026 C0F20003 		movt	r3, #:upper16:freeTcbsRoot
 1183 002a 1B68     		ldr	r3, [r3, #0]
 1184 002c 5A69     		ldr	r2, [r3, #20]
 1185 002e 40F20003 		movw	r3, #:lower16:freeTcbsRoot
 1186 0032 C0F20003 		movt	r3, #:upper16:freeTcbsRoot
 1187 0036 1A60     		str	r2, [r3, #0]
 316:C:/data/workspaces/github/de.protos.demos/src/HexagonCANDemo/etrice.HexagonCANDemo.demo/src-gen-st/room/basic/service/timing\ATimingService.c **** 					temp->next=0;
 1188              		.loc 1 316 0
 1189 0038 FB68     		ldr	r3, [r7, #12]
 1190 003a 4FF00002 		mov	r2, #0
 1191 003e 5A61     		str	r2, [r3, #20]
 1192              	.L69:
 317:C:/data/workspaces/github/de.protos.demos/src/HexagonCANDemo/etrice.HexagonCANDemo.demo/src-gen-st/room/basic/service/timing\ATimingService.c **** 					}
 318:C:/data/workspaces/github/de.protos.demos/src/HexagonCANDemo/etrice.HexagonCANDemo.demo/src-gen-st/room/basic/service/timing\ATimingService.c **** 				return temp;
 1193              		.loc 1 318 0
 1194 0040 FB68     		ldr	r3, [r7, #12]
 319:C:/data/workspaces/github/de.protos.demos/src/HexagonCANDemo/etrice.HexagonCANDemo.demo/src-gen-st/room/basic/service/timing\ATimingService.c **** }
 1195              		.loc 1 319 0
 1196 0042 1846     		mov	r0, r3
 1197 0044 07F11407 		add	r7, r7, #20
 1198 0048 BD46     		mov	sp, r7
 1199 004a 80BC     		pop	{r7}
 1200 004c 7047     		bx	lr
 1201              		.cfi_endproc
 1202              	.LFE16:
 1204 004e 00BF     		.section	.text.ATimingService_returnTcb,"ax",%progbits
 1205              		.align	2
 1206              		.global	ATimingService_returnTcb
 1207              		.thumb
 1208              		.thumb_func
 1210              	ATimingService_returnTcb:
 1211              	.LFB17:
 320:C:/data/workspaces/github/de.protos.demos/src/HexagonCANDemo/etrice.HexagonCANDemo.demo/src-gen-st/room/basic/service/timing\ATimingService.c **** void ATimingService_returnTcb(ATimingService* self, etTimerControlBlock* block) {
 1212              		.loc 1 320 0
 1213              		.cfi_startproc
 1214              		@ args = 0, pretend = 0, frame = 8
 1215              		@ frame_needed = 1, uses_anonymous_args = 0
 1216              		@ link register save eliminated.
 1217 0000 80B4     		push	{r7}
 1218              	.LCFI51:
 1219              		.cfi_def_cfa_offset 4
 1220              		.cfi_offset 7, -4
 1221 0002 83B0     		sub	sp, sp, #12
 1222              	.LCFI52:
 1223              		.cfi_def_cfa_offset 16
 1224 0004 00AF     		add	r7, sp, #0
 1225              	.LCFI53:
 1226              		.cfi_def_cfa_register 7
 1227 0006 7860     		str	r0, [r7, #4]
 1228 0008 3960     		str	r1, [r7, #0]
 321:C:/data/workspaces/github/de.protos.demos/src/HexagonCANDemo/etrice.HexagonCANDemo.demo/src-gen-st/room/basic/service/timing\ATimingService.c **** 	
 322:C:/data/workspaces/github/de.protos.demos/src/HexagonCANDemo/etrice.HexagonCANDemo.demo/src-gen-st/room/basic/service/timing\ATimingService.c **** 				block->next=freeTcbsRoot;
 1229              		.loc 1 322 0
 1230 000a 40F20003 		movw	r3, #:lower16:freeTcbsRoot
 1231 000e C0F20003 		movt	r3, #:upper16:freeTcbsRoot
 1232 0012 1A68     		ldr	r2, [r3, #0]
 1233 0014 3B68     		ldr	r3, [r7, #0]
 1234 0016 5A61     		str	r2, [r3, #20]
 323:C:/data/workspaces/github/de.protos.demos/src/HexagonCANDemo/etrice.HexagonCANDemo.demo/src-gen-st/room/basic/service/timing\ATimingService.c **** 				freeTcbsRoot=block;
 1235              		.loc 1 323 0
 1236 0018 40F20003 		movw	r3, #:lower16:freeTcbsRoot
 1237 001c C0F20003 		movt	r3, #:upper16:freeTcbsRoot
 1238 0020 3A68     		ldr	r2, [r7, #0]
 1239 0022 1A60     		str	r2, [r3, #0]
 324:C:/data/workspaces/github/de.protos.demos/src/HexagonCANDemo/etrice.HexagonCANDemo.demo/src-gen-st/room/basic/service/timing\ATimingService.c **** }
 1240              		.loc 1 324 0
 1241 0024 07F10C07 		add	r7, r7, #12
 1242 0028 BD46     		mov	sp, r7
 1243 002a 80BC     		pop	{r7}
 1244 002c 7047     		bx	lr
 1245              		.cfi_endproc
 1246              	.LFE17:
 1248 002e 00BF     		.section	.text.ATimingService_removeTcbFromUsedList,"ax",%progbits
 1249              		.align	2
 1250              		.global	ATimingService_removeTcbFromUsedList
 1251              		.thumb
 1252              		.thumb_func
 1254              	ATimingService_removeTcbFromUsedList:
 1255              	.LFB18:
 325:C:/data/workspaces/github/de.protos.demos/src/HexagonCANDemo/etrice.HexagonCANDemo.demo/src-gen-st/room/basic/service/timing\ATimingService.c **** void ATimingService_removeTcbFromUsedList(ATimingService* self, int32 idx) {
 1256              		.loc 1 325 0
 1257              		.cfi_startproc
 1258              		@ args = 0, pretend = 0, frame = 16
 1259              		@ frame_needed = 1, uses_anonymous_args = 0
 1260 0000 80B5     		push	{r7, lr}
 1261              	.LCFI54:
 1262              		.cfi_def_cfa_offset 8
 1263              		.cfi_offset 7, -8
 1264              		.cfi_offset 14, -4
 1265 0002 84B0     		sub	sp, sp, #16
 1266              	.LCFI55:
 1267              		.cfi_def_cfa_offset 24
 1268 0004 00AF     		add	r7, sp, #0
 1269              	.LCFI56:
 1270              		.cfi_def_cfa_register 7
 1271 0006 7860     		str	r0, [r7, #4]
 1272 0008 3960     		str	r1, [r7, #0]
 326:C:/data/workspaces/github/de.protos.demos/src/HexagonCANDemo/etrice.HexagonCANDemo.demo/src-gen-st/room/basic/service/timing\ATimingService.c **** 	
 327:C:/data/workspaces/github/de.protos.demos/src/HexagonCANDemo/etrice.HexagonCANDemo.demo/src-gen-st/room/basic/service/timing\ATimingService.c **** 				etTimerControlBlock* temp=usedTcbsRoot;
 1273              		.loc 1 327 0
 1274 000a 40F20003 		movw	r3, #:lower16:usedTcbsRoot
 1275 000e C0F20003 		movt	r3, #:upper16:usedTcbsRoot
 1276 0012 1B68     		ldr	r3, [r3, #0]
 1277 0014 FB60     		str	r3, [r7, #12]
 328:C:/data/workspaces/github/de.protos.demos/src/HexagonCANDemo/etrice.HexagonCANDemo.demo/src-gen-st/room/basic/service/timing\ATimingService.c **** 				etTimerControlBlock* temp2=usedTcbsRoot;
 1278              		.loc 1 328 0
 1279 0016 40F20003 		movw	r3, #:lower16:usedTcbsRoot
 1280 001a C0F20003 		movt	r3, #:upper16:usedTcbsRoot
 1281 001e 1B68     		ldr	r3, [r3, #0]
 1282 0020 BB60     		str	r3, [r7, #8]
 329:C:/data/workspaces/github/de.protos.demos/src/HexagonCANDemo/etrice.HexagonCANDemo.demo/src-gen-st/room/basic/service/timing\ATimingService.c **** 				
 330:C:/data/workspaces/github/de.protos.demos/src/HexagonCANDemo/etrice.HexagonCANDemo.demo/src-gen-st/room/basic/service/timing\ATimingService.c **** 				if (temp==0) return;
 1283              		.loc 1 330 0
 1284 0022 FB68     		ldr	r3, [r7, #12]
 1285 0024 002B     		cmp	r3, #0
 1286 0026 33D0     		beq	.L79
 1287              	.L73:
 331:C:/data/workspaces/github/de.protos.demos/src/HexagonCANDemo/etrice.HexagonCANDemo.demo/src-gen-st/room/basic/service/timing\ATimingService.c **** 	
 332:C:/data/workspaces/github/de.protos.demos/src/HexagonCANDemo/etrice.HexagonCANDemo.demo/src-gen-st/room/basic/service/timing\ATimingService.c **** 				if (usedTcbsRoot->portIdx == idx){
 1288              		.loc 1 332 0
 1289 0028 40F20003 		movw	r3, #:lower16:usedTcbsRoot
 1290 002c C0F20003 		movt	r3, #:upper16:usedTcbsRoot
 1291 0030 1B68     		ldr	r3, [r3, #0]
 1292 0032 1A69     		ldr	r2, [r3, #16]
 1293 0034 3B68     		ldr	r3, [r7, #0]
 1294 0036 9A42     		cmp	r2, r3
 1295 0038 0FD1     		bne	.L75
 333:C:/data/workspaces/github/de.protos.demos/src/HexagonCANDemo/etrice.HexagonCANDemo.demo/src-gen-st/room/basic/service/timing\ATimingService.c **** 					/* element found, the first one */
 334:C:/data/workspaces/github/de.protos.demos/src/HexagonCANDemo/etrice.HexagonCANDemo.demo/src-gen-st/room/basic/service/timing\ATimingService.c **** 					usedTcbsRoot = usedTcbsRoot->next;
 1296              		.loc 1 334 0
 1297 003a 40F20003 		movw	r3, #:lower16:usedTcbsRoot
 1298 003e C0F20003 		movt	r3, #:upper16:usedTcbsRoot
 1299 0042 1B68     		ldr	r3, [r3, #0]
 1300 0044 5A69     		ldr	r2, [r3, #20]
 1301 0046 40F20003 		movw	r3, #:lower16:usedTcbsRoot
 1302 004a C0F20003 		movt	r3, #:upper16:usedTcbsRoot
 1303 004e 1A60     		str	r2, [r3, #0]
 335:C:/data/workspaces/github/de.protos.demos/src/HexagonCANDemo/etrice.HexagonCANDemo.demo/src-gen-st/room/basic/service/timing\ATimingService.c **** 					returnTcb(temp);
 1304              		.loc 1 335 0
 1305 0050 7868     		ldr	r0, [r7, #4]
 1306 0052 F968     		ldr	r1, [r7, #12]
 1307 0054 FFF7FEFF 		bl	ATimingService_returnTcb
 336:C:/data/workspaces/github/de.protos.demos/src/HexagonCANDemo/etrice.HexagonCANDemo.demo/src-gen-st/room/basic/service/timing\ATimingService.c **** 					return;
 1308              		.loc 1 336 0
 1309 0058 1BE0     		b	.L72
 1310              	.L75:
 337:C:/data/workspaces/github/de.protos.demos/src/HexagonCANDemo/etrice.HexagonCANDemo.demo/src-gen-st/room/basic/service/timing\ATimingService.c **** 					}
 338:C:/data/workspaces/github/de.protos.demos/src/HexagonCANDemo/etrice.HexagonCANDemo.demo/src-gen-st/room/basic/service/timing\ATimingService.c **** 	
 339:C:/data/workspaces/github/de.protos.demos/src/HexagonCANDemo/etrice.HexagonCANDemo.demo/src-gen-st/room/basic/service/timing\ATimingService.c **** 				temp=temp->next;
 1311              		.loc 1 339 0
 1312 005a FB68     		ldr	r3, [r7, #12]
 1313 005c 5B69     		ldr	r3, [r3, #20]
 1314 005e FB60     		str	r3, [r7, #12]
 340:C:/data/workspaces/github/de.protos.demos/src/HexagonCANDemo/etrice.HexagonCANDemo.demo/src-gen-st/room/basic/service/timing\ATimingService.c **** 				while(temp!=0){
 1315              		.loc 1 340 0
 1316 0060 12E0     		b	.L76
 1317              	.L78:
 341:C:/data/workspaces/github/de.protos.demos/src/HexagonCANDemo/etrice.HexagonCANDemo.demo/src-gen-st/room/basic/service/timing\ATimingService.c **** 					if(temp->portIdx==idx){
 1318              		.loc 1 341 0
 1319 0062 FB68     		ldr	r3, [r7, #12]
 1320 0064 1A69     		ldr	r2, [r3, #16]
 1321 0066 3B68     		ldr	r3, [r7, #0]
 1322 0068 9A42     		cmp	r2, r3
 1323 006a 08D1     		bne	.L77
 342:C:/data/workspaces/github/de.protos.demos/src/HexagonCANDemo/etrice.HexagonCANDemo.demo/src-gen-st/room/basic/service/timing\ATimingService.c **** 						temp2->next=temp->next;
 1324              		.loc 1 342 0
 1325 006c FB68     		ldr	r3, [r7, #12]
 1326 006e 5A69     		ldr	r2, [r3, #20]
 1327 0070 BB68     		ldr	r3, [r7, #8]
 1328 0072 5A61     		str	r2, [r3, #20]
 343:C:/data/workspaces/github/de.protos.demos/src/HexagonCANDemo/etrice.HexagonCANDemo.demo/src-gen-st/room/basic/service/timing\ATimingService.c **** 						returnTcb(temp);
 1329              		.loc 1 343 0
 1330 0074 7868     		ldr	r0, [r7, #4]
 1331 0076 F968     		ldr	r1, [r7, #12]
 1332 0078 FFF7FEFF 		bl	ATimingService_returnTcb
 344:C:/data/workspaces/github/de.protos.demos/src/HexagonCANDemo/etrice.HexagonCANDemo.demo/src-gen-st/room/basic/service/timing\ATimingService.c **** 						return;			
 1333              		.loc 1 344 0
 1334 007c 09E0     		b	.L72
 1335              	.L77:
 345:C:/data/workspaces/github/de.protos.demos/src/HexagonCANDemo/etrice.HexagonCANDemo.demo/src-gen-st/room/basic/service/timing\ATimingService.c **** 					}else{
 346:C:/data/workspaces/github/de.protos.demos/src/HexagonCANDemo/etrice.HexagonCANDemo.demo/src-gen-st/room/basic/service/timing\ATimingService.c **** 						/* try next */
 347:C:/data/workspaces/github/de.protos.demos/src/HexagonCANDemo/etrice.HexagonCANDemo.demo/src-gen-st/room/basic/service/timing\ATimingService.c **** 						temp2=temp;
 1336              		.loc 1 347 0
 1337 007e FB68     		ldr	r3, [r7, #12]
 1338 0080 BB60     		str	r3, [r7, #8]
 348:C:/data/workspaces/github/de.protos.demos/src/HexagonCANDemo/etrice.HexagonCANDemo.demo/src-gen-st/room/basic/service/timing\ATimingService.c **** 						temp=temp->next;
 1339              		.loc 1 348 0
 1340 0082 FB68     		ldr	r3, [r7, #12]
 1341 0084 5B69     		ldr	r3, [r3, #20]
 1342 0086 FB60     		str	r3, [r7, #12]
 1343              	.L76:
 340:C:/data/workspaces/github/de.protos.demos/src/HexagonCANDemo/etrice.HexagonCANDemo.demo/src-gen-st/room/basic/service/timing\ATimingService.c **** 				while(temp!=0){
 1344              		.loc 1 340 0 discriminator 1
 1345 0088 FB68     		ldr	r3, [r7, #12]
 1346 008a 002B     		cmp	r3, #0
 1347 008c E9D1     		bne	.L78
 1348 008e 00E0     		b	.L72
 1349              	.L79:
 330:C:/data/workspaces/github/de.protos.demos/src/HexagonCANDemo/etrice.HexagonCANDemo.demo/src-gen-st/room/basic/service/timing\ATimingService.c **** 				if (temp==0) return;
 1350              		.loc 1 330 0
 1351 0090 00BF     		nop
 1352              	.L72:
 349:C:/data/workspaces/github/de.protos.demos/src/HexagonCANDemo/etrice.HexagonCANDemo.demo/src-gen-st/room/basic/service/timing\ATimingService.c **** 						}
 350:C:/data/workspaces/github/de.protos.demos/src/HexagonCANDemo/etrice.HexagonCANDemo.demo/src-gen-st/room/basic/service/timing\ATimingService.c **** 					}
 351:C:/data/workspaces/github/de.protos.demos/src/HexagonCANDemo/etrice.HexagonCANDemo.demo/src-gen-st/room/basic/service/timing\ATimingService.c **** }
 1353              		.loc 1 351 0
 1354 0092 07F11007 		add	r7, r7, #16
 1355 0096 BD46     		mov	sp, r7
 1356 0098 80BD     		pop	{r7, pc}
 1357              		.cfi_endproc
 1358              	.LFE18:
 1360 009a 00BF     		.section	.text.ATimingService_putTcbToUsedList,"ax",%progbits
 1361              		.align	2
 1362              		.global	ATimingService_putTcbToUsedList
 1363              		.thumb
 1364              		.thumb_func
 1366              	ATimingService_putTcbToUsedList:
 1367              	.LFB19:
 352:C:/data/workspaces/github/de.protos.demos/src/HexagonCANDemo/etrice.HexagonCANDemo.demo/src-gen-st/room/basic/service/timing\ATimingService.c **** void ATimingService_putTcbToUsedList(ATimingService* self, etTimerControlBlock* block) {
 1368              		.loc 1 352 0
 1369              		.cfi_startproc
 1370              		@ args = 0, pretend = 0, frame = 16
 1371              		@ frame_needed = 1, uses_anonymous_args = 0
 1372 0000 80B5     		push	{r7, lr}
 1373              	.LCFI57:
 1374              		.cfi_def_cfa_offset 8
 1375              		.cfi_offset 7, -8
 1376              		.cfi_offset 14, -4
 1377 0002 84B0     		sub	sp, sp, #16
 1378              	.LCFI58:
 1379              		.cfi_def_cfa_offset 24
 1380 0004 00AF     		add	r7, sp, #0
 1381              	.LCFI59:
 1382              		.cfi_def_cfa_register 7
 1383 0006 7860     		str	r0, [r7, #4]
 1384 0008 3960     		str	r1, [r7, #0]
 353:C:/data/workspaces/github/de.protos.demos/src/HexagonCANDemo/etrice.HexagonCANDemo.demo/src-gen-st/room/basic/service/timing\ATimingService.c **** 	
 354:C:/data/workspaces/github/de.protos.demos/src/HexagonCANDemo/etrice.HexagonCANDemo.demo/src-gen-st/room/basic/service/timing\ATimingService.c **** 				etTimerControlBlock* temp=usedTcbsRoot;
 1385              		.loc 1 354 0
 1386 000a 40F20003 		movw	r3, #:lower16:usedTcbsRoot
 1387 000e C0F20003 		movt	r3, #:upper16:usedTcbsRoot
 1388 0012 1B68     		ldr	r3, [r3, #0]
 1389 0014 FB60     		str	r3, [r7, #12]
 355:C:/data/workspaces/github/de.protos.demos/src/HexagonCANDemo/etrice.HexagonCANDemo.demo/src-gen-st/room/basic/service/timing\ATimingService.c **** 				etTimerControlBlock* temp2=usedTcbsRoot;
 1390              		.loc 1 355 0
 1391 0016 40F20003 		movw	r3, #:lower16:usedTcbsRoot
 1392 001a C0F20003 		movt	r3, #:upper16:usedTcbsRoot
 1393 001e 1B68     		ldr	r3, [r3, #0]
 1394 0020 BB60     		str	r3, [r7, #8]
 356:C:/data/workspaces/github/de.protos.demos/src/HexagonCANDemo/etrice.HexagonCANDemo.demo/src-gen-st/room/basic/service/timing\ATimingService.c **** 	
 357:C:/data/workspaces/github/de.protos.demos/src/HexagonCANDemo/etrice.HexagonCANDemo.demo/src-gen-st/room/basic/service/timing\ATimingService.c **** 				if (temp==0){
 1395              		.loc 1 357 0
 1396 0022 FB68     		ldr	r3, [r7, #12]
 1397 0024 002B     		cmp	r3, #0
 1398 0026 0AD1     		bne	.L81
 358:C:/data/workspaces/github/de.protos.demos/src/HexagonCANDemo/etrice.HexagonCANDemo.demo/src-gen-st/room/basic/service/timing\ATimingService.c **** 					/* list empty put new block to root */
 359:C:/data/workspaces/github/de.protos.demos/src/HexagonCANDemo/etrice.HexagonCANDemo.demo/src-gen-st/room/basic/service/timing\ATimingService.c **** 					block->next=0;
 1399              		.loc 1 359 0
 1400 0028 3B68     		ldr	r3, [r7, #0]
 1401 002a 4FF00002 		mov	r2, #0
 1402 002e 5A61     		str	r2, [r3, #20]
 360:C:/data/workspaces/github/de.protos.demos/src/HexagonCANDemo/etrice.HexagonCANDemo.demo/src-gen-st/room/basic/service/timing\ATimingService.c **** 					usedTcbsRoot=block;
 1403              		.loc 1 360 0
 1404 0030 40F20003 		movw	r3, #:lower16:usedTcbsRoot
 1405 0034 C0F20003 		movt	r3, #:upper16:usedTcbsRoot
 1406 0038 3A68     		ldr	r2, [r7, #0]
 1407 003a 1A60     		str	r2, [r3, #0]
 361:C:/data/workspaces/github/de.protos.demos/src/HexagonCANDemo/etrice.HexagonCANDemo.demo/src-gen-st/room/basic/service/timing\ATimingService.c **** 					return;
 1408              		.loc 1 361 0
 1409 003c 30E0     		b	.L80
 1410              	.L81:
 362:C:/data/workspaces/github/de.protos.demos/src/HexagonCANDemo/etrice.HexagonCANDemo.demo/src-gen-st/room/basic/service/timing\ATimingService.c **** 					}
 363:C:/data/workspaces/github/de.protos.demos/src/HexagonCANDemo/etrice.HexagonCANDemo.demo/src-gen-st/room/basic/service/timing\ATimingService.c **** 				
 364:C:/data/workspaces/github/de.protos.demos/src/HexagonCANDemo/etrice.HexagonCANDemo.demo/src-gen-st/room/basic/service/timing\ATimingService.c **** 				while(1){
 365:C:/data/workspaces/github/de.protos.demos/src/HexagonCANDemo/etrice.HexagonCANDemo.demo/src-gen-st/room/basic/service/timing\ATimingService.c **** 					if (temp != 0){
 1411              		.loc 1 365 0
 1412 003e FB68     		ldr	r3, [r7, #12]
 1413 0040 002B     		cmp	r3, #0
 1414 0042 25D0     		beq	.L83
 366:C:/data/workspaces/github/de.protos.demos/src/HexagonCANDemo/etrice.HexagonCANDemo.demo/src-gen-st/room/basic/service/timing\ATimingService.c **** 						if (isTimeGreater(&block->expTime,&temp->expTime)){
 1415              		.loc 1 366 0
 1416 0044 3A68     		ldr	r2, [r7, #0]
 1417 0046 FB68     		ldr	r3, [r7, #12]
 1418 0048 7868     		ldr	r0, [r7, #4]
 1419 004a 1146     		mov	r1, r2
 1420 004c 1A46     		mov	r2, r3
 1421 004e FFF7FEFF 		bl	ATimingService_isTimeGreater
 1422 0052 0346     		mov	r3, r0
 1423 0054 002B     		cmp	r3, #0
 1424 0056 05D0     		beq	.L84
 367:C:/data/workspaces/github/de.protos.demos/src/HexagonCANDemo/etrice.HexagonCANDemo.demo/src-gen-st/room/basic/service/timing\ATimingService.c **** 							/* try next position */
 368:C:/data/workspaces/github/de.protos.demos/src/HexagonCANDemo/etrice.HexagonCANDemo.demo/src-gen-st/room/basic/service/timing\ATimingService.c **** 							temp2=temp;	
 1425              		.loc 1 368 0
 1426 0058 FB68     		ldr	r3, [r7, #12]
 1427 005a BB60     		str	r3, [r7, #8]
 369:C:/data/workspaces/github/de.protos.demos/src/HexagonCANDemo/etrice.HexagonCANDemo.demo/src-gen-st/room/basic/service/timing\ATimingService.c **** 							temp=temp->next;
 1428              		.loc 1 369 0
 1429 005c FB68     		ldr	r3, [r7, #12]
 1430 005e 5B69     		ldr	r3, [r3, #20]
 1431 0060 FB60     		str	r3, [r7, #12]
 370:C:/data/workspaces/github/de.protos.demos/src/HexagonCANDemo/etrice.HexagonCANDemo.demo/src-gen-st/room/basic/service/timing\ATimingService.c **** 							}else{
 371:C:/data/workspaces/github/de.protos.demos/src/HexagonCANDemo/etrice.HexagonCANDemo.demo/src-gen-st/room/basic/service/timing\ATimingService.c **** 							/* right position found */
 372:C:/data/workspaces/github/de.protos.demos/src/HexagonCANDemo/etrice.HexagonCANDemo.demo/src-gen-st/room/basic/service/timing\ATimingService.c **** 							block->next=temp;
 373:C:/data/workspaces/github/de.protos.demos/src/HexagonCANDemo/etrice.HexagonCANDemo.demo/src-gen-st/room/basic/service/timing\ATimingService.c **** 							if(temp==usedTcbsRoot){
 374:C:/data/workspaces/github/de.protos.demos/src/HexagonCANDemo/etrice.HexagonCANDemo.demo/src-gen-st/room/basic/service/timing\ATimingService.c **** 								usedTcbsRoot=block;
 375:C:/data/workspaces/github/de.protos.demos/src/HexagonCANDemo/etrice.HexagonCANDemo.demo/src-gen-st/room/basic/service/timing\ATimingService.c **** 								}else{
 376:C:/data/workspaces/github/de.protos.demos/src/HexagonCANDemo/etrice.HexagonCANDemo.demo/src-gen-st/room/basic/service/timing\ATimingService.c **** 								temp2->next=block;
 377:C:/data/workspaces/github/de.protos.demos/src/HexagonCANDemo/etrice.HexagonCANDemo.demo/src-gen-st/room/basic/service/timing\ATimingService.c **** 								}
 378:C:/data/workspaces/github/de.protos.demos/src/HexagonCANDemo/etrice.HexagonCANDemo.demo/src-gen-st/room/basic/service/timing\ATimingService.c **** 							return;
 379:C:/data/workspaces/github/de.protos.demos/src/HexagonCANDemo/etrice.HexagonCANDemo.demo/src-gen-st/room/basic/service/timing\ATimingService.c **** 							}
 380:C:/data/workspaces/github/de.protos.demos/src/HexagonCANDemo/etrice.HexagonCANDemo.demo/src-gen-st/room/basic/service/timing\ATimingService.c **** 						}else{
 381:C:/data/workspaces/github/de.protos.demos/src/HexagonCANDemo/etrice.HexagonCANDemo.demo/src-gen-st/room/basic/service/timing\ATimingService.c **** 						/* end of list reached */
 382:C:/data/workspaces/github/de.protos.demos/src/HexagonCANDemo/etrice.HexagonCANDemo.demo/src-gen-st/room/basic/service/timing\ATimingService.c **** 						block->next=0;
 383:C:/data/workspaces/github/de.protos.demos/src/HexagonCANDemo/etrice.HexagonCANDemo.demo/src-gen-st/room/basic/service/timing\ATimingService.c **** 						temp2->next=block;
 384:C:/data/workspaces/github/de.protos.demos/src/HexagonCANDemo/etrice.HexagonCANDemo.demo/src-gen-st/room/basic/service/timing\ATimingService.c **** 						return;
 385:C:/data/workspaces/github/de.protos.demos/src/HexagonCANDemo/etrice.HexagonCANDemo.demo/src-gen-st/room/basic/service/timing\ATimingService.c **** 					}
 386:C:/data/workspaces/github/de.protos.demos/src/HexagonCANDemo/etrice.HexagonCANDemo.demo/src-gen-st/room/basic/service/timing\ATimingService.c **** 				}
 1432              		.loc 1 386 0
 1433 0062 ECE7     		b	.L81
 1434              	.L84:
 372:C:/data/workspaces/github/de.protos.demos/src/HexagonCANDemo/etrice.HexagonCANDemo.demo/src-gen-st/room/basic/service/timing\ATimingService.c **** 							block->next=temp;
 1435              		.loc 1 372 0
 1436 0064 3B68     		ldr	r3, [r7, #0]
 1437 0066 FA68     		ldr	r2, [r7, #12]
 1438 0068 5A61     		str	r2, [r3, #20]
 373:C:/data/workspaces/github/de.protos.demos/src/HexagonCANDemo/etrice.HexagonCANDemo.demo/src-gen-st/room/basic/service/timing\ATimingService.c **** 							if(temp==usedTcbsRoot){
 1439              		.loc 1 373 0
 1440 006a 40F20003 		movw	r3, #:lower16:usedTcbsRoot
 1441 006e C0F20003 		movt	r3, #:upper16:usedTcbsRoot
 1442 0072 1B68     		ldr	r3, [r3, #0]
 1443 0074 FA68     		ldr	r2, [r7, #12]
 1444 0076 9A42     		cmp	r2, r3
 1445 0078 06D1     		bne	.L85
 374:C:/data/workspaces/github/de.protos.demos/src/HexagonCANDemo/etrice.HexagonCANDemo.demo/src-gen-st/room/basic/service/timing\ATimingService.c **** 								usedTcbsRoot=block;
 1446              		.loc 1 374 0
 1447 007a 40F20003 		movw	r3, #:lower16:usedTcbsRoot
 1448 007e C0F20003 		movt	r3, #:upper16:usedTcbsRoot
 1449 0082 3A68     		ldr	r2, [r7, #0]
 1450 0084 1A60     		str	r2, [r3, #0]
 378:C:/data/workspaces/github/de.protos.demos/src/HexagonCANDemo/etrice.HexagonCANDemo.demo/src-gen-st/room/basic/service/timing\ATimingService.c **** 							return;
 1451              		.loc 1 378 0
 1452 0086 0BE0     		b	.L80
 1453              	.L85:
 376:C:/data/workspaces/github/de.protos.demos/src/HexagonCANDemo/etrice.HexagonCANDemo.demo/src-gen-st/room/basic/service/timing\ATimingService.c **** 								temp2->next=block;
 1454              		.loc 1 376 0
 1455 0088 BB68     		ldr	r3, [r7, #8]
 1456 008a 3A68     		ldr	r2, [r7, #0]
 1457 008c 5A61     		str	r2, [r3, #20]
 378:C:/data/workspaces/github/de.protos.demos/src/HexagonCANDemo/etrice.HexagonCANDemo.demo/src-gen-st/room/basic/service/timing\ATimingService.c **** 							return;
 1458              		.loc 1 378 0
 1459 008e 07E0     		b	.L80
 1460              	.L83:
 382:C:/data/workspaces/github/de.protos.demos/src/HexagonCANDemo/etrice.HexagonCANDemo.demo/src-gen-st/room/basic/service/timing\ATimingService.c **** 						block->next=0;
 1461              		.loc 1 382 0
 1462 0090 3B68     		ldr	r3, [r7, #0]
 1463 0092 4FF00002 		mov	r2, #0
 1464 0096 5A61     		str	r2, [r3, #20]
 383:C:/data/workspaces/github/de.protos.demos/src/HexagonCANDemo/etrice.HexagonCANDemo.demo/src-gen-st/room/basic/service/timing\ATimingService.c **** 						temp2->next=block;
 1465              		.loc 1 383 0
 1466 0098 BB68     		ldr	r3, [r7, #8]
 1467 009a 3A68     		ldr	r2, [r7, #0]
 1468 009c 5A61     		str	r2, [r3, #20]
 384:C:/data/workspaces/github/de.protos.demos/src/HexagonCANDemo/etrice.HexagonCANDemo.demo/src-gen-st/room/basic/service/timing\ATimingService.c **** 						return;
 1469              		.loc 1 384 0
 1470 009e 00BF     		nop
 1471              	.L80:
 387:C:/data/workspaces/github/de.protos.demos/src/HexagonCANDemo/etrice.HexagonCANDemo.demo/src-gen-st/room/basic/service/timing\ATimingService.c **** }
 1472              		.loc 1 387 0
 1473 00a0 07F11007 		add	r7, r7, #16
 1474 00a4 BD46     		mov	sp, r7
 1475 00a6 80BD     		pop	{r7, pc}
 1476              		.cfi_endproc
 1477              	.LFE19:
 1479              		.section	.text.ATimingService_isTimeGreater,"ax",%progbits
 1480              		.align	2
 1481              		.global	ATimingService_isTimeGreater
 1482              		.thumb
 1483              		.thumb_func
 1485              	ATimingService_isTimeGreater:
 1486              	.LFB20:
 388:C:/data/workspaces/github/de.protos.demos/src/HexagonCANDemo/etrice.HexagonCANDemo.demo/src-gen-st/room/basic/service/timing\ATimingService.c **** boolean ATimingService_isTimeGreater(ATimingService* self, etTime* t1, etTime* t2) {
 1487              		.loc 1 388 0
 1488              		.cfi_startproc
 1489              		@ args = 0, pretend = 0, frame = 16
 1490              		@ frame_needed = 1, uses_anonymous_args = 0
 1491              		@ link register save eliminated.
 1492 0000 80B4     		push	{r7}
 1493              	.LCFI60:
 1494              		.cfi_def_cfa_offset 4
 1495              		.cfi_offset 7, -4
 1496 0002 85B0     		sub	sp, sp, #20
 1497              	.LCFI61:
 1498              		.cfi_def_cfa_offset 24
 1499 0004 00AF     		add	r7, sp, #0
 1500              	.LCFI62:
 1501              		.cfi_def_cfa_register 7
 1502 0006 F860     		str	r0, [r7, #12]
 1503 0008 B960     		str	r1, [r7, #8]
 1504 000a 7A60     		str	r2, [r7, #4]
 389:C:/data/workspaces/github/de.protos.demos/src/HexagonCANDemo/etrice.HexagonCANDemo.demo/src-gen-st/room/basic/service/timing\ATimingService.c **** 	
 390:C:/data/workspaces/github/de.protos.demos/src/HexagonCANDemo/etrice.HexagonCANDemo.demo/src-gen-st/room/basic/service/timing\ATimingService.c **** 					if (t1->sec > t2->sec) return ET_TRUE;
 1505              		.loc 1 390 0
 1506 000c BB68     		ldr	r3, [r7, #8]
 1507 000e 1A68     		ldr	r2, [r3, #0]
 1508 0010 7B68     		ldr	r3, [r7, #4]
 1509 0012 1B68     		ldr	r3, [r3, #0]
 1510 0014 9A42     		cmp	r2, r3
 1511 0016 02DD     		ble	.L88
 1512              		.loc 1 390 0 is_stmt 0 discriminator 1
 1513 0018 4FF00103 		mov	r3, #1
 1514 001c 13E0     		b	.L89
 1515              	.L88:
 391:C:/data/workspaces/github/de.protos.demos/src/HexagonCANDemo/etrice.HexagonCANDemo.demo/src-gen-st/room/basic/service/timing\ATimingService.c **** 					if (t1->sec < t2->sec) return ET_FALSE;
 1516              		.loc 1 391 0 is_stmt 1
 1517 001e BB68     		ldr	r3, [r7, #8]
 1518 0020 1A68     		ldr	r2, [r3, #0]
 1519 0022 7B68     		ldr	r3, [r7, #4]
 1520 0024 1B68     		ldr	r3, [r3, #0]
 1521 0026 9A42     		cmp	r2, r3
 1522 0028 02DA     		bge	.L90
 1523              		.loc 1 391 0 is_stmt 0 discriminator 1
 1524 002a 4FF00003 		mov	r3, #0
 1525 002e 0AE0     		b	.L89
 1526              	.L90:
 392:C:/data/workspaces/github/de.protos.demos/src/HexagonCANDemo/etrice.HexagonCANDemo.demo/src-gen-st/room/basic/service/timing\ATimingService.c **** 					if (t1->nSec > t2->nSec) return ET_TRUE;
 1527              		.loc 1 392 0 is_stmt 1
 1528 0030 BB68     		ldr	r3, [r7, #8]
 1529 0032 5A68     		ldr	r2, [r3, #4]
 1530 0034 7B68     		ldr	r3, [r7, #4]
 1531 0036 5B68     		ldr	r3, [r3, #4]
 1532 0038 9A42     		cmp	r2, r3
 1533 003a 02DD     		ble	.L91
 1534              		.loc 1 392 0 is_stmt 0 discriminator 1
 1535 003c 4FF00103 		mov	r3, #1
 1536 0040 01E0     		b	.L89
 1537              	.L91:
 393:C:/data/workspaces/github/de.protos.demos/src/HexagonCANDemo/etrice.HexagonCANDemo.demo/src-gen-st/room/basic/service/timing\ATimingService.c **** 					return ET_FALSE;
 1538              		.loc 1 393 0 is_stmt 1
 1539 0042 4FF00003 		mov	r3, #0
 1540              	.L89:
 394:C:/data/workspaces/github/de.protos.demos/src/HexagonCANDemo/etrice.HexagonCANDemo.demo/src-gen-st/room/basic/service/timing\ATimingService.c **** }
 1541              		.loc 1 394 0
 1542 0046 1846     		mov	r0, r3
 1543 0048 07F11407 		add	r7, r7, #20
 1544 004c BD46     		mov	sp, r7
 1545 004e 80BC     		pop	{r7}
 1546 0050 7047     		bx	lr
 1547              		.cfi_endproc
 1548              	.LFE20:
 1550 0052 00BF     		.section	.text.ATimingService_addTime,"ax",%progbits
 1551              		.align	2
 1552              		.global	ATimingService_addTime
 1553              		.thumb
 1554              		.thumb_func
 1556              	ATimingService_addTime:
 1557              	.LFB21:
 395:C:/data/workspaces/github/de.protos.demos/src/HexagonCANDemo/etrice.HexagonCANDemo.demo/src-gen-st/room/basic/service/timing\ATimingService.c **** void ATimingService_addTime(ATimingService* self, etTime* t1, etTime* t2) {
 1558              		.loc 1 395 0
 1559              		.cfi_startproc
 1560              		@ args = 0, pretend = 0, frame = 16
 1561              		@ frame_needed = 1, uses_anonymous_args = 0
 1562              		@ link register save eliminated.
 1563 0000 80B4     		push	{r7}
 1564              	.LCFI63:
 1565              		.cfi_def_cfa_offset 4
 1566              		.cfi_offset 7, -4
 1567 0002 85B0     		sub	sp, sp, #20
 1568              	.LCFI64:
 1569              		.cfi_def_cfa_offset 24
 1570 0004 00AF     		add	r7, sp, #0
 1571              	.LCFI65:
 1572              		.cfi_def_cfa_register 7
 1573 0006 F860     		str	r0, [r7, #12]
 1574 0008 B960     		str	r1, [r7, #8]
 1575 000a 7A60     		str	r2, [r7, #4]
 396:C:/data/workspaces/github/de.protos.demos/src/HexagonCANDemo/etrice.HexagonCANDemo.demo/src-gen-st/room/basic/service/timing\ATimingService.c **** 	
 397:C:/data/workspaces/github/de.protos.demos/src/HexagonCANDemo/etrice.HexagonCANDemo.demo/src-gen-st/room/basic/service/timing\ATimingService.c **** 					t1->sec += t2->sec;
 1576              		.loc 1 397 0
 1577 000c BB68     		ldr	r3, [r7, #8]
 1578 000e 1A68     		ldr	r2, [r3, #0]
 1579 0010 7B68     		ldr	r3, [r7, #4]
 1580 0012 1B68     		ldr	r3, [r3, #0]
 1581 0014 D218     		adds	r2, r2, r3
 1582 0016 BB68     		ldr	r3, [r7, #8]
 1583 0018 1A60     		str	r2, [r3, #0]
 398:C:/data/workspaces/github/de.protos.demos/src/HexagonCANDemo/etrice.HexagonCANDemo.demo/src-gen-st/room/basic/service/timing\ATimingService.c **** 					t1->nSec += t2->nSec;
 1584              		.loc 1 398 0
 1585 001a BB68     		ldr	r3, [r7, #8]
 1586 001c 5A68     		ldr	r2, [r3, #4]
 1587 001e 7B68     		ldr	r3, [r7, #4]
 1588 0020 5B68     		ldr	r3, [r3, #4]
 1589 0022 D218     		adds	r2, r2, r3
 1590 0024 BB68     		ldr	r3, [r7, #8]
 1591 0026 5A60     		str	r2, [r3, #4]
 399:C:/data/workspaces/github/de.protos.demos/src/HexagonCANDemo/etrice.HexagonCANDemo.demo/src-gen-st/room/basic/service/timing\ATimingService.c **** 					while(t1->nSec >= 1000000000L){
 1592              		.loc 1 399 0
 1593 0028 0EE0     		b	.L93
 1594              	.L94:
 400:C:/data/workspaces/github/de.protos.demos/src/HexagonCANDemo/etrice.HexagonCANDemo.demo/src-gen-st/room/basic/service/timing\ATimingService.c **** 						t1->sec++;
 1595              		.loc 1 400 0
 1596 002a BB68     		ldr	r3, [r7, #8]
 1597 002c 1B68     		ldr	r3, [r3, #0]
 1598 002e 03F10102 		add	r2, r3, #1
 1599 0032 BB68     		ldr	r3, [r7, #8]
 1600 0034 1A60     		str	r2, [r3, #0]
 401:C:/data/workspaces/github/de.protos.demos/src/HexagonCANDemo/etrice.HexagonCANDemo.demo/src-gen-st/room/basic/service/timing\ATimingService.c **** 						t1->nSec-=1000000000L;
 1601              		.loc 1 401 0
 1602 0036 BB68     		ldr	r3, [r7, #8]
 1603 0038 5A68     		ldr	r2, [r3, #4]
 1604 003a 4FF45853 		mov	r3, #13824
 1605 003e CCF26543 		movt	r3, 50277
 1606 0042 D318     		adds	r3, r2, r3
 1607 0044 BA68     		ldr	r2, [r7, #8]
 1608 0046 5360     		str	r3, [r2, #4]
 1609              	.L93:
 399:C:/data/workspaces/github/de.protos.demos/src/HexagonCANDemo/etrice.HexagonCANDemo.demo/src-gen-st/room/basic/service/timing\ATimingService.c **** 					while(t1->nSec >= 1000000000L){
 1610              		.loc 1 399 0 discriminator 1
 1611 0048 BB68     		ldr	r3, [r7, #8]
 1612 004a 5A68     		ldr	r2, [r3, #4]
 1613 004c 4CF6FF13 		movw	r3, #51711
 1614 0050 C3F69A33 		movt	r3, 15258
 1615 0054 9A42     		cmp	r2, r3
 1616 0056 E8DC     		bgt	.L94
 402:C:/data/workspaces/github/de.protos.demos/src/HexagonCANDemo/etrice.HexagonCANDemo.demo/src-gen-st/room/basic/service/timing\ATimingService.c **** 						}
 403:C:/data/workspaces/github/de.protos.demos/src/HexagonCANDemo/etrice.HexagonCANDemo.demo/src-gen-st/room/basic/service/timing\ATimingService.c **** }
 1617              		.loc 1 403 0
 1618 0058 07F11407 		add	r7, r7, #20
 1619 005c BD46     		mov	sp, r7
 1620 005e 80BC     		pop	{r7}
 1621 0060 7047     		bx	lr
 1622              		.cfi_endproc
 1623              	.LFE21:
 1625 0062 00BF     		.text
 1626              	.Letext0:
 1627              		.file 2 "C:\\data\\workspaces\\github\\de.protos.demos\\src\\HexagonCANDemo\\etrice.runtime.c\\etR
 1628              		.file 3 "C:\\data\\workspaces\\github\\de.protos.demos\\src\\HexagonCANDemo\\etrice.runtime.c\\etR
 1629              		.file 4 "C:\\data\\workspaces\\github\\de.protos.demos\\src\\HexagonCANDemo\\etrice.runtime.c\\etR
 1630              		.file 5 "C:\\data\\workspaces\\github\\de.protos.demos\\src\\HexagonCANDemo\\etrice.runtime.c\\etR
 1631              		.file 6 "C:\\data\\workspaces\\github\\de.protos.demos\\src\\HexagonCANDemo\\etrice.runtime.c\\etR
 1632              		.file 7 "C:\\data\\workspaces\\github\\de.protos.demos\\src\\HexagonCANDemo\\etrice.runtime.c\\etR
 1633              		.file 8 "C:\\data\\workspaces\\github\\de.protos.demos\\src\\HexagonCANDemo\\etrice.runtime.c\\etR
 1634              		.file 9 "C:\\data\\workspaces\\github\\de.protos.demos\\src\\HexagonCANDemo\\etrice.runtime.c\\etR
 1635              		.file 10 "C:\\data\\workspaces\\github\\de.protos.demos\\src\\HexagonCANDemo\\etrice.runtime.c\\et
 1636              		.file 11 "C:\\data\\workspaces\\github\\de.protos.demos\\src\\HexagonCANDemo\\etrice.runtime.c\\et
 1637              		.file 12 "C:\\data\\workspaces\\github\\de.protos.demos\\src\\HexagonCANDemo\\etrice.runtime.c\\et
 1638              		.file 13 "C:/data/workspaces/github/de.protos.demos/src/HexagonCANDemo/etrice.HexagonCANDemo.demo/