   1              		.syntax unified
   2              		.cpu cortex-m4
   3              		.eabi_attribute 27, 3
   4              		.fpu fpv4-sp-d16
   5              		.eabi_attribute 20, 1
   6              		.eabi_attribute 21, 1
   7              		.eabi_attribute 23, 3
   8              		.eabi_attribute 24, 1
   9              		.eabi_attribute 25, 1
  10              		.eabi_attribute 26, 1
  11              		.eabi_attribute 30, 6
  12              		.eabi_attribute 34, 1
  13              		.eabi_attribute 18, 4
  14              		.thumb
  15              		.file	"PTimer.c"
  16              		.text
  17              	.Ltext0:
  18              		.cfi_sections	.debug_frame
  19              		.section	.text.PTimerPort_timeout,"ax",%progbits
  20              		.align	2
  21              		.global	PTimerPort_timeout
  22              		.thumb
  23              		.thumb_func
  25              	PTimerPort_timeout:
  26              	.LFB0:
  27              		.file 1 "C:/data/workspaces/github/de.protos.demos/src/HexagonCANDemo/etrice.HexagonCANDemo.demo/s
   1:C:/data/workspaces/github/de.protos.demos/src/HexagonCANDemo/etrice.HexagonCANDemo.demo/src-gen-st/room/basic/service/timing\PTimer.c **** /**
   2:C:/data/workspaces/github/de.protos.demos/src/HexagonCANDemo/etrice.HexagonCANDemo.demo/src-gen-st/room/basic/service/timing\PTimer.c ****  * @author generated by eTrice
   3:C:/data/workspaces/github/de.protos.demos/src/HexagonCANDemo/etrice.HexagonCANDemo.demo/src-gen-st/room/basic/service/timing\PTimer.c ****  *
   4:C:/data/workspaces/github/de.protos.demos/src/HexagonCANDemo/etrice.HexagonCANDemo.demo/src-gen-st/room/basic/service/timing\PTimer.c ****  * Source File of ProtocolClass PTimer
   5:C:/data/workspaces/github/de.protos.demos/src/HexagonCANDemo/etrice.HexagonCANDemo.demo/src-gen-st/room/basic/service/timing\PTimer.c ****  * 
   6:C:/data/workspaces/github/de.protos.demos/src/HexagonCANDemo/etrice.HexagonCANDemo.demo/src-gen-st/room/basic/service/timing\PTimer.c ****  */
   7:C:/data/workspaces/github/de.protos.demos/src/HexagonCANDemo/etrice.HexagonCANDemo.demo/src-gen-st/room/basic/service/timing\PTimer.c **** 
   8:C:/data/workspaces/github/de.protos.demos/src/HexagonCANDemo/etrice.HexagonCANDemo.demo/src-gen-st/room/basic/service/timing\PTimer.c **** #include "PTimer.h"
   9:C:/data/workspaces/github/de.protos.demos/src/HexagonCANDemo/etrice.HexagonCANDemo.demo/src-gen-st/room/basic/service/timing\PTimer.c **** #include "debugging/etMSCLogger.h"
  10:C:/data/workspaces/github/de.protos.demos/src/HexagonCANDemo/etrice.HexagonCANDemo.demo/src-gen-st/room/basic/service/timing\PTimer.c **** #include "PTimer_Utils.h"
  11:C:/data/workspaces/github/de.protos.demos/src/HexagonCANDemo/etrice.HexagonCANDemo.demo/src-gen-st/room/basic/service/timing\PTimer.c **** 
  12:C:/data/workspaces/github/de.protos.demos/src/HexagonCANDemo/etrice.HexagonCANDemo.demo/src-gen-st/room/basic/service/timing\PTimer.c **** 
  13:C:/data/workspaces/github/de.protos.demos/src/HexagonCANDemo/etrice.HexagonCANDemo.demo/src-gen-st/room/basic/service/timing\PTimer.c **** /*--------------------- port methods */
  14:C:/data/workspaces/github/de.protos.demos/src/HexagonCANDemo/etrice.HexagonCANDemo.demo/src-gen-st/room/basic/service/timing\PTimer.c **** 
  15:C:/data/workspaces/github/de.protos.demos/src/HexagonCANDemo/etrice.HexagonCANDemo.demo/src-gen-st/room/basic/service/timing\PTimer.c **** void PTimerPort_timeout(const PTimerPort* self) {
  28              		.loc 1 15 0
  29              		.cfi_startproc
  30              		@ args = 0, pretend = 0, frame = 8
  31              		@ frame_needed = 1, uses_anonymous_args = 0
  32 0000 80B5     		push	{r7, lr}
  33              	.LCFI0:
  34              		.cfi_def_cfa_offset 8
  35              		.cfi_offset 7, -8
  36              		.cfi_offset 14, -4
  37 0002 82B0     		sub	sp, sp, #8
  38              	.LCFI1:
  39              		.cfi_def_cfa_offset 16
  40 0004 00AF     		add	r7, sp, #0
  41              	.LCFI2:
  42              		.cfi_def_cfa_register 7
  43 0006 7860     		str	r0, [r7, #4]
  16:C:/data/workspaces/github/de.protos.demos/src/HexagonCANDemo/etrice.HexagonCANDemo.demo/src-gen-st/room/basic/service/timing\PTimer.c **** 	ET_MSC_LOGGER_SYNC_ENTRY("PTimerPort", "timeout")
  17:C:/data/workspaces/github/de.protos.demos/src/HexagonCANDemo/etrice.HexagonCANDemo.demo/src-gen-st/room/basic/service/timing\PTimer.c **** 		etPort_sendMessage(self, PTimer_OUT_timeout, 0, NULL);
  44              		.loc 1 17 0
  45 0008 7868     		ldr	r0, [r7, #4]
  46 000a 4FF00101 		mov	r1, #1
  47 000e 4FF00002 		mov	r2, #0
  48 0012 4FF00003 		mov	r3, #0
  49 0016 FFF7FEFF 		bl	etPort_sendMessage
  18:C:/data/workspaces/github/de.protos.demos/src/HexagonCANDemo/etrice.HexagonCANDemo.demo/src-gen-st/room/basic/service/timing\PTimer.c **** 	ET_MSC_LOGGER_SYNC_EXIT
  19:C:/data/workspaces/github/de.protos.demos/src/HexagonCANDemo/etrice.HexagonCANDemo.demo/src-gen-st/room/basic/service/timing\PTimer.c **** }
  50              		.loc 1 19 0
  51 001a 07F10807 		add	r7, r7, #8
  52 001e BD46     		mov	sp, r7
  53 0020 80BD     		pop	{r7, pc}
  54              		.cfi_endproc
  55              	.LFE0:
  57 0022 00BF     		.section	.text.PTimerReplPort_timeout_broadcast,"ax",%progbits
  58              		.align	2
  59              		.global	PTimerReplPort_timeout_broadcast
  60              		.thumb
  61              		.thumb_func
  63              	PTimerReplPort_timeout_broadcast:
  64              	.LFB1:
  20:C:/data/workspaces/github/de.protos.demos/src/HexagonCANDemo/etrice.HexagonCANDemo.demo/src-gen-st/room/basic/service/timing\PTimer.c **** 
  21:C:/data/workspaces/github/de.protos.demos/src/HexagonCANDemo/etrice.HexagonCANDemo.demo/src-gen-st/room/basic/service/timing\PTimer.c **** void PTimerReplPort_timeout_broadcast(const PTimerReplPort* self) {
  65              		.loc 1 21 0
  66              		.cfi_startproc
  67              		@ args = 0, pretend = 0, frame = 16
  68              		@ frame_needed = 1, uses_anonymous_args = 0
  69 0000 80B5     		push	{r7, lr}
  70              	.LCFI3:
  71              		.cfi_def_cfa_offset 8
  72              		.cfi_offset 7, -8
  73              		.cfi_offset 14, -4
  74 0002 84B0     		sub	sp, sp, #16
  75              	.LCFI4:
  76              		.cfi_def_cfa_offset 24
  77 0004 00AF     		add	r7, sp, #0
  78              	.LCFI5:
  79              		.cfi_def_cfa_register 7
  80 0006 7860     		str	r0, [r7, #4]
  22:C:/data/workspaces/github/de.protos.demos/src/HexagonCANDemo/etrice.HexagonCANDemo.demo/src-gen-st/room/basic/service/timing\PTimer.c **** 	int i;
  23:C:/data/workspaces/github/de.protos.demos/src/HexagonCANDemo/etrice.HexagonCANDemo.demo/src-gen-st/room/basic/service/timing\PTimer.c **** 	ET_MSC_LOGGER_SYNC_ENTRY("PTimerReplPort", "timeout")
  24:C:/data/workspaces/github/de.protos.demos/src/HexagonCANDemo/etrice.HexagonCANDemo.demo/src-gen-st/room/basic/service/timing\PTimer.c **** 	for (i=0; i<((etReplPort*)self)->size; ++i) {
  81              		.loc 1 24 0
  82 0008 4FF00003 		mov	r3, #0
  83 000c FB60     		str	r3, [r7, #12]
  84 000e 12E0     		b	.L3
  85              	.L4:
  25:C:/data/workspaces/github/de.protos.demos/src/HexagonCANDemo/etrice.HexagonCANDemo.demo/src-gen-st/room/basic/service/timing\PTimer.c **** 		etPort_sendMessage((&((etReplPort*)self)->ports[i].port), PTimer_OUT_timeout, 0, NULL);
  86              		.loc 1 25 0 discriminator 2
  87 0010 7B68     		ldr	r3, [r7, #4]
  88 0012 5A68     		ldr	r2, [r3, #4]
  89 0014 FB68     		ldr	r3, [r7, #12]
  90 0016 4FEA0313 		lsl	r3, r3, #4
  91 001a D318     		adds	r3, r2, r3
  92 001c 1846     		mov	r0, r3
  93 001e 4FF00101 		mov	r1, #1
  94 0022 4FF00002 		mov	r2, #0
  95 0026 4FF00003 		mov	r3, #0
  96 002a FFF7FEFF 		bl	etPort_sendMessage
  24:C:/data/workspaces/github/de.protos.demos/src/HexagonCANDemo/etrice.HexagonCANDemo.demo/src-gen-st/room/basic/service/timing\PTimer.c **** 	for (i=0; i<((etReplPort*)self)->size; ++i) {
  97              		.loc 1 24 0 discriminator 2
  98 002e FB68     		ldr	r3, [r7, #12]
  99 0030 03F10103 		add	r3, r3, #1
 100 0034 FB60     		str	r3, [r7, #12]
 101              	.L3:
  24:C:/data/workspaces/github/de.protos.demos/src/HexagonCANDemo/etrice.HexagonCANDemo.demo/src-gen-st/room/basic/service/timing\PTimer.c **** 	for (i=0; i<((etReplPort*)self)->size; ++i) {
 102              		.loc 1 24 0 is_stmt 0 discriminator 1
 103 0036 7B68     		ldr	r3, [r7, #4]
 104 0038 1B88     		ldrh	r3, [r3, #0]
 105 003a 1AB2     		sxth	r2, r3
 106 003c FB68     		ldr	r3, [r7, #12]
 107 003e 9A42     		cmp	r2, r3
 108 0040 E6DC     		bgt	.L4
  26:C:/data/workspaces/github/de.protos.demos/src/HexagonCANDemo/etrice.HexagonCANDemo.demo/src-gen-st/room/basic/service/timing\PTimer.c **** 	}
  27:C:/data/workspaces/github/de.protos.demos/src/HexagonCANDemo/etrice.HexagonCANDemo.demo/src-gen-st/room/basic/service/timing\PTimer.c **** 	ET_MSC_LOGGER_SYNC_EXIT
  28:C:/data/workspaces/github/de.protos.demos/src/HexagonCANDemo/etrice.HexagonCANDemo.demo/src-gen-st/room/basic/service/timing\PTimer.c **** }
 109              		.loc 1 28 0 is_stmt 1
 110 0042 07F11007 		add	r7, r7, #16
 111 0046 BD46     		mov	sp, r7
 112 0048 80BD     		pop	{r7, pc}
 113              		.cfi_endproc
 114              	.LFE1:
 116 004a 00BF     		.section	.text.PTimerReplPort_timeout,"ax",%progbits
 117              		.align	2
 118              		.global	PTimerReplPort_timeout
 119              		.thumb
 120              		.thumb_func
 122              	PTimerReplPort_timeout:
 123              	.LFB2:
  29:C:/data/workspaces/github/de.protos.demos/src/HexagonCANDemo/etrice.HexagonCANDemo.demo/src-gen-st/room/basic/service/timing\PTimer.c **** 
  30:C:/data/workspaces/github/de.protos.demos/src/HexagonCANDemo/etrice.HexagonCANDemo.demo/src-gen-st/room/basic/service/timing\PTimer.c **** void PTimerReplPort_timeout(const PTimerReplPort* self, int idx__et) {
 124              		.loc 1 30 0
 125              		.cfi_startproc
 126              		@ args = 0, pretend = 0, frame = 8
 127              		@ frame_needed = 1, uses_anonymous_args = 0
 128 0000 80B5     		push	{r7, lr}
 129              	.LCFI6:
 130              		.cfi_def_cfa_offset 8
 131              		.cfi_offset 7, -8
 132              		.cfi_offset 14, -4
 133 0002 82B0     		sub	sp, sp, #8
 134              	.LCFI7:
 135              		.cfi_def_cfa_offset 16
 136 0004 00AF     		add	r7, sp, #0
 137              	.LCFI8:
 138              		.cfi_def_cfa_register 7
 139 0006 7860     		str	r0, [r7, #4]
 140 0008 3960     		str	r1, [r7, #0]
  31:C:/data/workspaces/github/de.protos.demos/src/HexagonCANDemo/etrice.HexagonCANDemo.demo/src-gen-st/room/basic/service/timing\PTimer.c **** 	ET_MSC_LOGGER_SYNC_ENTRY("PTimerReplPort", "timeout")
  32:C:/data/workspaces/github/de.protos.demos/src/HexagonCANDemo/etrice.HexagonCANDemo.demo/src-gen-st/room/basic/service/timing\PTimer.c **** 	if (0<=idx__et && idx__et<((etReplPort*)self)->size) {
 141              		.loc 1 32 0
 142 000a 3B68     		ldr	r3, [r7, #0]
 143 000c 002B     		cmp	r3, #0
 144 000e 14DB     		blt	.L5
 145              		.loc 1 32 0 is_stmt 0 discriminator 1
 146 0010 7B68     		ldr	r3, [r7, #4]
 147 0012 1B88     		ldrh	r3, [r3, #0]
 148 0014 1AB2     		sxth	r2, r3
 149 0016 3B68     		ldr	r3, [r7, #0]
 150 0018 9A42     		cmp	r2, r3
 151 001a 0EDD     		ble	.L5
  33:C:/data/workspaces/github/de.protos.demos/src/HexagonCANDemo/etrice.HexagonCANDemo.demo/src-gen-st/room/basic/service/timing\PTimer.c **** 		etPort_sendMessage((&((etReplPort*)self)->ports[idx__et].port), PTimer_OUT_timeout, 0, NULL);
 152              		.loc 1 33 0 is_stmt 1
 153 001c 7B68     		ldr	r3, [r7, #4]
 154 001e 5A68     		ldr	r2, [r3, #4]
 155 0020 3B68     		ldr	r3, [r7, #0]
 156 0022 4FEA0313 		lsl	r3, r3, #4
 157 0026 D318     		adds	r3, r2, r3
 158 0028 1846     		mov	r0, r3
 159 002a 4FF00101 		mov	r1, #1
 160 002e 4FF00002 		mov	r2, #0
 161 0032 4FF00003 		mov	r3, #0
 162 0036 FFF7FEFF 		bl	etPort_sendMessage
 163              	.L5:
  34:C:/data/workspaces/github/de.protos.demos/src/HexagonCANDemo/etrice.HexagonCANDemo.demo/src-gen-st/room/basic/service/timing\PTimer.c **** 	}
  35:C:/data/workspaces/github/de.protos.demos/src/HexagonCANDemo/etrice.HexagonCANDemo.demo/src-gen-st/room/basic/service/timing\PTimer.c **** 	ET_MSC_LOGGER_SYNC_EXIT
  36:C:/data/workspaces/github/de.protos.demos/src/HexagonCANDemo/etrice.HexagonCANDemo.demo/src-gen-st/room/basic/service/timing\PTimer.c **** }
 164              		.loc 1 36 0
 165 003a 07F10807 		add	r7, r7, #8
 166 003e BD46     		mov	sp, r7
 167 0040 80BD     		pop	{r7, pc}
 168              		.cfi_endproc
 169              	.LFE2:
 171 0042 00BF     		.section	.text.PTimerReplPort_getReplication,"ax",%progbits
 172              		.align	2
 173              		.global	PTimerReplPort_getReplication
 174              		.thumb
 175              		.thumb_func
 177              	PTimerReplPort_getReplication:
 178              	.LFB3:
  37:C:/data/workspaces/github/de.protos.demos/src/HexagonCANDemo/etrice.HexagonCANDemo.demo/src-gen-st/room/basic/service/timing\PTimer.c **** 
  38:C:/data/workspaces/github/de.protos.demos/src/HexagonCANDemo/etrice.HexagonCANDemo.demo/src-gen-st/room/basic/service/timing\PTimer.c **** etInt32 PTimerReplPort_getReplication(const PTimerReplPort* self) {
 179              		.loc 1 38 0
 180              		.cfi_startproc
 181              		@ args = 0, pretend = 0, frame = 8
 182              		@ frame_needed = 1, uses_anonymous_args = 0
 183              		@ link register save eliminated.
 184 0000 80B4     		push	{r7}
 185              	.LCFI9:
 186              		.cfi_def_cfa_offset 4
 187              		.cfi_offset 7, -4
 188 0002 83B0     		sub	sp, sp, #12
 189              	.LCFI10:
 190              		.cfi_def_cfa_offset 16
 191 0004 00AF     		add	r7, sp, #0
 192              	.LCFI11:
 193              		.cfi_def_cfa_register 7
 194 0006 7860     		str	r0, [r7, #4]
  39:C:/data/workspaces/github/de.protos.demos/src/HexagonCANDemo/etrice.HexagonCANDemo.demo/src-gen-st/room/basic/service/timing\PTimer.c **** 	return ((etReplPort*)self)->size;
 195              		.loc 1 39 0
 196 0008 7B68     		ldr	r3, [r7, #4]
 197 000a 1B88     		ldrh	r3, [r3, #0]
 198 000c 1BB2     		sxth	r3, r3
  40:C:/data/workspaces/github/de.protos.demos/src/HexagonCANDemo/etrice.HexagonCANDemo.demo/src-gen-st/room/basic/service/timing\PTimer.c **** }
 199              		.loc 1 40 0
 200 000e 1846     		mov	r0, r3
 201 0010 07F10C07 		add	r7, r7, #12
 202 0014 BD46     		mov	sp, r7
 203 0016 80BC     		pop	{r7}
 204 0018 7047     		bx	lr
 205              		.cfi_endproc
 206              	.LFE3:
 208 001a 00BF     		.section	.text.PTimerConjPort_startTimer,"ax",%progbits
 209              		.align	2
 210              		.global	PTimerConjPort_startTimer
 211              		.thumb
 212              		.thumb_func
 214              	PTimerConjPort_startTimer:
 215              	.LFB4:
  41:C:/data/workspaces/github/de.protos.demos/src/HexagonCANDemo/etrice.HexagonCANDemo.demo/src-gen-st/room/basic/service/timing\PTimer.c **** 
  42:C:/data/workspaces/github/de.protos.demos/src/HexagonCANDemo/etrice.HexagonCANDemo.demo/src-gen-st/room/basic/service/timing\PTimer.c **** 
  43:C:/data/workspaces/github/de.protos.demos/src/HexagonCANDemo/etrice.HexagonCANDemo.demo/src-gen-st/room/basic/service/timing\PTimer.c **** 
  44:C:/data/workspaces/github/de.protos.demos/src/HexagonCANDemo/etrice.HexagonCANDemo.demo/src-gen-st/room/basic/service/timing\PTimer.c **** void PTimerConjPort_startTimer(const PTimerConjPort* self, uint32 data__et) {
 216              		.loc 1 44 0
 217              		.cfi_startproc
 218              		@ args = 0, pretend = 0, frame = 8
 219              		@ frame_needed = 1, uses_anonymous_args = 0
 220 0000 80B5     		push	{r7, lr}
 221              	.LCFI12:
 222              		.cfi_def_cfa_offset 8
 223              		.cfi_offset 7, -8
 224              		.cfi_offset 14, -4
 225 0002 82B0     		sub	sp, sp, #8
 226              	.LCFI13:
 227              		.cfi_def_cfa_offset 16
 228 0004 00AF     		add	r7, sp, #0
 229              	.LCFI14:
 230              		.cfi_def_cfa_register 7
 231 0006 7860     		str	r0, [r7, #4]
 232 0008 3960     		str	r1, [r7, #0]
  45:C:/data/workspaces/github/de.protos.demos/src/HexagonCANDemo/etrice.HexagonCANDemo.demo/src-gen-st/room/basic/service/timing\PTimer.c **** 	if (status==0){
 233              		.loc 1 45 0
 234 000a 7B68     		ldr	r3, [r7, #4]
 235 000c 1B68     		ldr	r3, [r3, #0]
 236 000e 1B78     		ldrb	r3, [r3, #0]	@ zero_extendqisi2
 237 0010 002B     		cmp	r3, #0
 238 0012 0CD1     		bne	.L9
  46:C:/data/workspaces/github/de.protos.demos/src/HexagonCANDemo/etrice.HexagonCANDemo.demo/src-gen-st/room/basic/service/timing\PTimer.c **** 					status=ET_TIMER_RUNNING | ET_TIMER_PERIODIC;
 239              		.loc 1 46 0
 240 0014 7B68     		ldr	r3, [r7, #4]
 241 0016 1B68     		ldr	r3, [r3, #0]
 242 0018 4FF00302 		mov	r2, #3
 243 001c 1A70     		strb	r2, [r3, #0]
  47:C:/data/workspaces/github/de.protos.demos/src/HexagonCANDemo/etrice.HexagonCANDemo.demo/src-gen-st/room/basic/service/timing\PTimer.c **** 					etPort_sendMessage(self, PTimer_IN_startTimer, sizeof(int32), &data__et);
 244              		.loc 1 47 0
 245 001e 3B46     		mov	r3, r7
 246 0020 7868     		ldr	r0, [r7, #4]
 247 0022 4FF00201 		mov	r1, #2
 248 0026 4FF00402 		mov	r2, #4
 249 002a FFF7FEFF 		bl	etPort_sendMessage
 250              	.L9:
  48:C:/data/workspaces/github/de.protos.demos/src/HexagonCANDemo/etrice.HexagonCANDemo.demo/src-gen-st/room/basic/service/timing\PTimer.c **** 					}
  49:C:/data/workspaces/github/de.protos.demos/src/HexagonCANDemo/etrice.HexagonCANDemo.demo/src-gen-st/room/basic/service/timing\PTimer.c **** }
 251              		.loc 1 49 0
 252 002e 07F10807 		add	r7, r7, #8
 253 0032 BD46     		mov	sp, r7
 254 0034 80BD     		pop	{r7, pc}
 255              		.cfi_endproc
 256              	.LFE4:
 258 0036 00BF     		.section	.text.PTimerConjReplPort_startTimer_broadcast,"ax",%progbits
 259              		.align	2
 260              		.global	PTimerConjReplPort_startTimer_broadcast
 261              		.thumb
 262              		.thumb_func
 264              	PTimerConjReplPort_startTimer_broadcast:
 265              	.LFB5:
  50:C:/data/workspaces/github/de.protos.demos/src/HexagonCANDemo/etrice.HexagonCANDemo.demo/src-gen-st/room/basic/service/timing\PTimer.c **** 
  51:C:/data/workspaces/github/de.protos.demos/src/HexagonCANDemo/etrice.HexagonCANDemo.demo/src-gen-st/room/basic/service/timing\PTimer.c **** void PTimerConjReplPort_startTimer_broadcast(const PTimerConjReplPort* self, uint32 data__et) {
 266              		.loc 1 51 0
 267              		.cfi_startproc
 268              		@ args = 0, pretend = 0, frame = 16
 269              		@ frame_needed = 1, uses_anonymous_args = 0
 270 0000 80B5     		push	{r7, lr}
 271              	.LCFI15:
 272              		.cfi_def_cfa_offset 8
 273              		.cfi_offset 7, -8
 274              		.cfi_offset 14, -4
 275 0002 84B0     		sub	sp, sp, #16
 276              	.LCFI16:
 277              		.cfi_def_cfa_offset 24
 278 0004 00AF     		add	r7, sp, #0
 279              	.LCFI17:
 280              		.cfi_def_cfa_register 7
 281 0006 7860     		str	r0, [r7, #4]
 282 0008 3960     		str	r1, [r7, #0]
  52:C:/data/workspaces/github/de.protos.demos/src/HexagonCANDemo/etrice.HexagonCANDemo.demo/src-gen-st/room/basic/service/timing\PTimer.c **** 	int i;
  53:C:/data/workspaces/github/de.protos.demos/src/HexagonCANDemo/etrice.HexagonCANDemo.demo/src-gen-st/room/basic/service/timing\PTimer.c **** 	for (i=0; i<((etReplPort*)self)->size; ++i) {
 283              		.loc 1 53 0
 284 000a 4FF00003 		mov	r3, #0
 285 000e FB60     		str	r3, [r7, #12]
 286 0010 0DE0     		b	.L12
 287              	.L13:
  54:C:/data/workspaces/github/de.protos.demos/src/HexagonCANDemo/etrice.HexagonCANDemo.demo/src-gen-st/room/basic/service/timing\PTimer.c **** 		PTimerConjPort_startTimer(&((etReplPort*)self)->ports[i].port, data__et);
 288              		.loc 1 54 0 discriminator 2
 289 0012 7B68     		ldr	r3, [r7, #4]
 290 0014 5A68     		ldr	r2, [r3, #4]
 291 0016 FB68     		ldr	r3, [r7, #12]
 292 0018 4FEA0313 		lsl	r3, r3, #4
 293 001c D318     		adds	r3, r2, r3
 294 001e 1846     		mov	r0, r3
 295 0020 3968     		ldr	r1, [r7, #0]
 296 0022 FFF7FEFF 		bl	PTimerConjPort_startTimer
  53:C:/data/workspaces/github/de.protos.demos/src/HexagonCANDemo/etrice.HexagonCANDemo.demo/src-gen-st/room/basic/service/timing\PTimer.c **** 	for (i=0; i<((etReplPort*)self)->size; ++i) {
 297              		.loc 1 53 0 discriminator 2
 298 0026 FB68     		ldr	r3, [r7, #12]
 299 0028 03F10103 		add	r3, r3, #1
 300 002c FB60     		str	r3, [r7, #12]
 301              	.L12:
  53:C:/data/workspaces/github/de.protos.demos/src/HexagonCANDemo/etrice.HexagonCANDemo.demo/src-gen-st/room/basic/service/timing\PTimer.c **** 	for (i=0; i<((etReplPort*)self)->size; ++i) {
 302              		.loc 1 53 0 is_stmt 0 discriminator 1
 303 002e 7B68     		ldr	r3, [r7, #4]
 304 0030 1B88     		ldrh	r3, [r3, #0]
 305 0032 1AB2     		sxth	r2, r3
 306 0034 FB68     		ldr	r3, [r7, #12]
 307 0036 9A42     		cmp	r2, r3
 308 0038 EBDC     		bgt	.L13
  55:C:/data/workspaces/github/de.protos.demos/src/HexagonCANDemo/etrice.HexagonCANDemo.demo/src-gen-st/room/basic/service/timing\PTimer.c **** 	}					
  56:C:/data/workspaces/github/de.protos.demos/src/HexagonCANDemo/etrice.HexagonCANDemo.demo/src-gen-st/room/basic/service/timing\PTimer.c **** }
 309              		.loc 1 56 0 is_stmt 1
 310 003a 07F11007 		add	r7, r7, #16
 311 003e BD46     		mov	sp, r7
 312 0040 80BD     		pop	{r7, pc}
 313              		.cfi_endproc
 314              	.LFE5:
 316 0042 00BF     		.section	.text.PTimerConjReplPort_startTimer,"ax",%progbits
 317              		.align	2
 318              		.global	PTimerConjReplPort_startTimer
 319              		.thumb
 320              		.thumb_func
 322              	PTimerConjReplPort_startTimer:
 323              	.LFB6:
  57:C:/data/workspaces/github/de.protos.demos/src/HexagonCANDemo/etrice.HexagonCANDemo.demo/src-gen-st/room/basic/service/timing\PTimer.c **** 
  58:C:/data/workspaces/github/de.protos.demos/src/HexagonCANDemo/etrice.HexagonCANDemo.demo/src-gen-st/room/basic/service/timing\PTimer.c **** void PTimerConjReplPort_startTimer(const PTimerConjReplPort* self, int idx__et, uint32 data__et) {
 324              		.loc 1 58 0
 325              		.cfi_startproc
 326              		@ args = 0, pretend = 0, frame = 16
 327              		@ frame_needed = 1, uses_anonymous_args = 0
 328 0000 80B5     		push	{r7, lr}
 329              	.LCFI18:
 330              		.cfi_def_cfa_offset 8
 331              		.cfi_offset 7, -8
 332              		.cfi_offset 14, -4
 333 0002 84B0     		sub	sp, sp, #16
 334              	.LCFI19:
 335              		.cfi_def_cfa_offset 24
 336 0004 00AF     		add	r7, sp, #0
 337              	.LCFI20:
 338              		.cfi_def_cfa_register 7
 339 0006 F860     		str	r0, [r7, #12]
 340 0008 B960     		str	r1, [r7, #8]
 341 000a 7A60     		str	r2, [r7, #4]
  59:C:/data/workspaces/github/de.protos.demos/src/HexagonCANDemo/etrice.HexagonCANDemo.demo/src-gen-st/room/basic/service/timing\PTimer.c **** 	PTimerConjPort_startTimer(&((etReplPort*)self)->ports[idx__et].port, data__et);
 342              		.loc 1 59 0
 343 000c FB68     		ldr	r3, [r7, #12]
 344 000e 5A68     		ldr	r2, [r3, #4]
 345 0010 BB68     		ldr	r3, [r7, #8]
 346 0012 4FEA0313 		lsl	r3, r3, #4
 347 0016 D318     		adds	r3, r2, r3
 348 0018 1846     		mov	r0, r3
 349 001a 7968     		ldr	r1, [r7, #4]
 350 001c FFF7FEFF 		bl	PTimerConjPort_startTimer
  60:C:/data/workspaces/github/de.protos.demos/src/HexagonCANDemo/etrice.HexagonCANDemo.demo/src-gen-st/room/basic/service/timing\PTimer.c **** }
 351              		.loc 1 60 0
 352 0020 07F11007 		add	r7, r7, #16
 353 0024 BD46     		mov	sp, r7
 354 0026 80BD     		pop	{r7, pc}
 355              		.cfi_endproc
 356              	.LFE6:
 358              		.section	.text.PTimerConjPort_startTimeout,"ax",%progbits
 359              		.align	2
 360              		.global	PTimerConjPort_startTimeout
 361              		.thumb
 362              		.thumb_func
 364              	PTimerConjPort_startTimeout:
 365              	.LFB7:
  61:C:/data/workspaces/github/de.protos.demos/src/HexagonCANDemo/etrice.HexagonCANDemo.demo/src-gen-st/room/basic/service/timing\PTimer.c **** 
  62:C:/data/workspaces/github/de.protos.demos/src/HexagonCANDemo/etrice.HexagonCANDemo.demo/src-gen-st/room/basic/service/timing\PTimer.c **** 
  63:C:/data/workspaces/github/de.protos.demos/src/HexagonCANDemo/etrice.HexagonCANDemo.demo/src-gen-st/room/basic/service/timing\PTimer.c **** void PTimerConjPort_startTimeout(const PTimerConjPort* self, uint32 data__et) {
 366              		.loc 1 63 0
 367              		.cfi_startproc
 368              		@ args = 0, pretend = 0, frame = 8
 369              		@ frame_needed = 1, uses_anonymous_args = 0
 370 0000 80B5     		push	{r7, lr}
 371              	.LCFI21:
 372              		.cfi_def_cfa_offset 8
 373              		.cfi_offset 7, -8
 374              		.cfi_offset 14, -4
 375 0002 82B0     		sub	sp, sp, #8
 376              	.LCFI22:
 377              		.cfi_def_cfa_offset 16
 378 0004 00AF     		add	r7, sp, #0
 379              	.LCFI23:
 380              		.cfi_def_cfa_register 7
 381 0006 7860     		str	r0, [r7, #4]
 382 0008 3960     		str	r1, [r7, #0]
  64:C:/data/workspaces/github/de.protos.demos/src/HexagonCANDemo/etrice.HexagonCANDemo.demo/src-gen-st/room/basic/service/timing\PTimer.c **** 	if (status==0){
 383              		.loc 1 64 0
 384 000a 7B68     		ldr	r3, [r7, #4]
 385 000c 1B68     		ldr	r3, [r3, #0]
 386 000e 1B78     		ldrb	r3, [r3, #0]	@ zero_extendqisi2
 387 0010 002B     		cmp	r3, #0
 388 0012 0CD1     		bne	.L15
  65:C:/data/workspaces/github/de.protos.demos/src/HexagonCANDemo/etrice.HexagonCANDemo.demo/src-gen-st/room/basic/service/timing\PTimer.c **** 					status = ET_TIMER_RUNNING;
 389              		.loc 1 65 0
 390 0014 7B68     		ldr	r3, [r7, #4]
 391 0016 1B68     		ldr	r3, [r3, #0]
 392 0018 4FF00102 		mov	r2, #1
 393 001c 1A70     		strb	r2, [r3, #0]
  66:C:/data/workspaces/github/de.protos.demos/src/HexagonCANDemo/etrice.HexagonCANDemo.demo/src-gen-st/room/basic/service/timing\PTimer.c **** 					etPort_sendMessage(self, PTimer_IN_startTimeout, sizeof(int32), &data__et);
 394              		.loc 1 66 0
 395 001e 3B46     		mov	r3, r7
 396 0020 7868     		ldr	r0, [r7, #4]
 397 0022 4FF00301 		mov	r1, #3
 398 0026 4FF00402 		mov	r2, #4
 399 002a FFF7FEFF 		bl	etPort_sendMessage
 400              	.L15:
  67:C:/data/workspaces/github/de.protos.demos/src/HexagonCANDemo/etrice.HexagonCANDemo.demo/src-gen-st/room/basic/service/timing\PTimer.c **** 					}
  68:C:/data/workspaces/github/de.protos.demos/src/HexagonCANDemo/etrice.HexagonCANDemo.demo/src-gen-st/room/basic/service/timing\PTimer.c **** }
 401              		.loc 1 68 0
 402 002e 07F10807 		add	r7, r7, #8
 403 0032 BD46     		mov	sp, r7
 404 0034 80BD     		pop	{r7, pc}
 405              		.cfi_endproc
 406              	.LFE7:
 408 0036 00BF     		.section	.text.PTimerConjReplPort_startTimeout_broadcast,"ax",%progbits
 409              		.align	2
 410              		.global	PTimerConjReplPort_startTimeout_broadcast
 411              		.thumb
 412              		.thumb_func
 414              	PTimerConjReplPort_startTimeout_broadcast:
 415              	.LFB8:
  69:C:/data/workspaces/github/de.protos.demos/src/HexagonCANDemo/etrice.HexagonCANDemo.demo/src-gen-st/room/basic/service/timing\PTimer.c **** 
  70:C:/data/workspaces/github/de.protos.demos/src/HexagonCANDemo/etrice.HexagonCANDemo.demo/src-gen-st/room/basic/service/timing\PTimer.c **** void PTimerConjReplPort_startTimeout_broadcast(const PTimerConjReplPort* self, uint32 data__et) {
 416              		.loc 1 70 0
 417              		.cfi_startproc
 418              		@ args = 0, pretend = 0, frame = 16
 419              		@ frame_needed = 1, uses_anonymous_args = 0
 420 0000 80B5     		push	{r7, lr}
 421              	.LCFI24:
 422              		.cfi_def_cfa_offset 8
 423              		.cfi_offset 7, -8
 424              		.cfi_offset 14, -4
 425 0002 84B0     		sub	sp, sp, #16
 426              	.LCFI25:
 427              		.cfi_def_cfa_offset 24
 428 0004 00AF     		add	r7, sp, #0
 429              	.LCFI26:
 430              		.cfi_def_cfa_register 7
 431 0006 7860     		str	r0, [r7, #4]
 432 0008 3960     		str	r1, [r7, #0]
  71:C:/data/workspaces/github/de.protos.demos/src/HexagonCANDemo/etrice.HexagonCANDemo.demo/src-gen-st/room/basic/service/timing\PTimer.c **** 	int i;
  72:C:/data/workspaces/github/de.protos.demos/src/HexagonCANDemo/etrice.HexagonCANDemo.demo/src-gen-st/room/basic/service/timing\PTimer.c **** 	for (i=0; i<((etReplPort*)self)->size; ++i) {
 433              		.loc 1 72 0
 434 000a 4FF00003 		mov	r3, #0
 435 000e FB60     		str	r3, [r7, #12]
 436 0010 0DE0     		b	.L18
 437              	.L19:
  73:C:/data/workspaces/github/de.protos.demos/src/HexagonCANDemo/etrice.HexagonCANDemo.demo/src-gen-st/room/basic/service/timing\PTimer.c **** 		PTimerConjPort_startTimeout(&((etReplPort*)self)->ports[i].port, data__et);
 438              		.loc 1 73 0 discriminator 2
 439 0012 7B68     		ldr	r3, [r7, #4]
 440 0014 5A68     		ldr	r2, [r3, #4]
 441 0016 FB68     		ldr	r3, [r7, #12]
 442 0018 4FEA0313 		lsl	r3, r3, #4
 443 001c D318     		adds	r3, r2, r3
 444 001e 1846     		mov	r0, r3
 445 0020 3968     		ldr	r1, [r7, #0]
 446 0022 FFF7FEFF 		bl	PTimerConjPort_startTimeout
  72:C:/data/workspaces/github/de.protos.demos/src/HexagonCANDemo/etrice.HexagonCANDemo.demo/src-gen-st/room/basic/service/timing\PTimer.c **** 	for (i=0; i<((etReplPort*)self)->size; ++i) {
 447              		.loc 1 72 0 discriminator 2
 448 0026 FB68     		ldr	r3, [r7, #12]
 449 0028 03F10103 		add	r3, r3, #1
 450 002c FB60     		str	r3, [r7, #12]
 451              	.L18:
  72:C:/data/workspaces/github/de.protos.demos/src/HexagonCANDemo/etrice.HexagonCANDemo.demo/src-gen-st/room/basic/service/timing\PTimer.c **** 	for (i=0; i<((etReplPort*)self)->size; ++i) {
 452              		.loc 1 72 0 is_stmt 0 discriminator 1
 453 002e 7B68     		ldr	r3, [r7, #4]
 454 0030 1B88     		ldrh	r3, [r3, #0]
 455 0032 1AB2     		sxth	r2, r3
 456 0034 FB68     		ldr	r3, [r7, #12]
 457 0036 9A42     		cmp	r2, r3
 458 0038 EBDC     		bgt	.L19
  74:C:/data/workspaces/github/de.protos.demos/src/HexagonCANDemo/etrice.HexagonCANDemo.demo/src-gen-st/room/basic/service/timing\PTimer.c **** 	}					
  75:C:/data/workspaces/github/de.protos.demos/src/HexagonCANDemo/etrice.HexagonCANDemo.demo/src-gen-st/room/basic/service/timing\PTimer.c **** }
 459              		.loc 1 75 0 is_stmt 1
 460 003a 07F11007 		add	r7, r7, #16
 461 003e BD46     		mov	sp, r7
 462 0040 80BD     		pop	{r7, pc}
 463              		.cfi_endproc
 464              	.LFE8:
 466 0042 00BF     		.section	.text.PTimerConjReplPort_startTimeout,"ax",%progbits
 467              		.align	2
 468              		.global	PTimerConjReplPort_startTimeout
 469              		.thumb
 470              		.thumb_func
 472              	PTimerConjReplPort_startTimeout:
 473              	.LFB9:
  76:C:/data/workspaces/github/de.protos.demos/src/HexagonCANDemo/etrice.HexagonCANDemo.demo/src-gen-st/room/basic/service/timing\PTimer.c **** 
  77:C:/data/workspaces/github/de.protos.demos/src/HexagonCANDemo/etrice.HexagonCANDemo.demo/src-gen-st/room/basic/service/timing\PTimer.c **** void PTimerConjReplPort_startTimeout(const PTimerConjReplPort* self, int idx__et, uint32 data__et) 
 474              		.loc 1 77 0
 475              		.cfi_startproc
 476              		@ args = 0, pretend = 0, frame = 16
 477              		@ frame_needed = 1, uses_anonymous_args = 0
 478 0000 80B5     		push	{r7, lr}
 479              	.LCFI27:
 480              		.cfi_def_cfa_offset 8
 481              		.cfi_offset 7, -8
 482              		.cfi_offset 14, -4
 483 0002 84B0     		sub	sp, sp, #16
 484              	.LCFI28:
 485              		.cfi_def_cfa_offset 24
 486 0004 00AF     		add	r7, sp, #0
 487              	.LCFI29:
 488              		.cfi_def_cfa_register 7
 489 0006 F860     		str	r0, [r7, #12]
 490 0008 B960     		str	r1, [r7, #8]
 491 000a 7A60     		str	r2, [r7, #4]
  78:C:/data/workspaces/github/de.protos.demos/src/HexagonCANDemo/etrice.HexagonCANDemo.demo/src-gen-st/room/basic/service/timing\PTimer.c **** 	PTimerConjPort_startTimeout(&((etReplPort*)self)->ports[idx__et].port, data__et);
 492              		.loc 1 78 0
 493 000c FB68     		ldr	r3, [r7, #12]
 494 000e 5A68     		ldr	r2, [r3, #4]
 495 0010 BB68     		ldr	r3, [r7, #8]
 496 0012 4FEA0313 		lsl	r3, r3, #4
 497 0016 D318     		adds	r3, r2, r3
 498 0018 1846     		mov	r0, r3
 499 001a 7968     		ldr	r1, [r7, #4]
 500 001c FFF7FEFF 		bl	PTimerConjPort_startTimeout
  79:C:/data/workspaces/github/de.protos.demos/src/HexagonCANDemo/etrice.HexagonCANDemo.demo/src-gen-st/room/basic/service/timing\PTimer.c **** }
 501              		.loc 1 79 0
 502 0020 07F11007 		add	r7, r7, #16
 503 0024 BD46     		mov	sp, r7
 504 0026 80BD     		pop	{r7, pc}
 505              		.cfi_endproc
 506              	.LFE9:
 508              		.section	.text.PTimerConjPort_kill,"ax",%progbits
 509              		.align	2
 510              		.global	PTimerConjPort_kill
 511              		.thumb
 512              		.thumb_func
 514              	PTimerConjPort_kill:
 515              	.LFB10:
  80:C:/data/workspaces/github/de.protos.demos/src/HexagonCANDemo/etrice.HexagonCANDemo.demo/src-gen-st/room/basic/service/timing\PTimer.c **** 
  81:C:/data/workspaces/github/de.protos.demos/src/HexagonCANDemo/etrice.HexagonCANDemo.demo/src-gen-st/room/basic/service/timing\PTimer.c **** 
  82:C:/data/workspaces/github/de.protos.demos/src/HexagonCANDemo/etrice.HexagonCANDemo.demo/src-gen-st/room/basic/service/timing\PTimer.c **** void PTimerConjPort_kill(const PTimerConjPort* self) {
 516              		.loc 1 82 0
 517              		.cfi_startproc
 518              		@ args = 0, pretend = 0, frame = 8
 519              		@ frame_needed = 1, uses_anonymous_args = 0
 520 0000 80B5     		push	{r7, lr}
 521              	.LCFI30:
 522              		.cfi_def_cfa_offset 8
 523              		.cfi_offset 7, -8
 524              		.cfi_offset 14, -4
 525 0002 82B0     		sub	sp, sp, #8
 526              	.LCFI31:
 527              		.cfi_def_cfa_offset 16
 528 0004 00AF     		add	r7, sp, #0
 529              	.LCFI32:
 530              		.cfi_def_cfa_register 7
 531 0006 7860     		str	r0, [r7, #4]
  83:C:/data/workspaces/github/de.protos.demos/src/HexagonCANDemo/etrice.HexagonCANDemo.demo/src-gen-st/room/basic/service/timing\PTimer.c **** 	
  84:C:/data/workspaces/github/de.protos.demos/src/HexagonCANDemo/etrice.HexagonCANDemo.demo/src-gen-st/room/basic/service/timing\PTimer.c **** 				if (status!=0){
 532              		.loc 1 84 0
 533 0008 7B68     		ldr	r3, [r7, #4]
 534 000a 1B68     		ldr	r3, [r3, #0]
 535 000c 1B78     		ldrb	r3, [r3, #0]	@ zero_extendqisi2
 536 000e 002B     		cmp	r3, #0
 537 0010 0DD0     		beq	.L21
  85:C:/data/workspaces/github/de.protos.demos/src/HexagonCANDemo/etrice.HexagonCANDemo.demo/src-gen-st/room/basic/service/timing\PTimer.c **** 					status=0;
 538              		.loc 1 85 0
 539 0012 7B68     		ldr	r3, [r7, #4]
 540 0014 1B68     		ldr	r3, [r3, #0]
 541 0016 4FF00002 		mov	r2, #0
 542 001a 1A70     		strb	r2, [r3, #0]
  86:C:/data/workspaces/github/de.protos.demos/src/HexagonCANDemo/etrice.HexagonCANDemo.demo/src-gen-st/room/basic/service/timing\PTimer.c **** 					etPort_sendMessage(self, PTimer_IN_kill, 0,NULL);
 543              		.loc 1 86 0
 544 001c 7868     		ldr	r0, [r7, #4]
 545 001e 4FF00401 		mov	r1, #4
 546 0022 4FF00002 		mov	r2, #0
 547 0026 4FF00003 		mov	r3, #0
 548 002a FFF7FEFF 		bl	etPort_sendMessage
 549              	.L21:
  87:C:/data/workspaces/github/de.protos.demos/src/HexagonCANDemo/etrice.HexagonCANDemo.demo/src-gen-st/room/basic/service/timing\PTimer.c **** 					}
  88:C:/data/workspaces/github/de.protos.demos/src/HexagonCANDemo/etrice.HexagonCANDemo.demo/src-gen-st/room/basic/service/timing\PTimer.c **** }
 550              		.loc 1 88 0
 551 002e 07F10807 		add	r7, r7, #8
 552 0032 BD46     		mov	sp, r7
 553 0034 80BD     		pop	{r7, pc}
 554              		.cfi_endproc
 555              	.LFE10:
 557 0036 00BF     		.section	.text.PTimerConjReplPort_kill_broadcast,"ax",%progbits
 558              		.align	2
 559              		.global	PTimerConjReplPort_kill_broadcast
 560              		.thumb
 561              		.thumb_func
 563              	PTimerConjReplPort_kill_broadcast:
 564              	.LFB11:
  89:C:/data/workspaces/github/de.protos.demos/src/HexagonCANDemo/etrice.HexagonCANDemo.demo/src-gen-st/room/basic/service/timing\PTimer.c **** 
  90:C:/data/workspaces/github/de.protos.demos/src/HexagonCANDemo/etrice.HexagonCANDemo.demo/src-gen-st/room/basic/service/timing\PTimer.c **** void PTimerConjReplPort_kill_broadcast(const PTimerConjReplPort* self) {
 565              		.loc 1 90 0
 566              		.cfi_startproc
 567              		@ args = 0, pretend = 0, frame = 16
 568              		@ frame_needed = 1, uses_anonymous_args = 0
 569 0000 80B5     		push	{r7, lr}
 570              	.LCFI33:
 571              		.cfi_def_cfa_offset 8
 572              		.cfi_offset 7, -8
 573              		.cfi_offset 14, -4
 574 0002 84B0     		sub	sp, sp, #16
 575              	.LCFI34:
 576              		.cfi_def_cfa_offset 24
 577 0004 00AF     		add	r7, sp, #0
 578              	.LCFI35:
 579              		.cfi_def_cfa_register 7
 580 0006 7860     		str	r0, [r7, #4]
  91:C:/data/workspaces/github/de.protos.demos/src/HexagonCANDemo/etrice.HexagonCANDemo.demo/src-gen-st/room/basic/service/timing\PTimer.c **** 	int i;
  92:C:/data/workspaces/github/de.protos.demos/src/HexagonCANDemo/etrice.HexagonCANDemo.demo/src-gen-st/room/basic/service/timing\PTimer.c **** 	for (i=0; i<((etReplPort*)self)->size; ++i) {
 581              		.loc 1 92 0
 582 0008 4FF00003 		mov	r3, #0
 583 000c FB60     		str	r3, [r7, #12]
 584 000e 0CE0     		b	.L24
 585              	.L25:
  93:C:/data/workspaces/github/de.protos.demos/src/HexagonCANDemo/etrice.HexagonCANDemo.demo/src-gen-st/room/basic/service/timing\PTimer.c **** 		PTimerConjPort_kill(&((etReplPort*)self)->ports[i].port);
 586              		.loc 1 93 0 discriminator 2
 587 0010 7B68     		ldr	r3, [r7, #4]
 588 0012 5A68     		ldr	r2, [r3, #4]
 589 0014 FB68     		ldr	r3, [r7, #12]
 590 0016 4FEA0313 		lsl	r3, r3, #4
 591 001a D318     		adds	r3, r2, r3
 592 001c 1846     		mov	r0, r3
 593 001e FFF7FEFF 		bl	PTimerConjPort_kill
  92:C:/data/workspaces/github/de.protos.demos/src/HexagonCANDemo/etrice.HexagonCANDemo.demo/src-gen-st/room/basic/service/timing\PTimer.c **** 	for (i=0; i<((etReplPort*)self)->size; ++i) {
 594              		.loc 1 92 0 discriminator 2
 595 0022 FB68     		ldr	r3, [r7, #12]
 596 0024 03F10103 		add	r3, r3, #1
 597 0028 FB60     		str	r3, [r7, #12]
 598              	.L24:
  92:C:/data/workspaces/github/de.protos.demos/src/HexagonCANDemo/etrice.HexagonCANDemo.demo/src-gen-st/room/basic/service/timing\PTimer.c **** 	for (i=0; i<((etReplPort*)self)->size; ++i) {
 599              		.loc 1 92 0 is_stmt 0 discriminator 1
 600 002a 7B68     		ldr	r3, [r7, #4]
 601 002c 1B88     		ldrh	r3, [r3, #0]
 602 002e 1AB2     		sxth	r2, r3
 603 0030 FB68     		ldr	r3, [r7, #12]
 604 0032 9A42     		cmp	r2, r3
 605 0034 ECDC     		bgt	.L25
  94:C:/data/workspaces/github/de.protos.demos/src/HexagonCANDemo/etrice.HexagonCANDemo.demo/src-gen-st/room/basic/service/timing\PTimer.c **** 	}					
  95:C:/data/workspaces/github/de.protos.demos/src/HexagonCANDemo/etrice.HexagonCANDemo.demo/src-gen-st/room/basic/service/timing\PTimer.c **** }
 606              		.loc 1 95 0 is_stmt 1
 607 0036 07F11007 		add	r7, r7, #16
 608 003a BD46     		mov	sp, r7
 609 003c 80BD     		pop	{r7, pc}
 610              		.cfi_endproc
 611              	.LFE11:
 613 003e 00BF     		.section	.text.PTimerConjReplPort_kill,"ax",%progbits
 614              		.align	2
 615              		.global	PTimerConjReplPort_kill
 616              		.thumb
 617              		.thumb_func
 619              	PTimerConjReplPort_kill:
 620              	.LFB12:
  96:C:/data/workspaces/github/de.protos.demos/src/HexagonCANDemo/etrice.HexagonCANDemo.demo/src-gen-st/room/basic/service/timing\PTimer.c **** 
  97:C:/data/workspaces/github/de.protos.demos/src/HexagonCANDemo/etrice.HexagonCANDemo.demo/src-gen-st/room/basic/service/timing\PTimer.c **** void PTimerConjReplPort_kill(const PTimerConjReplPort* self, int idx__et) {
 621              		.loc 1 97 0
 622              		.cfi_startproc
 623              		@ args = 0, pretend = 0, frame = 8
 624              		@ frame_needed = 1, uses_anonymous_args = 0
 625 0000 80B5     		push	{r7, lr}
 626              	.LCFI36:
 627              		.cfi_def_cfa_offset 8
 628              		.cfi_offset 7, -8
 629              		.cfi_offset 14, -4
 630 0002 82B0     		sub	sp, sp, #8
 631              	.LCFI37:
 632              		.cfi_def_cfa_offset 16
 633 0004 00AF     		add	r7, sp, #0
 634              	.LCFI38:
 635              		.cfi_def_cfa_register 7
 636 0006 7860     		str	r0, [r7, #4]
 637 0008 3960     		str	r1, [r7, #0]
  98:C:/data/workspaces/github/de.protos.demos/src/HexagonCANDemo/etrice.HexagonCANDemo.demo/src-gen-st/room/basic/service/timing\PTimer.c **** 	PTimerConjPort_kill(&((etReplPort*)self)->ports[idx__et].port);
 638              		.loc 1 98 0
 639 000a 7B68     		ldr	r3, [r7, #4]
 640 000c 5A68     		ldr	r2, [r3, #4]
 641 000e 3B68     		ldr	r3, [r7, #0]
 642 0010 4FEA0313 		lsl	r3, r3, #4
 643 0014 D318     		adds	r3, r2, r3
 644 0016 1846     		mov	r0, r3
 645 0018 FFF7FEFF 		bl	PTimerConjPort_kill
  99:C:/data/workspaces/github/de.protos.demos/src/HexagonCANDemo/etrice.HexagonCANDemo.demo/src-gen-st/room/basic/service/timing\PTimer.c **** }
 646              		.loc 1 99 0
 647 001c 07F10807 		add	r7, r7, #8
 648 0020 BD46     		mov	sp, r7
 649 0022 80BD     		pop	{r7, pc}
 650              		.cfi_endproc
 651              	.LFE12:
 653              		.section	.text.PTimerConjReplPort_getReplication,"ax",%progbits
 654              		.align	2
 655              		.global	PTimerConjReplPort_getReplication
 656              		.thumb
 657              		.thumb_func
 659              	PTimerConjReplPort_getReplication:
 660              	.LFB13:
 100:C:/data/workspaces/github/de.protos.demos/src/HexagonCANDemo/etrice.HexagonCANDemo.demo/src-gen-st/room/basic/service/timing\PTimer.c **** 
 101:C:/data/workspaces/github/de.protos.demos/src/HexagonCANDemo/etrice.HexagonCANDemo.demo/src-gen-st/room/basic/service/timing\PTimer.c **** /* begin PTimerConjPort specific */
 102:C:/data/workspaces/github/de.protos.demos/src/HexagonCANDemo/etrice.HexagonCANDemo.demo/src-gen-st/room/basic/service/timing\PTimer.c **** 
 103:C:/data/workspaces/github/de.protos.demos/src/HexagonCANDemo/etrice.HexagonCANDemo.demo/src-gen-st/room/basic/service/timing\PTimer.c **** /*--------------------- operations ---------------------*/
 104:C:/data/workspaces/github/de.protos.demos/src/HexagonCANDemo/etrice.HexagonCANDemo.demo/src-gen-st/room/basic/service/timing\PTimer.c **** /* end PTimerConjPort specific */
 105:C:/data/workspaces/github/de.protos.demos/src/HexagonCANDemo/etrice.HexagonCANDemo.demo/src-gen-st/room/basic/service/timing\PTimer.c **** 
 106:C:/data/workspaces/github/de.protos.demos/src/HexagonCANDemo/etrice.HexagonCANDemo.demo/src-gen-st/room/basic/service/timing\PTimer.c **** etInt32 PTimerConjReplPort_getReplication(const PTimerConjReplPort* self) {
 661              		.loc 1 106 0
 662              		.cfi_startproc
 663              		@ args = 0, pretend = 0, frame = 8
 664              		@ frame_needed = 1, uses_anonymous_args = 0
 665              		@ link register save eliminated.
 666 0000 80B4     		push	{r7}
 667              	.LCFI39:
 668              		.cfi_def_cfa_offset 4
 669              		.cfi_offset 7, -4
 670 0002 83B0     		sub	sp, sp, #12
 671              	.LCFI40:
 672              		.cfi_def_cfa_offset 16
 673 0004 00AF     		add	r7, sp, #0
 674              	.LCFI41:
 675              		.cfi_def_cfa_register 7
 676 0006 7860     		str	r0, [r7, #4]
 107:C:/data/workspaces/github/de.protos.demos/src/HexagonCANDemo/etrice.HexagonCANDemo.demo/src-gen-st/room/basic/service/timing\PTimer.c **** 	return ((etReplPort*)self)->size;
 677              		.loc 1 107 0
 678 0008 7B68     		ldr	r3, [r7, #4]
 679 000a 1B88     		ldrh	r3, [r3, #0]
 680 000c 1BB2     		sxth	r3, r3
 108:C:/data/workspaces/github/de.protos.demos/src/HexagonCANDemo/etrice.HexagonCANDemo.demo/src-gen-st/room/basic/service/timing\PTimer.c **** }
 681              		.loc 1 108 0
 682 000e 1846     		mov	r0, r3
 683 0010 07F10C07 		add	r7, r7, #12
 684 0014 BD46     		mov	sp, r7
 685 0016 80BC     		pop	{r7}
 686 0018 7047     		bx	lr
 687              		.cfi_endproc
 688              	.LFE13:
 690 001a 00BF     		.section	.text.PTimerConjPort_timeout_receiveHandler,"ax",%progbits
 691              		.align	2
 692              		.global	PTimerConjPort_timeout_receiveHandler
 693              		.thumb
 694              		.thumb_func
 696              	PTimerConjPort_timeout_receiveHandler:
 697              	.LFB14:
 109:C:/data/workspaces/github/de.protos.demos/src/HexagonCANDemo/etrice.HexagonCANDemo.demo/src-gen-st/room/basic/service/timing\PTimer.c **** 
 110:C:/data/workspaces/github/de.protos.demos/src/HexagonCANDemo/etrice.HexagonCANDemo.demo/src-gen-st/room/basic/service/timing\PTimer.c **** /* receiver handlers */
 111:C:/data/workspaces/github/de.protos.demos/src/HexagonCANDemo/etrice.HexagonCANDemo.demo/src-gen-st/room/basic/service/timing\PTimer.c **** void PTimerConjPort_timeout_receiveHandler(PTimerConjPort* self, const etMessage* msg, void * actor
 698              		.loc 1 111 0
 699              		.cfi_startproc
 700              		@ args = 0, pretend = 0, frame = 16
 701              		@ frame_needed = 1, uses_anonymous_args = 0
 702 0000 80B5     		push	{r7, lr}
 703              	.LCFI42:
 704              		.cfi_def_cfa_offset 8
 705              		.cfi_offset 7, -8
 706              		.cfi_offset 14, -4
 707 0002 84B0     		sub	sp, sp, #16
 708              	.LCFI43:
 709              		.cfi_def_cfa_offset 24
 710 0004 00AF     		add	r7, sp, #0
 711              	.LCFI44:
 712              		.cfi_def_cfa_register 7
 713 0006 F860     		str	r0, [r7, #12]
 714 0008 B960     		str	r1, [r7, #8]
 715 000a 7A60     		str	r2, [r7, #4]
 716 000c 3B60     		str	r3, [r7, #0]
 112:C:/data/workspaces/github/de.protos.demos/src/HexagonCANDemo/etrice.HexagonCANDemo.demo/src-gen-st/room/basic/service/timing\PTimer.c **** 	/* TODO: clear active bit in case of single shot timer */
 113:C:/data/workspaces/github/de.protos.demos/src/HexagonCANDemo/etrice.HexagonCANDemo.demo/src-gen-st/room/basic/service/timing\PTimer.c **** 				if (status!=0){
 717              		.loc 1 113 0
 718 000e FB68     		ldr	r3, [r7, #12]
 719 0010 1B68     		ldr	r3, [r3, #0]
 720 0012 1B78     		ldrb	r3, [r3, #0]	@ zero_extendqisi2
 721 0014 002B     		cmp	r3, #0
 722 0016 0ED0     		beq	.L29
 114:C:/data/workspaces/github/de.protos.demos/src/HexagonCANDemo/etrice.HexagonCANDemo.demo/src-gen-st/room/basic/service/timing\PTimer.c **** 					if (status==ET_TIMER_RUNNING){
 723              		.loc 1 114 0
 724 0018 FB68     		ldr	r3, [r7, #12]
 725 001a 1B68     		ldr	r3, [r3, #0]
 726 001c 1B78     		ldrb	r3, [r3, #0]	@ zero_extendqisi2
 727 001e 012B     		cmp	r3, #1
 728 0020 04D1     		bne	.L31
 115:C:/data/workspaces/github/de.protos.demos/src/HexagonCANDemo/etrice.HexagonCANDemo.demo/src-gen-st/room/basic/service/timing\PTimer.c **** 						/* single shot timer */
 116:C:/data/workspaces/github/de.protos.demos/src/HexagonCANDemo/etrice.HexagonCANDemo.demo/src-gen-st/room/basic/service/timing\PTimer.c **** 						status=0;
 729              		.loc 1 116 0
 730 0022 FB68     		ldr	r3, [r7, #12]
 731 0024 1B68     		ldr	r3, [r3, #0]
 732 0026 4FF00002 		mov	r2, #0
 733 002a 1A70     		strb	r2, [r3, #0]
 734              	.L31:
 117:C:/data/workspaces/github/de.protos.demos/src/HexagonCANDemo/etrice.HexagonCANDemo.demo/src-gen-st/room/basic/service/timing\PTimer.c **** 						}
 118:C:/data/workspaces/github/de.protos.demos/src/HexagonCANDemo/etrice.HexagonCANDemo.demo/src-gen-st/room/basic/service/timing\PTimer.c **** 					/* msg to fsm */
 119:C:/data/workspaces/github/de.protos.demos/src/HexagonCANDemo/etrice.HexagonCANDemo.demo/src-gen-st/room/basic/service/timing\PTimer.c **** 					(*receiveMessageFunc)(actor, self, msg);
 735              		.loc 1 119 0
 736 002c 3B68     		ldr	r3, [r7, #0]
 737 002e 7868     		ldr	r0, [r7, #4]
 738 0030 F968     		ldr	r1, [r7, #12]
 739 0032 BA68     		ldr	r2, [r7, #8]
 740 0034 9847     		blx	r3
 741              	.L29:
 120:C:/data/workspaces/github/de.protos.demos/src/HexagonCANDemo/etrice.HexagonCANDemo.demo/src-gen-st/room/basic/service/timing\PTimer.c **** 					}
 121:C:/data/workspaces/github/de.protos.demos/src/HexagonCANDemo/etrice.HexagonCANDemo.demo/src-gen-st/room/basic/service/timing\PTimer.c **** 	/* hand over the message to the actor:      */
 122:C:/data/workspaces/github/de.protos.demos/src/HexagonCANDemo/etrice.HexagonCANDemo.demo/src-gen-st/room/basic/service/timing\PTimer.c **** 	/* (*receiveMessageFunc)(actor, self, msg); */
 123:C:/data/workspaces/github/de.protos.demos/src/HexagonCANDemo/etrice.HexagonCANDemo.demo/src-gen-st/room/basic/service/timing\PTimer.c **** }
 742              		.loc 1 123 0
 743 0036 07F11007 		add	r7, r7, #16
 744 003a BD46     		mov	sp, r7
 745 003c 80BD     		pop	{r7, pc}
 746              		.cfi_endproc
 747              	.LFE14:
 749 003e 00BF     		.text
 750              	.Letext0:
 751              		.file 2 "C:\\data\\workspaces\\github\\de.protos.demos\\src\\HexagonCANDemo\\etrice.runtime.c\\etR
 752              		.file 3 "C:\\data\\workspaces\\github\\de.protos.demos\\src\\HexagonCANDemo\\etrice.runtime.c\\etR
 753              		.file 4 "C:\\data\\workspaces\\github\\de.protos.demos\\src\\HexagonCANDemo\\etrice.runtime.c\\etR
 754              		.file 5 "C:\\data\\workspaces\\github\\de.protos.demos\\src\\HexagonCANDemo\\etrice.runtime.c\\etR
 755              		.file 6 "C:\\data\\workspaces\\github\\de.protos.demos\\src\\HexagonCANDemo\\etrice.runtime.c\\etR
 756              		.file 7 "C:\\data\\workspaces\\github\\de.protos.demos\\src\\HexagonCANDemo\\etrice.runtime.c\\etR
 757              		.file 8 "C:\\data\\workspaces\\github\\de.protos.demos\\src\\HexagonCANDemo\\etrice.runtime.c\\etR
 758              		.file 9 "C:\\data\\workspaces\\github\\de.protos.demos\\src\\HexagonCANDemo\\etrice.runtime.c\\etR
 759              		.file 10 "C:\\data\\workspaces\\github\\de.protos.demos\\src\\HexagonCANDemo\\etrice.runtime.c\\et
 760              		.file 11 "C:\\data\\workspaces\\github\\de.protos.demos\\src\\HexagonCANDemo\\etrice.runtime.c\\et
 761              		.file 12 "C:\\data\\workspaces\\github\\de.protos.demos\\src\\HexagonCANDemo\\etrice.runtime.c\\et
 762              		.file 13 "C:/data/workspaces/github/de.protos.demos/src/HexagonCANDemo/etrice.HexagonCANDemo.demo/