   1              		.cpu cortex-m0
   2              		.fpu softvfp
   3              		.eabi_attribute 20, 1
   4              		.eabi_attribute 21, 1
   5              		.eabi_attribute 23, 3
   6              		.eabi_attribute 24, 1
   7              		.eabi_attribute 25, 1
   8              		.eabi_attribute 26, 1
   9              		.eabi_attribute 30, 6
  10              		.eabi_attribute 34, 0
  11              		.eabi_attribute 18, 4
  12              		.code	16
  13              		.file	"MrPong.c"
  14              		.text
  15              	.Ltext0:
  16              		.cfi_sections	.debug_frame
  17              		.section	.text.setState,"ax",%progbits
  18              		.align	2
  19              		.code	16
  20              		.thumb_func
  22              	setState:
  23              	.LFB0:
  24              		.file 1 "C:/data/workspaces/github/de.protos.demos/src/XMC2GoBlinky/etrice.XMC2GoBlinky.demo/src-g
   1:C:/data/workspaces/github/de.protos.demos/src/XMC2GoBlinky/etrice.XMC2GoBlinky.demo/src-gen-mt/XMC2GoDemoModel\MrPong.c **** /**
   2:C:/data/workspaces/github/de.protos.demos/src/XMC2GoBlinky/etrice.XMC2GoBlinky.demo/src-gen-mt/XMC2GoDemoModel\MrPong.c ****  * @author generated by eTrice
   3:C:/data/workspaces/github/de.protos.demos/src/XMC2GoBlinky/etrice.XMC2GoBlinky.demo/src-gen-mt/XMC2GoDemoModel\MrPong.c ****  *
   4:C:/data/workspaces/github/de.protos.demos/src/XMC2GoBlinky/etrice.XMC2GoBlinky.demo/src-gen-mt/XMC2GoDemoModel\MrPong.c ****  * Source File of ActorClass MrPong
   5:C:/data/workspaces/github/de.protos.demos/src/XMC2GoBlinky/etrice.XMC2GoBlinky.demo/src-gen-mt/XMC2GoDemoModel\MrPong.c ****  * 
   6:C:/data/workspaces/github/de.protos.demos/src/XMC2GoBlinky/etrice.XMC2GoBlinky.demo/src-gen-mt/XMC2GoDemoModel\MrPong.c ****  */
   7:C:/data/workspaces/github/de.protos.demos/src/XMC2GoBlinky/etrice.XMC2GoBlinky.demo/src-gen-mt/XMC2GoDemoModel\MrPong.c **** 
   8:C:/data/workspaces/github/de.protos.demos/src/XMC2GoBlinky/etrice.XMC2GoBlinky.demo/src-gen-mt/XMC2GoDemoModel\MrPong.c **** #include "MrPong.h"
   9:C:/data/workspaces/github/de.protos.demos/src/XMC2GoBlinky/etrice.XMC2GoBlinky.demo/src-gen-mt/XMC2GoDemoModel\MrPong.c **** 
  10:C:/data/workspaces/github/de.protos.demos/src/XMC2GoBlinky/etrice.XMC2GoBlinky.demo/src-gen-mt/XMC2GoDemoModel\MrPong.c **** #include "modelbase/etActor.h"
  11:C:/data/workspaces/github/de.protos.demos/src/XMC2GoBlinky/etrice.XMC2GoBlinky.demo/src-gen-mt/XMC2GoDemoModel\MrPong.c **** #include "debugging/etLogger.h"
  12:C:/data/workspaces/github/de.protos.demos/src/XMC2GoBlinky/etrice.XMC2GoBlinky.demo/src-gen-mt/XMC2GoDemoModel\MrPong.c **** #include "debugging/etMSCLogger.h"
  13:C:/data/workspaces/github/de.protos.demos/src/XMC2GoBlinky/etrice.XMC2GoBlinky.demo/src-gen-mt/XMC2GoDemoModel\MrPong.c **** #include "etUnit/etUnit.h"
  14:C:/data/workspaces/github/de.protos.demos/src/XMC2GoBlinky/etrice.XMC2GoBlinky.demo/src-gen-mt/XMC2GoDemoModel\MrPong.c **** #include "base/etMemory.h"
  15:C:/data/workspaces/github/de.protos.demos/src/XMC2GoBlinky/etrice.XMC2GoBlinky.demo/src-gen-mt/XMC2GoDemoModel\MrPong.c **** 
  16:C:/data/workspaces/github/de.protos.demos/src/XMC2GoBlinky/etrice.XMC2GoBlinky.demo/src-gen-mt/XMC2GoDemoModel\MrPong.c **** #include "XMC2GoDemoModel/PingPongProtocol.h"
  17:C:/data/workspaces/github/de.protos.demos/src/XMC2GoBlinky/etrice.XMC2GoBlinky.demo/src-gen-mt/XMC2GoDemoModel\MrPong.c **** 
  18:C:/data/workspaces/github/de.protos.demos/src/XMC2GoBlinky/etrice.XMC2GoBlinky.demo/src-gen-mt/XMC2GoDemoModel\MrPong.c **** #include "MrPong_Utils.h"
  19:C:/data/workspaces/github/de.protos.demos/src/XMC2GoBlinky/etrice.XMC2GoBlinky.demo/src-gen-mt/XMC2GoDemoModel\MrPong.c **** 
  20:C:/data/workspaces/github/de.protos.demos/src/XMC2GoBlinky/etrice.XMC2GoBlinky.demo/src-gen-mt/XMC2GoDemoModel\MrPong.c **** 
  21:C:/data/workspaces/github/de.protos.demos/src/XMC2GoBlinky/etrice.XMC2GoBlinky.demo/src-gen-mt/XMC2GoDemoModel\MrPong.c **** /* interface item IDs */
  22:C:/data/workspaces/github/de.protos.demos/src/XMC2GoBlinky/etrice.XMC2GoBlinky.demo/src-gen-mt/XMC2GoDemoModel\MrPong.c **** enum interface_items {
  23:C:/data/workspaces/github/de.protos.demos/src/XMC2GoBlinky/etrice.XMC2GoBlinky.demo/src-gen-mt/XMC2GoDemoModel\MrPong.c **** 	IFITEM_p0 = 1
  24:C:/data/workspaces/github/de.protos.demos/src/XMC2GoBlinky/etrice.XMC2GoBlinky.demo/src-gen-mt/XMC2GoDemoModel\MrPong.c **** };
  25:C:/data/workspaces/github/de.protos.demos/src/XMC2GoBlinky/etrice.XMC2GoBlinky.demo/src-gen-mt/XMC2GoDemoModel\MrPong.c **** 
  26:C:/data/workspaces/github/de.protos.demos/src/XMC2GoBlinky/etrice.XMC2GoBlinky.demo/src-gen-mt/XMC2GoDemoModel\MrPong.c **** /* state IDs */
  27:C:/data/workspaces/github/de.protos.demos/src/XMC2GoBlinky/etrice.XMC2GoBlinky.demo/src-gen-mt/XMC2GoDemoModel\MrPong.c **** enum state_ids {
  28:C:/data/workspaces/github/de.protos.demos/src/XMC2GoBlinky/etrice.XMC2GoBlinky.demo/src-gen-mt/XMC2GoDemoModel\MrPong.c **** 	NO_STATE = 0,
  29:C:/data/workspaces/github/de.protos.demos/src/XMC2GoBlinky/etrice.XMC2GoBlinky.demo/src-gen-mt/XMC2GoDemoModel\MrPong.c **** 	STATE_TOP = 1,
  30:C:/data/workspaces/github/de.protos.demos/src/XMC2GoBlinky/etrice.XMC2GoBlinky.demo/src-gen-mt/XMC2GoDemoModel\MrPong.c **** 	STATE_running = 2,
  31:C:/data/workspaces/github/de.protos.demos/src/XMC2GoBlinky/etrice.XMC2GoBlinky.demo/src-gen-mt/XMC2GoDemoModel\MrPong.c **** 	STATE_MAX = 3
  32:C:/data/workspaces/github/de.protos.demos/src/XMC2GoBlinky/etrice.XMC2GoBlinky.demo/src-gen-mt/XMC2GoDemoModel\MrPong.c **** };
  33:C:/data/workspaces/github/de.protos.demos/src/XMC2GoBlinky/etrice.XMC2GoBlinky.demo/src-gen-mt/XMC2GoDemoModel\MrPong.c **** 
  34:C:/data/workspaces/github/de.protos.demos/src/XMC2GoBlinky/etrice.XMC2GoBlinky.demo/src-gen-mt/XMC2GoDemoModel\MrPong.c **** /* transition chains */
  35:C:/data/workspaces/github/de.protos.demos/src/XMC2GoBlinky/etrice.XMC2GoBlinky.demo/src-gen-mt/XMC2GoDemoModel\MrPong.c **** enum chain_ids {
  36:C:/data/workspaces/github/de.protos.demos/src/XMC2GoBlinky/etrice.XMC2GoBlinky.demo/src-gen-mt/XMC2GoDemoModel\MrPong.c **** 	CHAIN_TRANS_INITIAL_TO__running = 1,
  37:C:/data/workspaces/github/de.protos.demos/src/XMC2GoBlinky/etrice.XMC2GoBlinky.demo/src-gen-mt/XMC2GoDemoModel\MrPong.c **** 	CHAIN_TRANS_tr0_FROM_running_TO_running_BY_pingp0_tr0 = 2
  38:C:/data/workspaces/github/de.protos.demos/src/XMC2GoBlinky/etrice.XMC2GoBlinky.demo/src-gen-mt/XMC2GoDemoModel\MrPong.c **** };
  39:C:/data/workspaces/github/de.protos.demos/src/XMC2GoBlinky/etrice.XMC2GoBlinky.demo/src-gen-mt/XMC2GoDemoModel\MrPong.c **** 
  40:C:/data/workspaces/github/de.protos.demos/src/XMC2GoBlinky/etrice.XMC2GoBlinky.demo/src-gen-mt/XMC2GoDemoModel\MrPong.c **** /* triggers */
  41:C:/data/workspaces/github/de.protos.demos/src/XMC2GoBlinky/etrice.XMC2GoBlinky.demo/src-gen-mt/XMC2GoDemoModel\MrPong.c **** enum triggers {
  42:C:/data/workspaces/github/de.protos.demos/src/XMC2GoBlinky/etrice.XMC2GoBlinky.demo/src-gen-mt/XMC2GoDemoModel\MrPong.c **** 	POLLING = 0,
  43:C:/data/workspaces/github/de.protos.demos/src/XMC2GoBlinky/etrice.XMC2GoBlinky.demo/src-gen-mt/XMC2GoDemoModel\MrPong.c **** 	TRIG_p0__ping = IFITEM_p0 + EVT_SHIFT*PingPongProtocol_IN_ping
  44:C:/data/workspaces/github/de.protos.demos/src/XMC2GoBlinky/etrice.XMC2GoBlinky.demo/src-gen-mt/XMC2GoDemoModel\MrPong.c **** };
  45:C:/data/workspaces/github/de.protos.demos/src/XMC2GoBlinky/etrice.XMC2GoBlinky.demo/src-gen-mt/XMC2GoDemoModel\MrPong.c **** 
  46:C:/data/workspaces/github/de.protos.demos/src/XMC2GoBlinky/etrice.XMC2GoBlinky.demo/src-gen-mt/XMC2GoDemoModel\MrPong.c **** 
  47:C:/data/workspaces/github/de.protos.demos/src/XMC2GoBlinky/etrice.XMC2GoBlinky.demo/src-gen-mt/XMC2GoDemoModel\MrPong.c **** static void setState(MrPong* self, etInt16 new_state) {
  25              		.loc 1 47 0
  26              		.cfi_startproc
  27 0000 80B5     		push	{r7, lr}
  28              	.LCFI0:
  29              		.cfi_def_cfa_offset 8
  30              		.cfi_offset 7, -8
  31              		.cfi_offset 14, -4
  32 0002 82B0     		sub	sp, sp, #8
  33              	.LCFI1:
  34              		.cfi_def_cfa_offset 16
  35 0004 00AF     		add	r7, sp, #0
  36              	.LCFI2:
  37              		.cfi_def_cfa_register 7
  38 0006 7860     		str	r0, [r7, #4]
  39 0008 0A1C     		mov	r2, r1
  40 000a BB1C     		add	r3, r7, #2
  41 000c 1A80     		strh	r2, [r3]
  48:C:/data/workspaces/github/de.protos.demos/src/XMC2GoBlinky/etrice.XMC2GoBlinky.demo/src-gen-mt/XMC2GoDemoModel\MrPong.c **** 	self->state = new_state;
  42              		.loc 1 48 0
  43 000e 7B68     		ldr	r3, [r7, #4]
  44 0010 BA1C     		add	r2, r7, #2
  45 0012 1288     		ldrh	r2, [r2]
  46 0014 9A80     		strh	r2, [r3, #4]
  49:C:/data/workspaces/github/de.protos.demos/src/XMC2GoBlinky/etrice.XMC2GoBlinky.demo/src-gen-mt/XMC2GoDemoModel\MrPong.c **** }
  47              		.loc 1 49 0
  48 0016 BD46     		mov	sp, r7
  49 0018 02B0     		add	sp, sp, #8
  50              		@ sp needed for prologue
  51 001a 80BD     		pop	{r7, pc}
  52              		.cfi_endproc
  53              	.LFE0:
  55              		.section	.text.getState,"ax",%progbits
  56              		.align	2
  57              		.code	16
  58              		.thumb_func
  60              	getState:
  61              	.LFB1:
  50:C:/data/workspaces/github/de.protos.demos/src/XMC2GoBlinky/etrice.XMC2GoBlinky.demo/src-gen-mt/XMC2GoDemoModel\MrPong.c **** 
  51:C:/data/workspaces/github/de.protos.demos/src/XMC2GoBlinky/etrice.XMC2GoBlinky.demo/src-gen-mt/XMC2GoDemoModel\MrPong.c **** static etInt16 getState(MrPong* self) {
  62              		.loc 1 51 0
  63              		.cfi_startproc
  64 0000 80B5     		push	{r7, lr}
  65              	.LCFI3:
  66              		.cfi_def_cfa_offset 8
  67              		.cfi_offset 7, -8
  68              		.cfi_offset 14, -4
  69 0002 82B0     		sub	sp, sp, #8
  70              	.LCFI4:
  71              		.cfi_def_cfa_offset 16
  72 0004 00AF     		add	r7, sp, #0
  73              	.LCFI5:
  74              		.cfi_def_cfa_register 7
  75 0006 7860     		str	r0, [r7, #4]
  52:C:/data/workspaces/github/de.protos.demos/src/XMC2GoBlinky/etrice.XMC2GoBlinky.demo/src-gen-mt/XMC2GoDemoModel\MrPong.c **** 	return self->state;
  76              		.loc 1 52 0
  77 0008 7B68     		ldr	r3, [r7, #4]
  78 000a 9B88     		ldrh	r3, [r3, #4]
  79 000c 1BB2     		sxth	r3, r3
  53:C:/data/workspaces/github/de.protos.demos/src/XMC2GoBlinky/etrice.XMC2GoBlinky.demo/src-gen-mt/XMC2GoDemoModel\MrPong.c **** }
  80              		.loc 1 53 0
  81 000e 181C     		mov	r0, r3
  82 0010 BD46     		mov	sp, r7
  83 0012 02B0     		add	sp, sp, #8
  84              		@ sp needed for prologue
  85 0014 80BD     		pop	{r7, pc}
  86              		.cfi_endproc
  87              	.LFE1:
  89 0016 C046     		.section	.text.action_TRANS_tr0_FROM_running_TO_running_BY_pingp0_tr0,"ax",%progbits
  90              		.align	2
  91              		.code	16
  92              		.thumb_func
  94              	action_TRANS_tr0_FROM_running_TO_running_BY_pingp0_tr0:
  95              	.LFB2:
  54:C:/data/workspaces/github/de.protos.demos/src/XMC2GoBlinky/etrice.XMC2GoBlinky.demo/src-gen-mt/XMC2GoDemoModel\MrPong.c **** 
  55:C:/data/workspaces/github/de.protos.demos/src/XMC2GoBlinky/etrice.XMC2GoBlinky.demo/src-gen-mt/XMC2GoDemoModel\MrPong.c **** /* Entry and Exit Codes */
  56:C:/data/workspaces/github/de.protos.demos/src/XMC2GoBlinky/etrice.XMC2GoBlinky.demo/src-gen-mt/XMC2GoDemoModel\MrPong.c **** 
  57:C:/data/workspaces/github/de.protos.demos/src/XMC2GoBlinky/etrice.XMC2GoBlinky.demo/src-gen-mt/XMC2GoDemoModel\MrPong.c **** /* Action Codes */
  58:C:/data/workspaces/github/de.protos.demos/src/XMC2GoBlinky/etrice.XMC2GoBlinky.demo/src-gen-mt/XMC2GoDemoModel\MrPong.c **** static void action_TRANS_tr0_FROM_running_TO_running_BY_pingp0_tr0(MrPong* self, const InterfaceIte
  96              		.loc 1 58 0
  97              		.cfi_startproc
  98 0000 80B5     		push	{r7, lr}
  99              	.LCFI6:
 100              		.cfi_def_cfa_offset 8
 101              		.cfi_offset 7, -8
 102              		.cfi_offset 14, -4
 103 0002 84B0     		sub	sp, sp, #16
 104              	.LCFI7:
 105              		.cfi_def_cfa_offset 24
 106 0004 00AF     		add	r7, sp, #0
 107              	.LCFI8:
 108              		.cfi_def_cfa_register 7
 109 0006 F860     		str	r0, [r7, #12]
 110 0008 B960     		str	r1, [r7, #8]
 111 000a 7A60     		str	r2, [r7, #4]
  59:C:/data/workspaces/github/de.protos.demos/src/XMC2GoBlinky/etrice.XMC2GoBlinky.demo/src-gen-mt/XMC2GoDemoModel\MrPong.c **** 	p0_pong(data);
 112              		.loc 1 59 0
 113 000c FB68     		ldr	r3, [r7, #12]
 114 000e 1B68     		ldr	r3, [r3]
 115 0010 1A1C     		mov	r2, r3
 116 0012 7B68     		ldr	r3, [r7, #4]
 117 0014 101C     		mov	r0, r2
 118 0016 191C     		mov	r1, r3
 119 0018 FFF7FEFF 		bl	PingPongProtocolPort_pong
  60:C:/data/workspaces/github/de.protos.demos/src/XMC2GoBlinky/etrice.XMC2GoBlinky.demo/src-gen-mt/XMC2GoDemoModel\MrPong.c **** }
 120              		.loc 1 60 0
 121 001c BD46     		mov	sp, r7
 122 001e 04B0     		add	sp, sp, #16
 123              		@ sp needed for prologue
 124 0020 80BD     		pop	{r7, pc}
 125              		.cfi_endproc
 126              	.LFE2:
 128 0022 C046     		.section	.text.exitTo,"ax",%progbits
 129              		.align	2
 130              		.code	16
 131              		.thumb_func
 133              	exitTo:
 134              	.LFB3:
  61:C:/data/workspaces/github/de.protos.demos/src/XMC2GoBlinky/etrice.XMC2GoBlinky.demo/src-gen-mt/XMC2GoDemoModel\MrPong.c **** 
  62:C:/data/workspaces/github/de.protos.demos/src/XMC2GoBlinky/etrice.XMC2GoBlinky.demo/src-gen-mt/XMC2GoDemoModel\MrPong.c **** /**
  63:C:/data/workspaces/github/de.protos.demos/src/XMC2GoBlinky/etrice.XMC2GoBlinky.demo/src-gen-mt/XMC2GoDemoModel\MrPong.c ****  * calls exit codes while exiting from the current state to one of its
  64:C:/data/workspaces/github/de.protos.demos/src/XMC2GoBlinky/etrice.XMC2GoBlinky.demo/src-gen-mt/XMC2GoDemoModel\MrPong.c ****  * parent states while remembering the history
  65:C:/data/workspaces/github/de.protos.demos/src/XMC2GoBlinky/etrice.XMC2GoBlinky.demo/src-gen-mt/XMC2GoDemoModel\MrPong.c ****  * @param current__et - the current state
  66:C:/data/workspaces/github/de.protos.demos/src/XMC2GoBlinky/etrice.XMC2GoBlinky.demo/src-gen-mt/XMC2GoDemoModel\MrPong.c ****  * @param to - the final parent state
  67:C:/data/workspaces/github/de.protos.demos/src/XMC2GoBlinky/etrice.XMC2GoBlinky.demo/src-gen-mt/XMC2GoDemoModel\MrPong.c ****  */
  68:C:/data/workspaces/github/de.protos.demos/src/XMC2GoBlinky/etrice.XMC2GoBlinky.demo/src-gen-mt/XMC2GoDemoModel\MrPong.c **** static void exitTo(MrPong* self, etInt16 current__et, etInt16 to) {
 135              		.loc 1 68 0
 136              		.cfi_startproc
 137 0000 80B5     		push	{r7, lr}
 138              	.LCFI9:
 139              		.cfi_def_cfa_offset 8
 140              		.cfi_offset 7, -8
 141              		.cfi_offset 14, -4
 142 0002 82B0     		sub	sp, sp, #8
 143              	.LCFI10:
 144              		.cfi_def_cfa_offset 16
 145 0004 00AF     		add	r7, sp, #0
 146              	.LCFI11:
 147              		.cfi_def_cfa_register 7
 148 0006 7860     		str	r0, [r7, #4]
 149 0008 BB1C     		add	r3, r7, #2
 150 000a 1980     		strh	r1, [r3]
 151 000c 3B1C     		mov	r3, r7
 152 000e 1A80     		strh	r2, [r3]
  69:C:/data/workspaces/github/de.protos.demos/src/XMC2GoBlinky/etrice.XMC2GoBlinky.demo/src-gen-mt/XMC2GoDemoModel\MrPong.c **** 	while (current__et!=to) {
 153              		.loc 1 69 0
 154 0010 10E0     		b	.L6
 155              	.L9:
  70:C:/data/workspaces/github/de.protos.demos/src/XMC2GoBlinky/etrice.XMC2GoBlinky.demo/src-gen-mt/XMC2GoDemoModel\MrPong.c **** 		switch (current__et) {
 156              		.loc 1 70 0
 157 0012 BB1C     		add	r3, r7, #2
 158 0014 0021     		mov	r1, #0
 159 0016 5B5E     		ldrsh	r3, [r3, r1]
 160 0018 022B     		cmp	r3, #2
 161 001a 06D1     		bne	.L10
 162              	.L8:
  71:C:/data/workspaces/github/de.protos.demos/src/XMC2GoBlinky/etrice.XMC2GoBlinky.demo/src-gen-mt/XMC2GoDemoModel\MrPong.c **** 			case STATE_running:
  72:C:/data/workspaces/github/de.protos.demos/src/XMC2GoBlinky/etrice.XMC2GoBlinky.demo/src-gen-mt/XMC2GoDemoModel\MrPong.c **** 				self->history[STATE_TOP] = STATE_running;
 163              		.loc 1 72 0
 164 001c 7B68     		ldr	r3, [r7, #4]
 165 001e 0222     		mov	r2, #2
 166 0020 1A81     		strh	r2, [r3, #8]
  73:C:/data/workspaces/github/de.protos.demos/src/XMC2GoBlinky/etrice.XMC2GoBlinky.demo/src-gen-mt/XMC2GoDemoModel\MrPong.c **** 				current__et = STATE_TOP;
 167              		.loc 1 73 0
 168 0022 BB1C     		add	r3, r7, #2
 169 0024 0122     		mov	r2, #1
 170 0026 1A80     		strh	r2, [r3]
  74:C:/data/workspaces/github/de.protos.demos/src/XMC2GoBlinky/etrice.XMC2GoBlinky.demo/src-gen-mt/XMC2GoDemoModel\MrPong.c **** 				break;
 171              		.loc 1 74 0
 172 0028 04E0     		b	.L6
 173              	.L10:
 174 002a BB1C     		add	r3, r7, #2
 175 002c BA1C     		add	r2, r7, #2
 176 002e 1288     		ldrh	r2, [r2]
 177 0030 1A80     		strh	r2, [r3]
  75:C:/data/workspaces/github/de.protos.demos/src/XMC2GoBlinky/etrice.XMC2GoBlinky.demo/src-gen-mt/XMC2GoDemoModel\MrPong.c **** 			default:
  76:C:/data/workspaces/github/de.protos.demos/src/XMC2GoBlinky/etrice.XMC2GoBlinky.demo/src-gen-mt/XMC2GoDemoModel\MrPong.c **** 				/* should not occur */
  77:C:/data/workspaces/github/de.protos.demos/src/XMC2GoBlinky/etrice.XMC2GoBlinky.demo/src-gen-mt/XMC2GoDemoModel\MrPong.c **** 				break;
 178              		.loc 1 77 0
 179 0032 C046     		mov	r8, r8
 180              	.L6:
  69:C:/data/workspaces/github/de.protos.demos/src/XMC2GoBlinky/etrice.XMC2GoBlinky.demo/src-gen-mt/XMC2GoDemoModel\MrPong.c **** 	while (current__et!=to) {
 181              		.loc 1 69 0 discriminator 1
 182 0034 BA1C     		add	r2, r7, #2
 183 0036 3B1C     		mov	r3, r7
 184 0038 0021     		mov	r1, #0
 185 003a 525E     		ldrsh	r2, [r2, r1]
 186 003c 0021     		mov	r1, #0
 187 003e 5B5E     		ldrsh	r3, [r3, r1]
 188 0040 9A42     		cmp	r2, r3
 189 0042 E6D1     		bne	.L9
  78:C:/data/workspaces/github/de.protos.demos/src/XMC2GoBlinky/etrice.XMC2GoBlinky.demo/src-gen-mt/XMC2GoDemoModel\MrPong.c **** 		}
  79:C:/data/workspaces/github/de.protos.demos/src/XMC2GoBlinky/etrice.XMC2GoBlinky.demo/src-gen-mt/XMC2GoDemoModel\MrPong.c **** 	}
  80:C:/data/workspaces/github/de.protos.demos/src/XMC2GoBlinky/etrice.XMC2GoBlinky.demo/src-gen-mt/XMC2GoDemoModel\MrPong.c **** }
 190              		.loc 1 80 0
 191 0044 BD46     		mov	sp, r7
 192 0046 02B0     		add	sp, sp, #8
 193              		@ sp needed for prologue
 194 0048 80BD     		pop	{r7, pc}
 195              		.cfi_endproc
 196              	.LFE3:
 198 004a C046     		.section	.text.executeTransitionChain,"ax",%progbits
 199              		.align	2
 200              		.code	16
 201              		.thumb_func
 203              	executeTransitionChain:
 204              	.LFB4:
  81:C:/data/workspaces/github/de.protos.demos/src/XMC2GoBlinky/etrice.XMC2GoBlinky.demo/src-gen-mt/XMC2GoDemoModel\MrPong.c **** 
  82:C:/data/workspaces/github/de.protos.demos/src/XMC2GoBlinky/etrice.XMC2GoBlinky.demo/src-gen-mt/XMC2GoDemoModel\MrPong.c **** /**
  83:C:/data/workspaces/github/de.protos.demos/src/XMC2GoBlinky/etrice.XMC2GoBlinky.demo/src-gen-mt/XMC2GoDemoModel\MrPong.c ****  * calls action, entry and exit codes along a transition chain. The generic data are cast to typed 
  84:C:/data/workspaces/github/de.protos.demos/src/XMC2GoBlinky/etrice.XMC2GoBlinky.demo/src-gen-mt/XMC2GoDemoModel\MrPong.c ****  * matching the trigger of this chain. The ID of the final state is returned
  85:C:/data/workspaces/github/de.protos.demos/src/XMC2GoBlinky/etrice.XMC2GoBlinky.demo/src-gen-mt/XMC2GoDemoModel\MrPong.c ****  * @param chain__et - the chain ID
  86:C:/data/workspaces/github/de.protos.demos/src/XMC2GoBlinky/etrice.XMC2GoBlinky.demo/src-gen-mt/XMC2GoDemoModel\MrPong.c ****  * @param generic_data__et - the generic data pointer
  87:C:/data/workspaces/github/de.protos.demos/src/XMC2GoBlinky/etrice.XMC2GoBlinky.demo/src-gen-mt/XMC2GoDemoModel\MrPong.c ****  * @return the +/- ID of the final state either with a positive sign, that indicates to execute the
  88:C:/data/workspaces/github/de.protos.demos/src/XMC2GoBlinky/etrice.XMC2GoBlinky.demo/src-gen-mt/XMC2GoDemoModel\MrPong.c ****  */
  89:C:/data/workspaces/github/de.protos.demos/src/XMC2GoBlinky/etrice.XMC2GoBlinky.demo/src-gen-mt/XMC2GoDemoModel\MrPong.c **** static etInt16 executeTransitionChain(MrPong* self, int chain__et, const InterfaceItemBase* ifitem,
 205              		.loc 1 89 0
 206              		.cfi_startproc
 207 0000 80B5     		push	{r7, lr}
 208              	.LCFI12:
 209              		.cfi_def_cfa_offset 8
 210              		.cfi_offset 7, -8
 211              		.cfi_offset 14, -4
 212 0002 86B0     		sub	sp, sp, #24
 213              	.LCFI13:
 214              		.cfi_def_cfa_offset 32
 215 0004 00AF     		add	r7, sp, #0
 216              	.LCFI14:
 217              		.cfi_def_cfa_register 7
 218 0006 F860     		str	r0, [r7, #12]
 219 0008 B960     		str	r1, [r7, #8]
 220 000a 7A60     		str	r2, [r7, #4]
 221 000c 3B60     		str	r3, [r7]
  90:C:/data/workspaces/github/de.protos.demos/src/XMC2GoBlinky/etrice.XMC2GoBlinky.demo/src-gen-mt/XMC2GoDemoModel\MrPong.c **** 	switch (chain__et) {
 222              		.loc 1 90 0
 223 000e BB68     		ldr	r3, [r7, #8]
 224 0010 012B     		cmp	r3, #1
 225 0012 02D0     		beq	.L13
 226 0014 022B     		cmp	r3, #2
 227 0016 02D0     		beq	.L14
 228 0018 0DE0     		b	.L16
 229              	.L13:
  91:C:/data/workspaces/github/de.protos.demos/src/XMC2GoBlinky/etrice.XMC2GoBlinky.demo/src-gen-mt/XMC2GoDemoModel\MrPong.c **** 		case CHAIN_TRANS_INITIAL_TO__running:
  92:C:/data/workspaces/github/de.protos.demos/src/XMC2GoBlinky/etrice.XMC2GoBlinky.demo/src-gen-mt/XMC2GoDemoModel\MrPong.c **** 		{
  93:C:/data/workspaces/github/de.protos.demos/src/XMC2GoBlinky/etrice.XMC2GoBlinky.demo/src-gen-mt/XMC2GoDemoModel\MrPong.c **** 			return STATE_running;
 230              		.loc 1 93 0
 231 001a 0223     		mov	r3, #2
 232 001c 0DE0     		b	.L15
 233              	.L14:
 234              	.LBB2:
  94:C:/data/workspaces/github/de.protos.demos/src/XMC2GoBlinky/etrice.XMC2GoBlinky.demo/src-gen-mt/XMC2GoDemoModel\MrPong.c **** 		}
  95:C:/data/workspaces/github/de.protos.demos/src/XMC2GoBlinky/etrice.XMC2GoBlinky.demo/src-gen-mt/XMC2GoDemoModel\MrPong.c **** 		case CHAIN_TRANS_tr0_FROM_running_TO_running_BY_pingp0_tr0:
  96:C:/data/workspaces/github/de.protos.demos/src/XMC2GoBlinky/etrice.XMC2GoBlinky.demo/src-gen-mt/XMC2GoDemoModel\MrPong.c **** 		{
  97:C:/data/workspaces/github/de.protos.demos/src/XMC2GoBlinky/etrice.XMC2GoBlinky.demo/src-gen-mt/XMC2GoDemoModel\MrPong.c **** 			PingPongData* data = ((PingPongData*) generic_data__et);
 235              		.loc 1 97 0
 236 001e 3B68     		ldr	r3, [r7]
 237 0020 7B61     		str	r3, [r7, #20]
  98:C:/data/workspaces/github/de.protos.demos/src/XMC2GoBlinky/etrice.XMC2GoBlinky.demo/src-gen-mt/XMC2GoDemoModel\MrPong.c **** 			action_TRANS_tr0_FROM_running_TO_running_BY_pingp0_tr0(self, ifitem, data);
 238              		.loc 1 98 0
 239 0022 F968     		ldr	r1, [r7, #12]
 240 0024 7A68     		ldr	r2, [r7, #4]
 241 0026 7B69     		ldr	r3, [r7, #20]
 242 0028 081C     		mov	r0, r1
 243 002a 111C     		mov	r1, r2
 244 002c 1A1C     		mov	r2, r3
 245 002e FFF7FEFF 		bl	action_TRANS_tr0_FROM_running_TO_running_BY_pingp0_tr0
  99:C:/data/workspaces/github/de.protos.demos/src/XMC2GoBlinky/etrice.XMC2GoBlinky.demo/src-gen-mt/XMC2GoDemoModel\MrPong.c **** 			return STATE_running;
 246              		.loc 1 99 0
 247 0032 0223     		mov	r3, #2
 248 0034 01E0     		b	.L15
 249              	.L16:
 250              	.LBE2:
 100:C:/data/workspaces/github/de.protos.demos/src/XMC2GoBlinky/etrice.XMC2GoBlinky.demo/src-gen-mt/XMC2GoDemoModel\MrPong.c **** 		}
 101:C:/data/workspaces/github/de.protos.demos/src/XMC2GoBlinky/etrice.XMC2GoBlinky.demo/src-gen-mt/XMC2GoDemoModel\MrPong.c **** 			default:
 102:C:/data/workspaces/github/de.protos.demos/src/XMC2GoBlinky/etrice.XMC2GoBlinky.demo/src-gen-mt/XMC2GoDemoModel\MrPong.c **** 				/* should not occur */
 103:C:/data/workspaces/github/de.protos.demos/src/XMC2GoBlinky/etrice.XMC2GoBlinky.demo/src-gen-mt/XMC2GoDemoModel\MrPong.c **** 				break;
 251              		.loc 1 103 0
 252 0036 C046     		mov	r8, r8
 104:C:/data/workspaces/github/de.protos.demos/src/XMC2GoBlinky/etrice.XMC2GoBlinky.demo/src-gen-mt/XMC2GoDemoModel\MrPong.c **** 	}
 105:C:/data/workspaces/github/de.protos.demos/src/XMC2GoBlinky/etrice.XMC2GoBlinky.demo/src-gen-mt/XMC2GoDemoModel\MrPong.c **** 	return NO_STATE;
 253              		.loc 1 105 0
 254 0038 0023     		mov	r3, #0
 255              	.L15:
 256 003a 1BB2     		sxth	r3, r3
 106:C:/data/workspaces/github/de.protos.demos/src/XMC2GoBlinky/etrice.XMC2GoBlinky.demo/src-gen-mt/XMC2GoDemoModel\MrPong.c **** }
 257              		.loc 1 106 0
 258 003c 181C     		mov	r0, r3
 259 003e BD46     		mov	sp, r7
 260 0040 06B0     		add	sp, sp, #24
 261              		@ sp needed for prologue
 262 0042 80BD     		pop	{r7, pc}
 263              		.cfi_endproc
 264              	.LFE4:
 266              		.section	.text.enterHistory,"ax",%progbits
 267              		.align	2
 268              		.code	16
 269              		.thumb_func
 271              	enterHistory:
 272              	.LFB5:
 107:C:/data/workspaces/github/de.protos.demos/src/XMC2GoBlinky/etrice.XMC2GoBlinky.demo/src-gen-mt/XMC2GoDemoModel\MrPong.c **** 
 108:C:/data/workspaces/github/de.protos.demos/src/XMC2GoBlinky/etrice.XMC2GoBlinky.demo/src-gen-mt/XMC2GoDemoModel\MrPong.c **** /**
 109:C:/data/workspaces/github/de.protos.demos/src/XMC2GoBlinky/etrice.XMC2GoBlinky.demo/src-gen-mt/XMC2GoDemoModel\MrPong.c ****  * calls entry codes while entering a state's history. The ID of the final leaf state is returned
 110:C:/data/workspaces/github/de.protos.demos/src/XMC2GoBlinky/etrice.XMC2GoBlinky.demo/src-gen-mt/XMC2GoDemoModel\MrPong.c ****  * @param state__et - the state which is entered
 111:C:/data/workspaces/github/de.protos.demos/src/XMC2GoBlinky/etrice.XMC2GoBlinky.demo/src-gen-mt/XMC2GoDemoModel\MrPong.c ****  * @return - the ID of the final leaf state
 112:C:/data/workspaces/github/de.protos.demos/src/XMC2GoBlinky/etrice.XMC2GoBlinky.demo/src-gen-mt/XMC2GoDemoModel\MrPong.c ****  */
 113:C:/data/workspaces/github/de.protos.demos/src/XMC2GoBlinky/etrice.XMC2GoBlinky.demo/src-gen-mt/XMC2GoDemoModel\MrPong.c **** static etInt16 enterHistory(MrPong* self, etInt16 state__et) {
 273              		.loc 1 113 0
 274              		.cfi_startproc
 275 0000 80B5     		push	{r7, lr}
 276              	.LCFI15:
 277              		.cfi_def_cfa_offset 8
 278              		.cfi_offset 7, -8
 279              		.cfi_offset 14, -4
 280 0002 84B0     		sub	sp, sp, #16
 281              	.LCFI16:
 282              		.cfi_def_cfa_offset 24
 283 0004 00AF     		add	r7, sp, #0
 284              	.LCFI17:
 285              		.cfi_def_cfa_register 7
 286 0006 7860     		str	r0, [r7, #4]
 287 0008 0A1C     		mov	r2, r1
 288 000a BB1C     		add	r3, r7, #2
 289 000c 1A80     		strh	r2, [r3]
 114:C:/data/workspaces/github/de.protos.demos/src/XMC2GoBlinky/etrice.XMC2GoBlinky.demo/src-gen-mt/XMC2GoDemoModel\MrPong.c **** 	boolean skip_entry__et = ET_FALSE;
 290              		.loc 1 114 0
 291 000e 3B1C     		mov	r3, r7
 292 0010 0F33     		add	r3, r3, #15
 293 0012 0022     		mov	r2, #0
 294 0014 1A70     		strb	r2, [r3]
 115:C:/data/workspaces/github/de.protos.demos/src/XMC2GoBlinky/etrice.XMC2GoBlinky.demo/src-gen-mt/XMC2GoDemoModel\MrPong.c **** 	if (state__et >= STATE_MAX) {
 295              		.loc 1 115 0
 296 0016 BB1C     		add	r3, r7, #2
 297 0018 0022     		mov	r2, #0
 298 001a 9B5E     		ldrsh	r3, [r3, r2]
 299 001c 022B     		cmp	r3, #2
 300 001e 09DD     		ble	.L18
 116:C:/data/workspaces/github/de.protos.demos/src/XMC2GoBlinky/etrice.XMC2GoBlinky.demo/src-gen-mt/XMC2GoDemoModel\MrPong.c **** 		state__et = (etInt16) (state__et - STATE_MAX);
 301              		.loc 1 116 0
 302 0020 BB1C     		add	r3, r7, #2
 303 0022 1B88     		ldrh	r3, [r3]
 304 0024 033B     		sub	r3, r3, #3
 305 0026 9AB2     		uxth	r2, r3
 306 0028 BB1C     		add	r3, r7, #2
 307 002a 1A80     		strh	r2, [r3]
 117:C:/data/workspaces/github/de.protos.demos/src/XMC2GoBlinky/etrice.XMC2GoBlinky.demo/src-gen-mt/XMC2GoDemoModel\MrPong.c **** 		skip_entry__et = ET_TRUE;
 308              		.loc 1 117 0
 309 002c 3B1C     		mov	r3, r7
 310 002e 0F33     		add	r3, r3, #15
 311 0030 0122     		mov	r2, #1
 312 0032 1A70     		strb	r2, [r3]
 313              	.L18:
 118:C:/data/workspaces/github/de.protos.demos/src/XMC2GoBlinky/etrice.XMC2GoBlinky.demo/src-gen-mt/XMC2GoDemoModel\MrPong.c **** 	}
 119:C:/data/workspaces/github/de.protos.demos/src/XMC2GoBlinky/etrice.XMC2GoBlinky.demo/src-gen-mt/XMC2GoDemoModel\MrPong.c **** 	while (ET_TRUE) {
 120:C:/data/workspaces/github/de.protos.demos/src/XMC2GoBlinky/etrice.XMC2GoBlinky.demo/src-gen-mt/XMC2GoDemoModel\MrPong.c **** 		switch (state__et) {
 314              		.loc 1 120 0
 315 0034 BB1C     		add	r3, r7, #2
 316 0036 0022     		mov	r2, #0
 317 0038 9B5E     		ldrsh	r3, [r3, r2]
 318 003a 012B     		cmp	r3, #1
 319 003c 04D0     		beq	.L20
 320 003e 022B     		cmp	r3, #2
 321 0040 07D1     		bne	.L24
 322              	.L21:
 121:C:/data/workspaces/github/de.protos.demos/src/XMC2GoBlinky/etrice.XMC2GoBlinky.demo/src-gen-mt/XMC2GoDemoModel\MrPong.c **** 			case STATE_running:
 122:C:/data/workspaces/github/de.protos.demos/src/XMC2GoBlinky/etrice.XMC2GoBlinky.demo/src-gen-mt/XMC2GoDemoModel\MrPong.c **** 				/* in leaf state: return state id */
 123:C:/data/workspaces/github/de.protos.demos/src/XMC2GoBlinky/etrice.XMC2GoBlinky.demo/src-gen-mt/XMC2GoDemoModel\MrPong.c **** 				return STATE_running;
 323              		.loc 1 123 0
 324 0042 0223     		mov	r3, #2
 325 0044 1BB2     		sxth	r3, r3
 326 0046 0AE0     		b	.L25
 327              	.L20:
 124:C:/data/workspaces/github/de.protos.demos/src/XMC2GoBlinky/etrice.XMC2GoBlinky.demo/src-gen-mt/XMC2GoDemoModel\MrPong.c **** 			case STATE_TOP:
 125:C:/data/workspaces/github/de.protos.demos/src/XMC2GoBlinky/etrice.XMC2GoBlinky.demo/src-gen-mt/XMC2GoDemoModel\MrPong.c **** 				state__et = self->history[STATE_TOP];
 328              		.loc 1 125 0
 329 0048 BB1C     		add	r3, r7, #2
 330 004a 7A68     		ldr	r2, [r7, #4]
 331 004c 1289     		ldrh	r2, [r2, #8]
 332 004e 1A80     		strh	r2, [r3]
 126:C:/data/workspaces/github/de.protos.demos/src/XMC2GoBlinky/etrice.XMC2GoBlinky.demo/src-gen-mt/XMC2GoDemoModel\MrPong.c **** 				break;
 333              		.loc 1 126 0
 334 0050 00E0     		b	.L23
 335              	.L24:
 127:C:/data/workspaces/github/de.protos.demos/src/XMC2GoBlinky/etrice.XMC2GoBlinky.demo/src-gen-mt/XMC2GoDemoModel\MrPong.c **** 			default:
 128:C:/data/workspaces/github/de.protos.demos/src/XMC2GoBlinky/etrice.XMC2GoBlinky.demo/src-gen-mt/XMC2GoDemoModel\MrPong.c **** 				/* should not occur */
 129:C:/data/workspaces/github/de.protos.demos/src/XMC2GoBlinky/etrice.XMC2GoBlinky.demo/src-gen-mt/XMC2GoDemoModel\MrPong.c **** 				break;
 336              		.loc 1 129 0
 337 0052 C046     		mov	r8, r8
 338              	.L23:
 130:C:/data/workspaces/github/de.protos.demos/src/XMC2GoBlinky/etrice.XMC2GoBlinky.demo/src-gen-mt/XMC2GoDemoModel\MrPong.c **** 		}
 131:C:/data/workspaces/github/de.protos.demos/src/XMC2GoBlinky/etrice.XMC2GoBlinky.demo/src-gen-mt/XMC2GoDemoModel\MrPong.c **** 		skip_entry__et = ET_FALSE;
 339              		.loc 1 131 0
 340 0054 3B1C     		mov	r3, r7
 341 0056 0F33     		add	r3, r3, #15
 342 0058 0022     		mov	r2, #0
 343 005a 1A70     		strb	r2, [r3]
 132:C:/data/workspaces/github/de.protos.demos/src/XMC2GoBlinky/etrice.XMC2GoBlinky.demo/src-gen-mt/XMC2GoDemoModel\MrPong.c **** 	}
 344              		.loc 1 132 0
 345 005c EAE7     		b	.L18
 346              	.L25:
 133:C:/data/workspaces/github/de.protos.demos/src/XMC2GoBlinky/etrice.XMC2GoBlinky.demo/src-gen-mt/XMC2GoDemoModel\MrPong.c **** 	/* return NO_STATE; // required by CDT but detected as unreachable by JDT because of while (true) 
 134:C:/data/workspaces/github/de.protos.demos/src/XMC2GoBlinky/etrice.XMC2GoBlinky.demo/src-gen-mt/XMC2GoDemoModel\MrPong.c **** }
 347              		.loc 1 134 0
 348 005e 181C     		mov	r0, r3
 349 0060 BD46     		mov	sp, r7
 350 0062 04B0     		add	sp, sp, #16
 351              		@ sp needed for prologue
 352 0064 80BD     		pop	{r7, pc}
 353              		.cfi_endproc
 354              	.LFE5:
 356 0066 C046     		.section	.text.MrPong_executeInitTransition,"ax",%progbits
 357              		.align	2
 358              		.code	16
 359              		.thumb_func
 361              	MrPong_executeInitTransition:
 362              	.LFB6:
 135:C:/data/workspaces/github/de.protos.demos/src/XMC2GoBlinky/etrice.XMC2GoBlinky.demo/src-gen-mt/XMC2GoDemoModel\MrPong.c **** 
 136:C:/data/workspaces/github/de.protos.demos/src/XMC2GoBlinky/etrice.XMC2GoBlinky.demo/src-gen-mt/XMC2GoDemoModel\MrPong.c **** static void MrPong_executeInitTransition(MrPong* self) {
 363              		.loc 1 136 0
 364              		.cfi_startproc
 365 0000 90B5     		push	{r4, r7, lr}
 366              	.LCFI18:
 367              		.cfi_def_cfa_offset 12
 368              		.cfi_offset 4, -12
 369              		.cfi_offset 7, -8
 370              		.cfi_offset 14, -4
 371 0002 85B0     		sub	sp, sp, #20
 372              	.LCFI19:
 373              		.cfi_def_cfa_offset 32
 374 0004 00AF     		add	r7, sp, #0
 375              	.LCFI20:
 376              		.cfi_def_cfa_register 7
 377 0006 7860     		str	r0, [r7, #4]
 137:C:/data/workspaces/github/de.protos.demos/src/XMC2GoBlinky/etrice.XMC2GoBlinky.demo/src-gen-mt/XMC2GoDemoModel\MrPong.c **** 	int chain__et = CHAIN_TRANS_INITIAL_TO__running;
 378              		.loc 1 137 0
 379 0008 0123     		mov	r3, #1
 380 000a FB60     		str	r3, [r7, #12]
 138:C:/data/workspaces/github/de.protos.demos/src/XMC2GoBlinky/etrice.XMC2GoBlinky.demo/src-gen-mt/XMC2GoDemoModel\MrPong.c **** 	etInt16 next__et = executeTransitionChain(self, chain__et, NULL, NULL);
 381              		.loc 1 138 0
 382 000c 3C1C     		mov	r4, r7
 383 000e 0A34     		add	r4, r4, #10
 384 0010 7A68     		ldr	r2, [r7, #4]
 385 0012 FB68     		ldr	r3, [r7, #12]
 386 0014 101C     		mov	r0, r2
 387 0016 191C     		mov	r1, r3
 388 0018 0022     		mov	r2, #0
 389 001a 0023     		mov	r3, #0
 390 001c FFF7FEFF 		bl	executeTransitionChain
 391 0020 031C     		mov	r3, r0
 392 0022 2380     		strh	r3, [r4]
 139:C:/data/workspaces/github/de.protos.demos/src/XMC2GoBlinky/etrice.XMC2GoBlinky.demo/src-gen-mt/XMC2GoDemoModel\MrPong.c **** 	next__et = enterHistory(self, next__et);
 393              		.loc 1 139 0
 394 0024 3C1C     		mov	r4, r7
 395 0026 0A34     		add	r4, r4, #10
 396 0028 7A68     		ldr	r2, [r7, #4]
 397 002a 3B1C     		mov	r3, r7
 398 002c 0A33     		add	r3, r3, #10
 399 002e 0021     		mov	r1, #0
 400 0030 5B5E     		ldrsh	r3, [r3, r1]
 401 0032 101C     		mov	r0, r2
 402 0034 191C     		mov	r1, r3
 403 0036 FFF7FEFF 		bl	enterHistory
 404 003a 031C     		mov	r3, r0
 405 003c 2380     		strh	r3, [r4]
 140:C:/data/workspaces/github/de.protos.demos/src/XMC2GoBlinky/etrice.XMC2GoBlinky.demo/src-gen-mt/XMC2GoDemoModel\MrPong.c **** 	setState(self, next__et);
 406              		.loc 1 140 0
 407 003e 7A68     		ldr	r2, [r7, #4]
 408 0040 3B1C     		mov	r3, r7
 409 0042 0A33     		add	r3, r3, #10
 410 0044 0021     		mov	r1, #0
 411 0046 5B5E     		ldrsh	r3, [r3, r1]
 412 0048 101C     		mov	r0, r2
 413 004a 191C     		mov	r1, r3
 414 004c FFF7FEFF 		bl	setState
 141:C:/data/workspaces/github/de.protos.demos/src/XMC2GoBlinky/etrice.XMC2GoBlinky.demo/src-gen-mt/XMC2GoDemoModel\MrPong.c **** }
 415              		.loc 1 141 0
 416 0050 BD46     		mov	sp, r7
 417 0052 05B0     		add	sp, sp, #20
 418              		@ sp needed for prologue
 419 0054 90BD     		pop	{r4, r7, pc}
 420              		.cfi_endproc
 421              	.LFE6:
 423 0056 C046     		.section	.text.MrPong_receiveEvent,"ax",%progbits
 424              		.align	2
 425              		.code	16
 426              		.thumb_func
 428              	MrPong_receiveEvent:
 429              	.LFB7:
 142:C:/data/workspaces/github/de.protos.demos/src/XMC2GoBlinky/etrice.XMC2GoBlinky.demo/src-gen-mt/XMC2GoDemoModel\MrPong.c **** 
 143:C:/data/workspaces/github/de.protos.demos/src/XMC2GoBlinky/etrice.XMC2GoBlinky.demo/src-gen-mt/XMC2GoDemoModel\MrPong.c **** /* receiveEvent contains the main implementation of the FSM */
 144:C:/data/workspaces/github/de.protos.demos/src/XMC2GoBlinky/etrice.XMC2GoBlinky.demo/src-gen-mt/XMC2GoDemoModel\MrPong.c **** static void MrPong_receiveEvent(MrPong* self, InterfaceItemBase* ifitem, int evt, void* generic_dat
 430              		.loc 1 144 0
 431              		.cfi_startproc
 432 0000 90B5     		push	{r4, r7, lr}
 433              	.LCFI21:
 434              		.cfi_def_cfa_offset 12
 435              		.cfi_offset 4, -12
 436              		.cfi_offset 7, -8
 437              		.cfi_offset 14, -4
 438 0002 89B0     		sub	sp, sp, #36
 439              	.LCFI22:
 440              		.cfi_def_cfa_offset 48
 441 0004 00AF     		add	r7, sp, #0
 442              	.LCFI23:
 443              		.cfi_def_cfa_register 7
 444 0006 F860     		str	r0, [r7, #12]
 445 0008 B960     		str	r1, [r7, #8]
 446 000a 7A60     		str	r2, [r7, #4]
 447 000c 3B60     		str	r3, [r7]
 145:C:/data/workspaces/github/de.protos.demos/src/XMC2GoBlinky/etrice.XMC2GoBlinky.demo/src-gen-mt/XMC2GoDemoModel\MrPong.c **** 	int trigger__et = ifitem->localId + EVT_SHIFT*evt;
 448              		.loc 1 145 0
 449 000e BB68     		ldr	r3, [r7, #8]
 450 0010 5B7A     		ldrb	r3, [r3, #9]
 451 0012 1A1C     		mov	r2, r3
 452 0014 7B68     		ldr	r3, [r7, #4]
 453 0016 6421     		mov	r1, #100
 454 0018 4B43     		mul	r3, r1
 455 001a D318     		add	r3, r2, r3
 456 001c 7B61     		str	r3, [r7, #20]
 146:C:/data/workspaces/github/de.protos.demos/src/XMC2GoBlinky/etrice.XMC2GoBlinky.demo/src-gen-mt/XMC2GoDemoModel\MrPong.c **** 	int chain__et = NOT_CAUGHT;
 457              		.loc 1 146 0
 458 001e 0023     		mov	r3, #0
 459 0020 FB61     		str	r3, [r7, #28]
 147:C:/data/workspaces/github/de.protos.demos/src/XMC2GoBlinky/etrice.XMC2GoBlinky.demo/src-gen-mt/XMC2GoDemoModel\MrPong.c **** 	etInt16 catching_state__et = NO_STATE;
 460              		.loc 1 147 0
 461 0022 3B1C     		mov	r3, r7
 462 0024 1A33     		add	r3, r3, #26
 463 0026 0022     		mov	r2, #0
 464 0028 1A80     		strh	r2, [r3]
 148:C:/data/workspaces/github/de.protos.demos/src/XMC2GoBlinky/etrice.XMC2GoBlinky.demo/src-gen-mt/XMC2GoDemoModel\MrPong.c **** 	((void)trigger__et);	/* avoids unused warning */
 149:C:/data/workspaces/github/de.protos.demos/src/XMC2GoBlinky/etrice.XMC2GoBlinky.demo/src-gen-mt/XMC2GoDemoModel\MrPong.c **** 	
 150:C:/data/workspaces/github/de.protos.demos/src/XMC2GoBlinky/etrice.XMC2GoBlinky.demo/src-gen-mt/XMC2GoDemoModel\MrPong.c **** 	if (!handleSystemEvent(ifitem, evt, generic_data__et)) {
 465              		.loc 1 150 0
 466 002a B968     		ldr	r1, [r7, #8]
 467 002c 7A68     		ldr	r2, [r7, #4]
 468 002e 3B68     		ldr	r3, [r7]
 469 0030 081C     		mov	r0, r1
 470 0032 111C     		mov	r1, r2
 471 0034 1A1C     		mov	r2, r3
 472 0036 FFF7FEFF 		bl	handleSystemEvent
 473 003a 031C     		mov	r3, r0
 474 003c 002B     		cmp	r3, #0
 475 003e 13D1     		bne	.L28
 151:C:/data/workspaces/github/de.protos.demos/src/XMC2GoBlinky/etrice.XMC2GoBlinky.demo/src-gen-mt/XMC2GoDemoModel\MrPong.c **** 		switch (getState(self)) {
 476              		.loc 1 151 0
 477 0040 FB68     		ldr	r3, [r7, #12]
 478 0042 181C     		mov	r0, r3
 479 0044 FFF7FEFF 		bl	getState
 480 0048 031C     		mov	r3, r0
 481 004a 022B     		cmp	r3, #2
 482 004c 0BD1     		bne	.L35
 483              	.L30:
 152:C:/data/workspaces/github/de.protos.demos/src/XMC2GoBlinky/etrice.XMC2GoBlinky.demo/src-gen-mt/XMC2GoDemoModel\MrPong.c **** 			case STATE_running:
 153:C:/data/workspaces/github/de.protos.demos/src/XMC2GoBlinky/etrice.XMC2GoBlinky.demo/src-gen-mt/XMC2GoDemoModel\MrPong.c **** 				switch(trigger__et) {
 484              		.loc 1 153 0
 485 004e 7B69     		ldr	r3, [r7, #20]
 486 0050 C92B     		cmp	r3, #201
 487 0052 06D1     		bne	.L36
 488              	.L32:
 154:C:/data/workspaces/github/de.protos.demos/src/XMC2GoBlinky/etrice.XMC2GoBlinky.demo/src-gen-mt/XMC2GoDemoModel\MrPong.c **** 						case TRIG_p0__ping:
 155:C:/data/workspaces/github/de.protos.demos/src/XMC2GoBlinky/etrice.XMC2GoBlinky.demo/src-gen-mt/XMC2GoDemoModel\MrPong.c **** 							{
 156:C:/data/workspaces/github/de.protos.demos/src/XMC2GoBlinky/etrice.XMC2GoBlinky.demo/src-gen-mt/XMC2GoDemoModel\MrPong.c **** 								chain__et = CHAIN_TRANS_tr0_FROM_running_TO_running_BY_pingp0_tr0;
 489              		.loc 1 156 0
 490 0054 0223     		mov	r3, #2
 491 0056 FB61     		str	r3, [r7, #28]
 157:C:/data/workspaces/github/de.protos.demos/src/XMC2GoBlinky/etrice.XMC2GoBlinky.demo/src-gen-mt/XMC2GoDemoModel\MrPong.c **** 								catching_state__et = STATE_TOP;
 492              		.loc 1 157 0
 493 0058 3B1C     		mov	r3, r7
 494 005a 1A33     		add	r3, r3, #26
 495 005c 0122     		mov	r2, #1
 496 005e 1A80     		strh	r2, [r3]
 158:C:/data/workspaces/github/de.protos.demos/src/XMC2GoBlinky/etrice.XMC2GoBlinky.demo/src-gen-mt/XMC2GoDemoModel\MrPong.c **** 							}
 159:C:/data/workspaces/github/de.protos.demos/src/XMC2GoBlinky/etrice.XMC2GoBlinky.demo/src-gen-mt/XMC2GoDemoModel\MrPong.c **** 						break;
 497              		.loc 1 159 0
 498 0060 00E0     		b	.L33
 499              	.L36:
 160:C:/data/workspaces/github/de.protos.demos/src/XMC2GoBlinky/etrice.XMC2GoBlinky.demo/src-gen-mt/XMC2GoDemoModel\MrPong.c **** 						default:
 161:C:/data/workspaces/github/de.protos.demos/src/XMC2GoBlinky/etrice.XMC2GoBlinky.demo/src-gen-mt/XMC2GoDemoModel\MrPong.c **** 							/* should not occur */
 162:C:/data/workspaces/github/de.protos.demos/src/XMC2GoBlinky/etrice.XMC2GoBlinky.demo/src-gen-mt/XMC2GoDemoModel\MrPong.c **** 							break;
 500              		.loc 1 162 0
 501 0062 C046     		mov	r8, r8
 502              	.L33:
 163:C:/data/workspaces/github/de.protos.demos/src/XMC2GoBlinky/etrice.XMC2GoBlinky.demo/src-gen-mt/XMC2GoDemoModel\MrPong.c **** 				}
 164:C:/data/workspaces/github/de.protos.demos/src/XMC2GoBlinky/etrice.XMC2GoBlinky.demo/src-gen-mt/XMC2GoDemoModel\MrPong.c **** 				break;
 503              		.loc 1 164 0
 504 0064 00E0     		b	.L28
 505              	.L35:
 165:C:/data/workspaces/github/de.protos.demos/src/XMC2GoBlinky/etrice.XMC2GoBlinky.demo/src-gen-mt/XMC2GoDemoModel\MrPong.c **** 			default:
 166:C:/data/workspaces/github/de.protos.demos/src/XMC2GoBlinky/etrice.XMC2GoBlinky.demo/src-gen-mt/XMC2GoDemoModel\MrPong.c **** 				/* should not occur */
 167:C:/data/workspaces/github/de.protos.demos/src/XMC2GoBlinky/etrice.XMC2GoBlinky.demo/src-gen-mt/XMC2GoDemoModel\MrPong.c **** 				break;
 506              		.loc 1 167 0
 507 0066 C046     		mov	r8, r8
 508              	.L28:
 168:C:/data/workspaces/github/de.protos.demos/src/XMC2GoBlinky/etrice.XMC2GoBlinky.demo/src-gen-mt/XMC2GoDemoModel\MrPong.c **** 		}
 169:C:/data/workspaces/github/de.protos.demos/src/XMC2GoBlinky/etrice.XMC2GoBlinky.demo/src-gen-mt/XMC2GoDemoModel\MrPong.c **** 	}
 170:C:/data/workspaces/github/de.protos.demos/src/XMC2GoBlinky/etrice.XMC2GoBlinky.demo/src-gen-mt/XMC2GoDemoModel\MrPong.c **** 	if (chain__et != NOT_CAUGHT) {
 509              		.loc 1 170 0
 510 0068 FB69     		ldr	r3, [r7, #28]
 511 006a 002B     		cmp	r3, #0
 512 006c 2FD0     		beq	.L27
 171:C:/data/workspaces/github/de.protos.demos/src/XMC2GoBlinky/etrice.XMC2GoBlinky.demo/src-gen-mt/XMC2GoDemoModel\MrPong.c **** 		exitTo(self, getState(self), catching_state__et);
 513              		.loc 1 171 0
 514 006e FB68     		ldr	r3, [r7, #12]
 515 0070 181C     		mov	r0, r3
 516 0072 FFF7FEFF 		bl	getState
 517 0076 031C     		mov	r3, r0
 518 0078 1A1C     		mov	r2, r3
 519 007a F968     		ldr	r1, [r7, #12]
 520 007c 3B1C     		mov	r3, r7
 521 007e 1A33     		add	r3, r3, #26
 522 0080 0020     		mov	r0, #0
 523 0082 1B5E     		ldrsh	r3, [r3, r0]
 524 0084 081C     		mov	r0, r1
 525 0086 111C     		mov	r1, r2
 526 0088 1A1C     		mov	r2, r3
 527 008a FFF7FEFF 		bl	exitTo
 528              	.LBB3:
 172:C:/data/workspaces/github/de.protos.demos/src/XMC2GoBlinky/etrice.XMC2GoBlinky.demo/src-gen-mt/XMC2GoDemoModel\MrPong.c **** 		{
 173:C:/data/workspaces/github/de.protos.demos/src/XMC2GoBlinky/etrice.XMC2GoBlinky.demo/src-gen-mt/XMC2GoDemoModel\MrPong.c **** 			etInt16 next__et = executeTransitionChain(self, chain__et, ifitem, generic_data__et);
 529              		.loc 1 173 0
 530 008e 3C1C     		mov	r4, r7
 531 0090 1234     		add	r4, r4, #18
 532 0092 F868     		ldr	r0, [r7, #12]
 533 0094 F969     		ldr	r1, [r7, #28]
 534 0096 BA68     		ldr	r2, [r7, #8]
 535 0098 3B68     		ldr	r3, [r7]
 536 009a FFF7FEFF 		bl	executeTransitionChain
 537 009e 031C     		mov	r3, r0
 538 00a0 2380     		strh	r3, [r4]
 174:C:/data/workspaces/github/de.protos.demos/src/XMC2GoBlinky/etrice.XMC2GoBlinky.demo/src-gen-mt/XMC2GoDemoModel\MrPong.c **** 			next__et = enterHistory(self, next__et);
 539              		.loc 1 174 0
 540 00a2 3C1C     		mov	r4, r7
 541 00a4 1234     		add	r4, r4, #18
 542 00a6 FA68     		ldr	r2, [r7, #12]
 543 00a8 3B1C     		mov	r3, r7
 544 00aa 1233     		add	r3, r3, #18
 545 00ac 0021     		mov	r1, #0
 546 00ae 5B5E     		ldrsh	r3, [r3, r1]
 547 00b0 101C     		mov	r0, r2
 548 00b2 191C     		mov	r1, r3
 549 00b4 FFF7FEFF 		bl	enterHistory
 550 00b8 031C     		mov	r3, r0
 551 00ba 2380     		strh	r3, [r4]
 175:C:/data/workspaces/github/de.protos.demos/src/XMC2GoBlinky/etrice.XMC2GoBlinky.demo/src-gen-mt/XMC2GoDemoModel\MrPong.c **** 			setState(self, next__et);
 552              		.loc 1 175 0
 553 00bc FA68     		ldr	r2, [r7, #12]
 554 00be 3B1C     		mov	r3, r7
 555 00c0 1233     		add	r3, r3, #18
 556 00c2 0020     		mov	r0, #0
 557 00c4 1B5E     		ldrsh	r3, [r3, r0]
 558 00c6 101C     		mov	r0, r2
 559 00c8 191C     		mov	r1, r3
 560 00ca FFF7FEFF 		bl	setState
 561              	.L27:
 562              	.LBE3:
 176:C:/data/workspaces/github/de.protos.demos/src/XMC2GoBlinky/etrice.XMC2GoBlinky.demo/src-gen-mt/XMC2GoDemoModel\MrPong.c **** 		}
 177:C:/data/workspaces/github/de.protos.demos/src/XMC2GoBlinky/etrice.XMC2GoBlinky.demo/src-gen-mt/XMC2GoDemoModel\MrPong.c **** 	}
 178:C:/data/workspaces/github/de.protos.demos/src/XMC2GoBlinky/etrice.XMC2GoBlinky.demo/src-gen-mt/XMC2GoDemoModel\MrPong.c **** }
 563              		.loc 1 178 0
 564 00ce BD46     		mov	sp, r7
 565 00d0 09B0     		add	sp, sp, #36
 566              		@ sp needed for prologue
 567 00d2 90BD     		pop	{r4, r7, pc}
 568              		.cfi_endproc
 569              	.LFE7:
 571              		.section	.text.MrPong_init,"ax",%progbits
 572              		.align	2
 573              		.global	MrPong_init
 574              		.code	16
 575              		.thumb_func
 577              	MrPong_init:
 578              	.LFB8:
 179:C:/data/workspaces/github/de.protos.demos/src/XMC2GoBlinky/etrice.XMC2GoBlinky.demo/src-gen-mt/XMC2GoDemoModel\MrPong.c **** 
 180:C:/data/workspaces/github/de.protos.demos/src/XMC2GoBlinky/etrice.XMC2GoBlinky.demo/src-gen-mt/XMC2GoDemoModel\MrPong.c **** void MrPong_init(MrPong* self){
 579              		.loc 1 180 0
 580              		.cfi_startproc
 581 0000 80B5     		push	{r7, lr}
 582              	.LCFI24:
 583              		.cfi_def_cfa_offset 8
 584              		.cfi_offset 7, -8
 585              		.cfi_offset 14, -4
 586 0002 84B0     		sub	sp, sp, #16
 587              	.LCFI25:
 588              		.cfi_def_cfa_offset 24
 589 0004 00AF     		add	r7, sp, #0
 590              	.LCFI26:
 591              		.cfi_def_cfa_register 7
 592 0006 7860     		str	r0, [r7, #4]
 181:C:/data/workspaces/github/de.protos.demos/src/XMC2GoBlinky/etrice.XMC2GoBlinky.demo/src-gen-mt/XMC2GoDemoModel\MrPong.c **** 	ET_MSC_LOGGER_SYNC_ENTRY("MrPong", "init")
 182:C:/data/workspaces/github/de.protos.demos/src/XMC2GoBlinky/etrice.XMC2GoBlinky.demo/src-gen-mt/XMC2GoDemoModel\MrPong.c **** 	self->state = STATE_TOP;
 593              		.loc 1 182 0
 594 0008 7B68     		ldr	r3, [r7, #4]
 595 000a 0122     		mov	r2, #1
 596 000c 9A80     		strh	r2, [r3, #4]
 597              	.LBB4:
 183:C:/data/workspaces/github/de.protos.demos/src/XMC2GoBlinky/etrice.XMC2GoBlinky.demo/src-gen-mt/XMC2GoDemoModel\MrPong.c **** 	{
 184:C:/data/workspaces/github/de.protos.demos/src/XMC2GoBlinky/etrice.XMC2GoBlinky.demo/src-gen-mt/XMC2GoDemoModel\MrPong.c **** 		int i;
 185:C:/data/workspaces/github/de.protos.demos/src/XMC2GoBlinky/etrice.XMC2GoBlinky.demo/src-gen-mt/XMC2GoDemoModel\MrPong.c **** 		for (i=0; i<MRPONG_HISTORY_SIZE; ++i)
 598              		.loc 1 185 0
 599 000e 0023     		mov	r3, #0
 600 0010 FB60     		str	r3, [r7, #12]
 601 0012 08E0     		b	.L38
 602              	.L39:
 186:C:/data/workspaces/github/de.protos.demos/src/XMC2GoBlinky/etrice.XMC2GoBlinky.demo/src-gen-mt/XMC2GoDemoModel\MrPong.c **** 			self->history[i] = NO_STATE;
 603              		.loc 1 186 0 discriminator 2
 604 0014 7A68     		ldr	r2, [r7, #4]
 605 0016 FB68     		ldr	r3, [r7, #12]
 606 0018 5B00     		lsl	r3, r3, #1
 607 001a D318     		add	r3, r2, r3
 608 001c 0022     		mov	r2, #0
 609 001e DA80     		strh	r2, [r3, #6]
 185:C:/data/workspaces/github/de.protos.demos/src/XMC2GoBlinky/etrice.XMC2GoBlinky.demo/src-gen-mt/XMC2GoDemoModel\MrPong.c **** 		for (i=0; i<MRPONG_HISTORY_SIZE; ++i)
 610              		.loc 1 185 0 discriminator 2
 611 0020 FB68     		ldr	r3, [r7, #12]
 612 0022 0133     		add	r3, r3, #1
 613 0024 FB60     		str	r3, [r7, #12]
 614              	.L38:
 185:C:/data/workspaces/github/de.protos.demos/src/XMC2GoBlinky/etrice.XMC2GoBlinky.demo/src-gen-mt/XMC2GoDemoModel\MrPong.c **** 		for (i=0; i<MRPONG_HISTORY_SIZE; ++i)
 615              		.loc 1 185 0 is_stmt 0 discriminator 1
 616 0026 FB68     		ldr	r3, [r7, #12]
 617 0028 012B     		cmp	r3, #1
 618 002a F3DD     		ble	.L39
 619              	.LBE4:
 187:C:/data/workspaces/github/de.protos.demos/src/XMC2GoBlinky/etrice.XMC2GoBlinky.demo/src-gen-mt/XMC2GoDemoModel\MrPong.c **** 	}
 188:C:/data/workspaces/github/de.protos.demos/src/XMC2GoBlinky/etrice.XMC2GoBlinky.demo/src-gen-mt/XMC2GoDemoModel\MrPong.c **** 	MrPong_executeInitTransition(self);
 620              		.loc 1 188 0 is_stmt 1
 621 002c 7B68     		ldr	r3, [r7, #4]
 622 002e 181C     		mov	r0, r3
 623 0030 FFF7FEFF 		bl	MrPong_executeInitTransition
 189:C:/data/workspaces/github/de.protos.demos/src/XMC2GoBlinky/etrice.XMC2GoBlinky.demo/src-gen-mt/XMC2GoDemoModel\MrPong.c **** 	ET_MSC_LOGGER_SYNC_EXIT
 190:C:/data/workspaces/github/de.protos.demos/src/XMC2GoBlinky/etrice.XMC2GoBlinky.demo/src-gen-mt/XMC2GoDemoModel\MrPong.c **** }
 624              		.loc 1 190 0
 625 0034 BD46     		mov	sp, r7
 626 0036 04B0     		add	sp, sp, #16
 627              		@ sp needed for prologue
 628 0038 80BD     		pop	{r7, pc}
 629              		.cfi_endproc
 630              	.LFE8:
 632 003a C046     		.section	.text.MrPong_receiveMessage,"ax",%progbits
 633              		.align	2
 634              		.global	MrPong_receiveMessage
 635              		.code	16
 636              		.thumb_func
 638              	MrPong_receiveMessage:
 639              	.LFB9:
 191:C:/data/workspaces/github/de.protos.demos/src/XMC2GoBlinky/etrice.XMC2GoBlinky.demo/src-gen-mt/XMC2GoDemoModel\MrPong.c **** 
 192:C:/data/workspaces/github/de.protos.demos/src/XMC2GoBlinky/etrice.XMC2GoBlinky.demo/src-gen-mt/XMC2GoDemoModel\MrPong.c **** 
 193:C:/data/workspaces/github/de.protos.demos/src/XMC2GoBlinky/etrice.XMC2GoBlinky.demo/src-gen-mt/XMC2GoDemoModel\MrPong.c **** void MrPong_receiveMessage(void* self, const void* ifitem, const etMessage* msg){
 640              		.loc 1 193 0
 641              		.cfi_startproc
 642 0000 80B5     		push	{r7, lr}
 643              	.LCFI27:
 644              		.cfi_def_cfa_offset 8
 645              		.cfi_offset 7, -8
 646              		.cfi_offset 14, -4
 647 0002 84B0     		sub	sp, sp, #16
 648              	.LCFI28:
 649              		.cfi_def_cfa_offset 24
 650 0004 00AF     		add	r7, sp, #0
 651              	.LCFI29:
 652              		.cfi_def_cfa_register 7
 653 0006 F860     		str	r0, [r7, #12]
 654 0008 B960     		str	r1, [r7, #8]
 655 000a 7A60     		str	r2, [r7, #4]
 194:C:/data/workspaces/github/de.protos.demos/src/XMC2GoBlinky/etrice.XMC2GoBlinky.demo/src-gen-mt/XMC2GoDemoModel\MrPong.c **** 	ET_MSC_LOGGER_SYNC_ENTRY("MrPong", "_receiveMessage")
 195:C:/data/workspaces/github/de.protos.demos/src/XMC2GoBlinky/etrice.XMC2GoBlinky.demo/src-gen-mt/XMC2GoDemoModel\MrPong.c **** 	
 196:C:/data/workspaces/github/de.protos.demos/src/XMC2GoBlinky/etrice.XMC2GoBlinky.demo/src-gen-mt/XMC2GoDemoModel\MrPong.c **** 	MrPong_receiveEvent(self, (etPort*)ifitem, msg->evtID, (void*)(((char*)msg)+MEM_CEIL(sizeof(etMess
 656              		.loc 1 196 0
 657 000c 7B68     		ldr	r3, [r7, #4]
 658 000e DB88     		ldrh	r3, [r3, #6]
 659 0010 1AB2     		sxth	r2, r3
 660 0012 7B68     		ldr	r3, [r7, #4]
 661 0014 0833     		add	r3, r3, #8
 662 0016 F868     		ldr	r0, [r7, #12]
 663 0018 B968     		ldr	r1, [r7, #8]
 664 001a FFF7FEFF 		bl	MrPong_receiveEvent
 197:C:/data/workspaces/github/de.protos.demos/src/XMC2GoBlinky/etrice.XMC2GoBlinky.demo/src-gen-mt/XMC2GoDemoModel\MrPong.c **** 	
 198:C:/data/workspaces/github/de.protos.demos/src/XMC2GoBlinky/etrice.XMC2GoBlinky.demo/src-gen-mt/XMC2GoDemoModel\MrPong.c **** 	ET_MSC_LOGGER_SYNC_EXIT
 199:C:/data/workspaces/github/de.protos.demos/src/XMC2GoBlinky/etrice.XMC2GoBlinky.demo/src-gen-mt/XMC2GoDemoModel\MrPong.c **** }
 665              		.loc 1 199 0
 666 001e BD46     		mov	sp, r7
 667 0020 04B0     		add	sp, sp, #16
 668              		@ sp needed for prologue
 669 0022 80BD     		pop	{r7, pc}
 670              		.cfi_endproc
 671              	.LFE9:
 673              		.text
 674              	.Letext0:
 675              		.file 2 "C:\\data\\workspaces\\github\\de.protos.demos\\src\\XMC2GoBlinky\\etrice.runtime.c.FreeRT
 676              		.file 3 "C:\\data\\workspaces\\github\\de.protos.demos\\src\\XMC2GoBlinky\\etrice.runtime.c.FreeRT
 677              		.file 4 "C:\\data\\workspaces\\github\\de.protos.demos\\src\\XMC2GoBlinky\\etrice.runtime.c.FreeRT
 678              		.file 5 "C:\\data\\workspaces\\github\\de.protos.demos\\src\\XMC2GoBlinky\\etrice.runtime.c.FreeRT
 679              		.file 6 "C:\\data\\workspaces\\github\\de.protos.demos\\src\\XMC2GoBlinky\\etrice.runtime.c.FreeRT
 680              		.file 7 "C:\\data\\workspaces\\github\\de.protos.demos\\src\\XMC2GoBlinky\\etrice.runtime.c.FreeRT
 681              		.file 8 "C:\\data\\workspaces\\github\\de.protos.demos\\src\\XMC2GoBlinky\\etrice.runtime.c.FreeRT
 682              		.file 9 "C:\\data\\workspaces\\github\\de.protos.demos\\src\\XMC2GoBlinky\\etrice.runtime.c.FreeRT
 683              		.file 10 "C:\\data\\workspaces\\github\\de.protos.demos\\src\\XMC2GoBlinky\\etrice.runtime.c.FreeR
 684              		.file 11 "C:\\data\\workspaces\\github\\de.protos.demos\\src\\XMC2GoBlinky\\etrice.runtime.c.FreeR
 685              		.file 12 "C:\\data\\workspaces\\github\\de.protos.demos\\src\\XMC2GoBlinky\\etrice.runtime.c.FreeR
 686              		.file 13 "C:\\data\\workspaces\\github\\de.protos.demos\\src\\XMC2GoBlinky\\etrice.runtime.c.FreeR
 687              		.file 14 "C:\\data\\workspaces\\github\\de.protos.demos\\src\\XMC2GoBlinky\\etrice.runtime.c.FreeR
 688              		.file 15 "C:\\data\\workspaces\\github\\de.protos.demos\\src\\XMC2GoBlinky\\etrice.runtime.c.FreeR
 689              		.file 16 "C:\\data\\workspaces\\github\\de.protos.demos\\src\\XMC2GoBlinky\\etrice.runtime.c.FreeR
 690              		.file 17 "C:\\data\\workspaces\\github\\de.protos.demos\\src\\XMC2GoBlinky\\etrice.XMC2GoBlinky.de
 691              		.file 18 "C:\\data\\workspaces\\github\\de.protos.demos\\src\\XMC2GoBlinky\\etrice.XMC2GoBlinky.de
 692              		.file 19 "C:/data/workspaces/github/de.protos.demos/src/XMC2GoBlinky/etrice.XMC2GoBlinky.demo/src-