   1              		.cpu cortex-m0
   2              		.fpu softvfp
   3              		.eabi_attribute 20, 1
   4              		.eabi_attribute 21, 1
   5              		.eabi_attribute 23, 3
   6              		.eabi_attribute 24, 1
   7              		.eabi_attribute 25, 1
   8              		.eabi_attribute 26, 1
   9              		.eabi_attribute 30, 6
  10              		.eabi_attribute 34, 0
  11              		.eabi_attribute 18, 4
  12              		.code	16
  13              		.file	"PingPongTop.c"
  14              		.text
  15              	.Ltext0:
  16              		.cfi_sections	.debug_frame
  17              		.section	.text.PingPongTop_init,"ax",%progbits
  18              		.align	2
  19              		.global	PingPongTop_init
  20              		.code	16
  21              		.thumb_func
  23              	PingPongTop_init:
  24              	.LFB33:
  25              		.file 1 "C:/data/workspaces/github/de.protos.demos/src/XMC2GoBlinky/etrice.XMC2GoBlinky.demo/src-g
   1:C:/data/workspaces/github/de.protos.demos/src/XMC2GoBlinky/etrice.XMC2GoBlinky.demo/src-gen-mt/XMC2GoDemoModel\PingPongTop.c **** /**
   2:C:/data/workspaces/github/de.protos.demos/src/XMC2GoBlinky/etrice.XMC2GoBlinky.demo/src-gen-mt/XMC2GoDemoModel\PingPongTop.c ****  * @author generated by eTrice
   3:C:/data/workspaces/github/de.protos.demos/src/XMC2GoBlinky/etrice.XMC2GoBlinky.demo/src-gen-mt/XMC2GoDemoModel\PingPongTop.c ****  *
   4:C:/data/workspaces/github/de.protos.demos/src/XMC2GoBlinky/etrice.XMC2GoBlinky.demo/src-gen-mt/XMC2GoDemoModel\PingPongTop.c ****  * Source File of ActorClass PingPongTop
   5:C:/data/workspaces/github/de.protos.demos/src/XMC2GoBlinky/etrice.XMC2GoBlinky.demo/src-gen-mt/XMC2GoDemoModel\PingPongTop.c ****  * 
   6:C:/data/workspaces/github/de.protos.demos/src/XMC2GoBlinky/etrice.XMC2GoBlinky.demo/src-gen-mt/XMC2GoDemoModel\PingPongTop.c ****  */
   7:C:/data/workspaces/github/de.protos.demos/src/XMC2GoBlinky/etrice.XMC2GoBlinky.demo/src-gen-mt/XMC2GoDemoModel\PingPongTop.c **** 
   8:C:/data/workspaces/github/de.protos.demos/src/XMC2GoBlinky/etrice.XMC2GoBlinky.demo/src-gen-mt/XMC2GoDemoModel\PingPongTop.c **** #include "PingPongTop.h"
   9:C:/data/workspaces/github/de.protos.demos/src/XMC2GoBlinky/etrice.XMC2GoBlinky.demo/src-gen-mt/XMC2GoDemoModel\PingPongTop.c **** 
  10:C:/data/workspaces/github/de.protos.demos/src/XMC2GoBlinky/etrice.XMC2GoBlinky.demo/src-gen-mt/XMC2GoDemoModel\PingPongTop.c **** #include "modelbase/etActor.h"
  11:C:/data/workspaces/github/de.protos.demos/src/XMC2GoBlinky/etrice.XMC2GoBlinky.demo/src-gen-mt/XMC2GoDemoModel\PingPongTop.c **** #include "debugging/etLogger.h"
  12:C:/data/workspaces/github/de.protos.demos/src/XMC2GoBlinky/etrice.XMC2GoBlinky.demo/src-gen-mt/XMC2GoDemoModel\PingPongTop.c **** #include "debugging/etMSCLogger.h"
  13:C:/data/workspaces/github/de.protos.demos/src/XMC2GoBlinky/etrice.XMC2GoBlinky.demo/src-gen-mt/XMC2GoDemoModel\PingPongTop.c **** #include "etUnit/etUnit.h"
  14:C:/data/workspaces/github/de.protos.demos/src/XMC2GoBlinky/etrice.XMC2GoBlinky.demo/src-gen-mt/XMC2GoDemoModel\PingPongTop.c **** #include "base/etMemory.h"
  15:C:/data/workspaces/github/de.protos.demos/src/XMC2GoBlinky/etrice.XMC2GoBlinky.demo/src-gen-mt/XMC2GoDemoModel\PingPongTop.c **** 
  16:C:/data/workspaces/github/de.protos.demos/src/XMC2GoBlinky/etrice.XMC2GoBlinky.demo/src-gen-mt/XMC2GoDemoModel\PingPongTop.c **** #include "DaveInterface/PIO004.h"
  17:C:/data/workspaces/github/de.protos.demos/src/XMC2GoBlinky/etrice.XMC2GoBlinky.demo/src-gen-mt/XMC2GoDemoModel\PingPongTop.c **** #include "room/basic/service/timing/PTimer.h"
  18:C:/data/workspaces/github/de.protos.demos/src/XMC2GoBlinky/etrice.XMC2GoBlinky.demo/src-gen-mt/XMC2GoDemoModel\PingPongTop.c **** #include "DaveInterface/PUART001.h"
  19:C:/data/workspaces/github/de.protos.demos/src/XMC2GoBlinky/etrice.XMC2GoBlinky.demo/src-gen-mt/XMC2GoDemoModel\PingPongTop.c **** #include "DaveInterface/PWMSP001.h"
  20:C:/data/workspaces/github/de.protos.demos/src/XMC2GoBlinky/etrice.XMC2GoBlinky.demo/src-gen-mt/XMC2GoDemoModel\PingPongTop.c **** #include "XMC2GoDemoModel/PingPongProtocol.h"
  21:C:/data/workspaces/github/de.protos.demos/src/XMC2GoBlinky/etrice.XMC2GoBlinky.demo/src-gen-mt/XMC2GoDemoModel\PingPongTop.c **** 
  22:C:/data/workspaces/github/de.protos.demos/src/XMC2GoBlinky/etrice.XMC2GoBlinky.demo/src-gen-mt/XMC2GoDemoModel\PingPongTop.c **** #include "PingPongTop_Utils.h"
  23:C:/data/workspaces/github/de.protos.demos/src/XMC2GoBlinky/etrice.XMC2GoBlinky.demo/src-gen-mt/XMC2GoDemoModel\PingPongTop.c **** 
  24:C:/data/workspaces/github/de.protos.demos/src/XMC2GoBlinky/etrice.XMC2GoBlinky.demo/src-gen-mt/XMC2GoDemoModel\PingPongTop.c **** 
  25:C:/data/workspaces/github/de.protos.demos/src/XMC2GoBlinky/etrice.XMC2GoBlinky.demo/src-gen-mt/XMC2GoDemoModel\PingPongTop.c **** /* interface item IDs */
  26:C:/data/workspaces/github/de.protos.demos/src/XMC2GoBlinky/etrice.XMC2GoBlinky.demo/src-gen-mt/XMC2GoDemoModel\PingPongTop.c **** /* empty enum not generated */
  27:C:/data/workspaces/github/de.protos.demos/src/XMC2GoBlinky/etrice.XMC2GoBlinky.demo/src-gen-mt/XMC2GoDemoModel\PingPongTop.c **** 
  28:C:/data/workspaces/github/de.protos.demos/src/XMC2GoBlinky/etrice.XMC2GoBlinky.demo/src-gen-mt/XMC2GoDemoModel\PingPongTop.c **** 
  29:C:/data/workspaces/github/de.protos.demos/src/XMC2GoBlinky/etrice.XMC2GoBlinky.demo/src-gen-mt/XMC2GoDemoModel\PingPongTop.c **** void PingPongTop_init(PingPongTop* self){
  26              		.loc 1 29 0
  27              		.cfi_startproc
  28 0000 80B5     		push	{r7, lr}
  29              	.LCFI0:
  30              		.cfi_def_cfa_offset 8
  31              		.cfi_offset 7, -8
  32              		.cfi_offset 14, -4
  33 0002 82B0     		sub	sp, sp, #8
  34              	.LCFI1:
  35              		.cfi_def_cfa_offset 16
  36 0004 00AF     		add	r7, sp, #0
  37              	.LCFI2:
  38              		.cfi_def_cfa_register 7
  39 0006 7860     		str	r0, [r7, #4]
  30:C:/data/workspaces/github/de.protos.demos/src/XMC2GoBlinky/etrice.XMC2GoBlinky.demo/src-gen-mt/XMC2GoDemoModel\PingPongTop.c **** 	ET_MSC_LOGGER_SYNC_ENTRY("PingPongTop", "init")
  31:C:/data/workspaces/github/de.protos.demos/src/XMC2GoBlinky/etrice.XMC2GoBlinky.demo/src-gen-mt/XMC2GoDemoModel\PingPongTop.c **** 	ET_MSC_LOGGER_SYNC_EXIT
  32:C:/data/workspaces/github/de.protos.demos/src/XMC2GoBlinky/etrice.XMC2GoBlinky.demo/src-gen-mt/XMC2GoDemoModel\PingPongTop.c **** }
  40              		.loc 1 32 0
  41 0008 BD46     		mov	sp, r7
  42 000a 02B0     		add	sp, sp, #8
  43              		@ sp needed for prologue
  44 000c 80BD     		pop	{r7, pc}
  45              		.cfi_endproc
  46              	.LFE33:
  48 000e C046     		.section	.text.PingPongTop_receiveMessage,"ax",%progbits
  49              		.align	2
  50              		.global	PingPongTop_receiveMessage
  51              		.code	16
  52              		.thumb_func
  54              	PingPongTop_receiveMessage:
  55              	.LFB34:
  33:C:/data/workspaces/github/de.protos.demos/src/XMC2GoBlinky/etrice.XMC2GoBlinky.demo/src-gen-mt/XMC2GoDemoModel\PingPongTop.c **** 
  34:C:/data/workspaces/github/de.protos.demos/src/XMC2GoBlinky/etrice.XMC2GoBlinky.demo/src-gen-mt/XMC2GoDemoModel\PingPongTop.c **** 
  35:C:/data/workspaces/github/de.protos.demos/src/XMC2GoBlinky/etrice.XMC2GoBlinky.demo/src-gen-mt/XMC2GoDemoModel\PingPongTop.c **** void PingPongTop_receiveMessage(void* self, const void* ifitem, const etMessage* msg){
  56              		.loc 1 35 0
  57              		.cfi_startproc
  58 0000 80B5     		push	{r7, lr}
  59              	.LCFI3:
  60              		.cfi_def_cfa_offset 8
  61              		.cfi_offset 7, -8
  62              		.cfi_offset 14, -4
  63 0002 84B0     		sub	sp, sp, #16
  64              	.LCFI4:
  65              		.cfi_def_cfa_offset 24
  66 0004 00AF     		add	r7, sp, #0
  67              	.LCFI5:
  68              		.cfi_def_cfa_register 7
  69 0006 F860     		str	r0, [r7, #12]
  70 0008 B960     		str	r1, [r7, #8]
  71 000a 7A60     		str	r2, [r7, #4]
  36:C:/data/workspaces/github/de.protos.demos/src/XMC2GoBlinky/etrice.XMC2GoBlinky.demo/src-gen-mt/XMC2GoDemoModel\PingPongTop.c **** 	ET_MSC_LOGGER_SYNC_ENTRY("PingPongTop", "_receiveMessage")
  37:C:/data/workspaces/github/de.protos.demos/src/XMC2GoBlinky/etrice.XMC2GoBlinky.demo/src-gen-mt/XMC2GoDemoModel\PingPongTop.c **** 	
  38:C:/data/workspaces/github/de.protos.demos/src/XMC2GoBlinky/etrice.XMC2GoBlinky.demo/src-gen-mt/XMC2GoDemoModel\PingPongTop.c **** 	ET_MSC_LOGGER_SYNC_EXIT
  39:C:/data/workspaces/github/de.protos.demos/src/XMC2GoBlinky/etrice.XMC2GoBlinky.demo/src-gen-mt/XMC2GoDemoModel\PingPongTop.c **** }
  72              		.loc 1 39 0
  73 000c BD46     		mov	sp, r7
  74 000e 04B0     		add	sp, sp, #16
  75              		@ sp needed for prologue
  76 0010 80BD     		pop	{r7, pc}
  77              		.cfi_endproc
  78              	.LFE34:
  80 0012 C046     		.text
  81              	.Letext0:
  82              		.file 2 "C:\\data\\workspaces\\github\\de.protos.demos\\src\\XMC2GoBlinky\\etrice.runtime.c.FreeRT
  83              		.file 3 "C:\\data\\workspaces\\github\\de.protos.demos\\src\\XMC2GoBlinky\\etrice.runtime.c.FreeRT
  84              		.file 4 "C:/data/workspaces/github/de.protos.demos/src/XMC2GoBlinky/etrice.XMC2GoBlinky.demo/src-g