   1              		.syntax unified
   2              		.cpu cortex-m4
   3              		.eabi_attribute 27, 3
   4              		.fpu fpv4-sp-d16
   5              		.eabi_attribute 20, 1
   6              		.eabi_attribute 21, 1
   7              		.eabi_attribute 23, 3
   8              		.eabi_attribute 24, 1
   9              		.eabi_attribute 25, 1
  10              		.eabi_attribute 26, 1
  11              		.eabi_attribute 30, 6
  12              		.eabi_attribute 34, 1
  13              		.eabi_attribute 18, 4
  14              		.thumb
  15              		.file	"nodeRef1_main.c"
  16              		.text
  17              	.Ltext0:
  18              		.cfi_sections	.debug_frame
  19              		.section	.rodata
  20              		.align	2
  21              	.LC0:
  22 0000 6E6F6465 		.ascii	"nodeRef1_main\000"
  22      52656631 
  22      5F6D6169 
  22      6E00
  23              		.data
  24              		.align	2
  27              	nodeRef1_mainInst:
  28 0000 00000000 		.word	.LC0
  29 0004 00000000 		.word	0
  30              		.bss
  31              		.align	2
  32              	msgBuffer_PhysicalThread1:
  33 0000 00000000 		.space	1280
  33      00000000 
  33      00000000 
  33      00000000 
  33      00000000 
  34              		.align	2
  35              	msgService_PhysicalThread1:
  36 0500 00000000 		.space	108
  36      00000000 
  36      00000000 
  36      00000000 
  36      00000000 
  37              		.align	2
  38              	_HexagonCANDemo_main_appl:
  39 056c 00000000 		.space	4
  40              		.data
  41              		.align	2
  44              	_HexagonCANDemo_main_appl_mrPing:
  45 0008 10000000 		.word	_HexagonCANDemo_main_appl_mrPing_const
  46 000c 00000000 		.space	8
  46      00000000 
  47              		.align	2
  50              	_HexagonCANDemo_main_appl_mrPong:
  51 0014 40000000 		.word	_HexagonCANDemo_main_appl_mrPong_const
  52 0018 00000000 		.space	8
  52      00000000 
  53              		.align	2
  56              	_HexagonCANDemo_main_timingService:
  57 0020 6C000000 		.word	_HexagonCANDemo_main_timingService_const
  58 0024 00000000 		.space	8
  58      00000000 
  59              		.align	2
  62              	_HexagonCANDemo_main_canService:
  63 002c 94000000 		.word	_HexagonCANDemo_main_canService_const
  64 0030 FFFFFFFF 		.word	-1
  65 0034 FFFFFFFF 		.word	-1
  66 0038 FFFFFFFF 		.word	-1
  67 003c FFFFFFFF 		.word	-1
  68 0040 FFFFFFFF 		.word	-1
  69 0044 FFFFFFFF 		.word	-1
  70 0048 FFFFFFFF 		.word	-1
  71 004c FFFFFFFF 		.word	-1
  72 0050 FFFFFFFF 		.word	-1
  73 0054 FFFFFFFF 		.word	-1
  74 0058 FFFFFFFF 		.word	-1
  75 005c FFFFFFFF 		.word	-1
  76 0060 FFFFFFFF 		.word	-1
  77 0064 FFFFFFFF 		.word	-1
  78 0068 FFFFFFFF 		.word	-1
  79 006c FFFFFFFF 		.word	-1
  80 0070 FFFFFFFF 		.word	-1
  81 0074 FFFFFFFF 		.word	-1
  82 0078 FFFFFFFF 		.word	-1
  83 007c FFFFFFFF 		.word	-1
  84 0080 32000000 		.word	50
  85 0084 00000000 		.space	8
  85      00000000 
  86              		.bss
  87              		.align	2
  88              	_HexagonCANDemo_main_appl_mrPing_timer_var:
  89 0570 00       		.space	1
  90              		.data
  91              		.align	2
  94              	_HexagonCANDemo_main_appl_mrPing_canTx_var:
  95 008c FFFFFFFF 		.word	-1
  96              		.align	2
  99              	_HexagonCANDemo_main_appl_mrPing_canRx_var:
 100 0090 FFFFFFFF 		.word	-1
 101              		.bss
 102 0571 000000   		.align	2
 103              	_HexagonCANDemo_main_canService_timer_var:
 104 0574 00       		.space	1
 105 0575 000000   		.section	.rodata
 106 000e 0000     		.align	2
 109              	_HexagonCANDemo_main_appl_mrPing_const:
 110 0010 00000000 		.word	0
 111 0014 00050000 		.word	msgService_PhysicalThread1
 112 0018 28       		.byte	40
 113 0019 01       		.byte	1
 114 001a 0000     		.space	2
 115 001c 70050000 		.word	_HexagonCANDemo_main_appl_mrPing_timer_var
 116 0020 00050000 		.word	msgService_PhysicalThread1
 117 0024 2A       		.byte	42
 118 0025 02       		.byte	2
 119 0026 0000     		.space	2
 120 0028 8C000000 		.word	_HexagonCANDemo_main_appl_mrPing_canTx_var
 121 002c 00050000 		.word	msgService_PhysicalThread1
 122 0030 2E       		.byte	46
 123 0031 03       		.byte	3
 124 0032 0000     		.space	2
 125 0034 90000000 		.word	_HexagonCANDemo_main_appl_mrPing_canRx_var
 126 0038 00050000 		.word	msgService_PhysicalThread1
 127 003c 2F       		.byte	47
 128 003d 04       		.byte	4
 129 003e 0000     		.space	2
 130              		.align	2
 133              	_HexagonCANDemo_main_appl_mrPong_const:
 134 0040 00000000 		.word	0
 135 0044 00050000 		.word	msgService_PhysicalThread1
 136 0048 23       		.byte	35
 137 0049 01       		.byte	1
 138 004a 0000     		.space	2
 139              		.align	2
 142              	_HexagonCANDemo_main_timingService_repl_sub_ports:
 143 004c 00000000 		.word	0
 144 0050 00050000 		.word	msgService_PhysicalThread1
 145 0054 24       		.byte	36
 146 0055 01       		.byte	1
 147 0056 0000     		.space	2
 148 0058 00       		.byte	0
 149 0059 000000   		.space	3
 150 005c 00000000 		.word	0
 151 0060 00050000 		.word	msgService_PhysicalThread1
 152 0064 2D       		.byte	45
 153 0065 01       		.byte	1
 154 0066 0000     		.space	2
 155 0068 01       		.byte	1
 156 0069 000000   		.space	3
 157              		.align	2
 160              	_HexagonCANDemo_main_timingService_const:
 161 006c 0200     		.short	2
 162 006e 0000     		.space	2
 163 0070 4C000000 		.word	_HexagonCANDemo_main_timingService_repl_sub_ports
 164              		.align	2
 167              	_HexagonCANDemo_main_canService_repl_sub_ports:
 168 0074 00000000 		.word	0
 169 0078 00050000 		.word	msgService_PhysicalThread1
 170 007c 25       		.byte	37
 171 007d 02       		.byte	2
 172 007e 0000     		.space	2
 173 0080 00       		.byte	0
 174 0081 000000   		.space	3
 175 0084 00000000 		.word	0
 176 0088 00050000 		.word	msgService_PhysicalThread1
 177 008c 26       		.byte	38
 178 008d 03       		.byte	3
 179 008e 0000     		.space	2
 180 0090 00       		.byte	0
 181 0091 000000   		.space	3
 182              		.align	2
 185              	_HexagonCANDemo_main_canService_const:
 186 0094 74050000 		.word	_HexagonCANDemo_main_canService_timer_var
 187 0098 00050000 		.word	msgService_PhysicalThread1
 188 009c 2B       		.byte	43
 189 009d 01       		.byte	1
 190 009e 0000     		.space	2
 191 00a0 0100     		.short	1
 192 00a2 0000     		.space	2
 193 00a4 74000000 		.word	_HexagonCANDemo_main_canService_repl_sub_ports
 194 00a8 0100     		.short	1
 195 00aa 0000     		.space	2
 196 00ac 84000000 		.word	_HexagonCANDemo_main_canService_repl_sub_ports+16
 197              		.section	.text.MsgDispatcher_PhysicalThread1_poll,"ax",%progbits
 198              		.align	2
 199              		.thumb
 200              		.thumb_func
 202              	MsgDispatcher_PhysicalThread1_poll:
 203              	.LFB0:
 204              		.file 1 "C:/data/workspaces/github/de.protos.demos/src/HexagonCANDemo/etrice.HexagonCANDemo.demo/s
   1:C:/data/workspaces/github/de.protos.demos/src/HexagonCANDemo/etrice.HexagonCANDemo.demo/src-gen-st/HexagonCANDemo\nodeRef1_main_Disp.h **** /**
   2:C:/data/workspaces/github/de.protos.demos/src/HexagonCANDemo/etrice.HexagonCANDemo.demo/src-gen-st/HexagonCANDemo\nodeRef1_main_Disp.h ****  * @author generated by eTrice
   3:C:/data/workspaces/github/de.protos.demos/src/HexagonCANDemo/etrice.HexagonCANDemo.demo/src-gen-st/HexagonCANDemo\nodeRef1_main_Disp.h ****  *
   4:C:/data/workspaces/github/de.protos.demos/src/HexagonCANDemo/etrice.HexagonCANDemo.demo/src-gen-st/HexagonCANDemo\nodeRef1_main_Disp.h ****  * Dispatcher File of Node nodeRef1 with SubSystem main
   5:C:/data/workspaces/github/de.protos.demos/src/HexagonCANDemo/etrice.HexagonCANDemo.demo/src-gen-st/HexagonCANDemo\nodeRef1_main_Disp.h ****  * contains a generated message dispatcher (receiveMessage) for each MessageService (Thread)
   6:C:/data/workspaces/github/de.protos.demos/src/HexagonCANDemo/etrice.HexagonCANDemo.demo/src-gen-st/HexagonCANDemo\nodeRef1_main_Disp.h ****  */
   7:C:/data/workspaces/github/de.protos.demos/src/HexagonCANDemo/etrice.HexagonCANDemo.demo/src-gen-st/HexagonCANDemo\nodeRef1_main_Disp.h **** 
   8:C:/data/workspaces/github/de.protos.demos/src/HexagonCANDemo/etrice.HexagonCANDemo.demo/src-gen-st/HexagonCANDemo\nodeRef1_main_Disp.h **** #include "messaging/etMessageReceiver.h"
   9:C:/data/workspaces/github/de.protos.demos/src/HexagonCANDemo/etrice.HexagonCANDemo.demo/src-gen-st/HexagonCANDemo\nodeRef1_main_Disp.h **** #include "debugging/etLogger.h"
  10:C:/data/workspaces/github/de.protos.demos/src/HexagonCANDemo/etrice.HexagonCANDemo.demo/src-gen-st/HexagonCANDemo\nodeRef1_main_Disp.h **** #include "debugging/etMSCLogger.h"
  11:C:/data/workspaces/github/de.protos.demos/src/HexagonCANDemo/etrice.HexagonCANDemo.demo/src-gen-st/HexagonCANDemo\nodeRef1_main_Disp.h **** 
  12:C:/data/workspaces/github/de.protos.demos/src/HexagonCANDemo/etrice.HexagonCANDemo.demo/src-gen-st/HexagonCANDemo\nodeRef1_main_Disp.h **** 
  13:C:/data/workspaces/github/de.protos.demos/src/HexagonCANDemo/etrice.HexagonCANDemo.demo/src-gen-st/HexagonCANDemo\nodeRef1_main_Disp.h **** /**
  14:C:/data/workspaces/github/de.protos.demos/src/HexagonCANDemo/etrice.HexagonCANDemo.demo/src-gen-st/HexagonCANDemo\nodeRef1_main_Disp.h ****  * generated execute function for all cyclic execute calls for the async or datadriven actor instan
  15:C:/data/workspaces/github/de.protos.demos/src/HexagonCANDemo/etrice.HexagonCANDemo.demo/src-gen-st/HexagonCANDemo\nodeRef1_main_Disp.h ****  */
  16:C:/data/workspaces/github/de.protos.demos/src/HexagonCANDemo/etrice.HexagonCANDemo.demo/src-gen-st/HexagonCANDemo\nodeRef1_main_Disp.h **** static void MsgDispatcher_PhysicalThread1_poll(void){
 205              		.loc 1 16 0
 206              		.cfi_startproc
 207              		@ args = 0, pretend = 0, frame = 0
 208              		@ frame_needed = 1, uses_anonymous_args = 0
 209 0000 80B5     		push	{r7, lr}
 210              	.LCFI0:
 211              		.cfi_def_cfa_offset 8
 212              		.cfi_offset 7, -8
 213              		.cfi_offset 14, -4
 214 0002 00AF     		add	r7, sp, #0
 215              	.LCFI1:
 216              		.cfi_def_cfa_register 7
  17:C:/data/workspaces/github/de.protos.demos/src/HexagonCANDemo/etrice.HexagonCANDemo.demo/src-gen-st/HexagonCANDemo\nodeRef1_main_Disp.h **** 	ET_MSC_LOGGER_SYNC_ENTRY("MsgDispatcher_PhysicalThread1", "execute")
  18:C:/data/workspaces/github/de.protos.demos/src/HexagonCANDemo/etrice.HexagonCANDemo.demo/src-gen-st/HexagonCANDemo\nodeRef1_main_Disp.h **** 	ATimingService_execute((void*)&_HexagonCANDemo_main_timingService);
 217              		.loc 1 18 0
 218 0004 40F20000 		movw	r0, #:lower16:_HexagonCANDemo_main_timingService
 219 0008 C0F20000 		movt	r0, #:upper16:_HexagonCANDemo_main_timingService
 220 000c FFF7FEFF 		bl	ATimingService_execute
  19:C:/data/workspaces/github/de.protos.demos/src/HexagonCANDemo/etrice.HexagonCANDemo.demo/src-gen-st/HexagonCANDemo\nodeRef1_main_Disp.h **** 	ET_MSC_LOGGER_SYNC_EXIT
  20:C:/data/workspaces/github/de.protos.demos/src/HexagonCANDemo/etrice.HexagonCANDemo.demo/src-gen-st/HexagonCANDemo\nodeRef1_main_Disp.h **** }
 221              		.loc 1 20 0
 222 0010 80BD     		pop	{r7, pc}
 223              		.cfi_endproc
 224              	.LFE0:
 226 0012 00BF     		.section	.rodata
 227              		.align	2
 228              	.LC1:
 229 00b0 4D657373 		.ascii	"MessageService_PhysicalThread1_receiveMessage: addr"
 229      61676553 
 229      65727669 
 229      63655F50 
 229      68797369 
 230 00e3 65737320 		.ascii	"ess %d does not exist \000"
 230      25642064 
 230      6F657320 
 230      6E6F7420 
 230      65786973 
 231              		.section	.text.MsgDispatcher_PhysicalThread1_receiveMessage,"ax",%progbits
 232              		.align	2
 233              		.thumb
 234              		.thumb_func
 236              	MsgDispatcher_PhysicalThread1_receiveMessage:
 237              	.LFB1:
  21:C:/data/workspaces/github/de.protos.demos/src/HexagonCANDemo/etrice.HexagonCANDemo.demo/src-gen-st/HexagonCANDemo\nodeRef1_main_Disp.h **** 
  22:C:/data/workspaces/github/de.protos.demos/src/HexagonCANDemo/etrice.HexagonCANDemo.demo/src-gen-st/HexagonCANDemo\nodeRef1_main_Disp.h **** /**
  23:C:/data/workspaces/github/de.protos.demos/src/HexagonCANDemo/etrice.HexagonCANDemo.demo/src-gen-st/HexagonCANDemo\nodeRef1_main_Disp.h ****  * generated dispatch function for all messages for the thread "PhysicalThread1"
  24:C:/data/workspaces/github/de.protos.demos/src/HexagonCANDemo/etrice.HexagonCANDemo.demo/src-gen-st/HexagonCANDemo\nodeRef1_main_Disp.h ****  */
  25:C:/data/workspaces/github/de.protos.demos/src/HexagonCANDemo/etrice.HexagonCANDemo.demo/src-gen-st/HexagonCANDemo\nodeRef1_main_Disp.h **** static etBool MsgDispatcher_PhysicalThread1_receiveMessage(const etMessage* msg){
 238              		.loc 1 25 0
 239              		.cfi_startproc
 240              		@ args = 0, pretend = 0, frame = 8
 241              		@ frame_needed = 1, uses_anonymous_args = 0
 242 0000 80B5     		push	{r7, lr}
 243              	.LCFI2:
 244              		.cfi_def_cfa_offset 8
 245              		.cfi_offset 7, -8
 246              		.cfi_offset 14, -4
 247 0002 82B0     		sub	sp, sp, #8
 248              	.LCFI3:
 249              		.cfi_def_cfa_offset 16
 250 0004 00AF     		add	r7, sp, #0
 251              	.LCFI4:
 252              		.cfi_def_cfa_register 7
 253 0006 7860     		str	r0, [r7, #4]
  26:C:/data/workspaces/github/de.protos.demos/src/HexagonCANDemo/etrice.HexagonCANDemo.demo/src-gen-st/HexagonCANDemo\nodeRef1_main_Disp.h **** 	ET_MSC_LOGGER_SYNC_ENTRY("MsgDispatcher_PhysicalThread1", "receiveMessage")
  27:C:/data/workspaces/github/de.protos.demos/src/HexagonCANDemo/etrice.HexagonCANDemo.demo/src-gen-st/HexagonCANDemo\nodeRef1_main_Disp.h **** 	switch(msg->address){
 254              		.loc 1 27 0
 255 0008 7B68     		ldr	r3, [r7, #4]
 256 000a 9B88     		ldrh	r3, [r3, #4]
 257 000c 1BB2     		sxth	r3, r3
 258 000e 03F1FF33 		add	r3, r3, #-1
 259 0012 2E2B     		cmp	r3, #46
 260 0014 00F21581 		bhi	.L3
 261 0018 01A2     		adr	r2, .L15
 262 001a 52F823F0 		ldr	pc, [r2, r3, lsl #2]
 263 001e 00BF     		.align	2
 264              	.L15:
 265 0020 DD000000 		.word	.L4+1
 266 0024 43020000 		.word	.L3+1
 267 0028 43020000 		.word	.L3+1
 268 002c 43020000 		.word	.L3+1
 269 0030 43020000 		.word	.L3+1
 270 0034 43020000 		.word	.L3+1
 271 0038 43020000 		.word	.L3+1
 272 003c 43020000 		.word	.L3+1
 273 0040 43020000 		.word	.L3+1
 274 0044 43020000 		.word	.L3+1
 275 0048 43020000 		.word	.L3+1
 276 004c 43020000 		.word	.L3+1
 277 0050 43020000 		.word	.L3+1
 278 0054 43020000 		.word	.L3+1
 279 0058 43020000 		.word	.L3+1
 280 005c 43020000 		.word	.L3+1
 281 0060 43020000 		.word	.L3+1
 282 0064 43020000 		.word	.L3+1
 283 0068 43020000 		.word	.L3+1
 284 006c 43020000 		.word	.L3+1
 285 0070 43020000 		.word	.L3+1
 286 0074 43020000 		.word	.L3+1
 287 0078 43020000 		.word	.L3+1
 288 007c 43020000 		.word	.L3+1
 289 0080 43020000 		.word	.L3+1
 290 0084 43020000 		.word	.L3+1
 291 0088 43020000 		.word	.L3+1
 292 008c 43020000 		.word	.L3+1
 293 0090 43020000 		.word	.L3+1
 294 0094 43020000 		.word	.L3+1
 295 0098 43020000 		.word	.L3+1
 296 009c 43020000 		.word	.L3+1
 297 00a0 43020000 		.word	.L3+1
 298 00a4 43020000 		.word	.L3+1
 299 00a8 FF000000 		.word	.L5+1
 300 00ac 17010000 		.word	.L6+1
 301 00b0 4F010000 		.word	.L7+1
 302 00b4 61010000 		.word	.L8+1
 303 00b8 43020000 		.word	.L3+1
 304 00bc 73010000 		.word	.L9+1
 305 00c0 43020000 		.word	.L3+1
 306 00c4 8B010000 		.word	.L10+1
 307 00c8 A7010000 		.word	.L11+1
 308 00cc 43020000 		.word	.L3+1
 309 00d0 C7010000 		.word	.L12+1
 310 00d4 0B020000 		.word	.L13+1
 311 00d8 27020000 		.word	.L14+1
 312              	.L4:
  28:C:/data/workspaces/github/de.protos.demos/src/HexagonCANDemo/etrice.HexagonCANDemo.demo/src-gen-st/HexagonCANDemo\nodeRef1_main_Disp.h **** 	
  29:C:/data/workspaces/github/de.protos.demos/src/HexagonCANDemo/etrice.HexagonCANDemo.demo/src-gen-st/HexagonCANDemo\nodeRef1_main_Disp.h **** 		case MESSAGESERVICE_ADDRESS:
  30:C:/data/workspaces/github/de.protos.demos/src/HexagonCANDemo/etrice.HexagonCANDemo.demo/src-gen-st/HexagonCANDemo\nodeRef1_main_Disp.h **** 			if (msg->evtID == etSystemProtocol_IN_poll) {
 313              		.loc 1 30 0
 314 00dc 7B68     		ldr	r3, [r7, #4]
 315 00de DB88     		ldrh	r3, [r3, #6]
 316 00e0 1BB2     		sxth	r3, r3
 317 00e2 012B     		cmp	r3, #1
 318 00e4 02D1     		bne	.L16
  31:C:/data/workspaces/github/de.protos.demos/src/HexagonCANDemo/etrice.HexagonCANDemo.demo/src-gen-st/HexagonCANDemo\nodeRef1_main_Disp.h **** 				MsgDispatcher_PhysicalThread1_poll();
 319              		.loc 1 31 0
 320 00e6 FFF7FEFF 		bl	MsgDispatcher_PhysicalThread1_poll
  32:C:/data/workspaces/github/de.protos.demos/src/HexagonCANDemo/etrice.HexagonCANDemo.demo/src-gen-st/HexagonCANDemo\nodeRef1_main_Disp.h **** 			}
  33:C:/data/workspaces/github/de.protos.demos/src/HexagonCANDemo/etrice.HexagonCANDemo.demo/src-gen-st/HexagonCANDemo\nodeRef1_main_Disp.h **** 			else
  34:C:/data/workspaces/github/de.protos.demos/src/HexagonCANDemo/etrice.HexagonCANDemo.demo/src-gen-st/HexagonCANDemo\nodeRef1_main_Disp.h **** 			if (msg->evtID == etSystemProtocol_IN_terminate)
  35:C:/data/workspaces/github/de.protos.demos/src/HexagonCANDemo/etrice.HexagonCANDemo.demo/src-gen-st/HexagonCANDemo\nodeRef1_main_Disp.h **** 				return ET_FALSE;
  36:C:/data/workspaces/github/de.protos.demos/src/HexagonCANDemo/etrice.HexagonCANDemo.demo/src-gen-st/HexagonCANDemo\nodeRef1_main_Disp.h **** 			break;
 321              		.loc 1 36 0
 322 00ea B5E0     		b	.L28
 323              	.L16:
  34:C:/data/workspaces/github/de.protos.demos/src/HexagonCANDemo/etrice.HexagonCANDemo.demo/src-gen-st/HexagonCANDemo\nodeRef1_main_Disp.h **** 			if (msg->evtID == etSystemProtocol_IN_terminate)
 324              		.loc 1 34 0
 325 00ec 7B68     		ldr	r3, [r7, #4]
 326 00ee DB88     		ldrh	r3, [r3, #6]
 327 00f0 1BB2     		sxth	r3, r3
 328 00f2 022B     		cmp	r3, #2
 329 00f4 40F0B080 		bne	.L28
  35:C:/data/workspaces/github/de.protos.demos/src/HexagonCANDemo/etrice.HexagonCANDemo.demo/src-gen-st/HexagonCANDemo\nodeRef1_main_Disp.h **** 				return ET_FALSE;
 330              		.loc 1 35 0
 331 00f8 4FF00003 		mov	r3, #0
 332 00fc AFE0     		b	.L18
 333              	.L5:
  37:C:/data/workspaces/github/de.protos.demos/src/HexagonCANDemo/etrice.HexagonCANDemo.demo/src-gen-st/HexagonCANDemo\nodeRef1_main_Disp.h **** 		
  38:C:/data/workspaces/github/de.protos.demos/src/HexagonCANDemo/etrice.HexagonCANDemo.demo/src-gen-st/HexagonCANDemo\nodeRef1_main_Disp.h **** 		/* interface items of /HexagonCANDemo/main/appl */
  39:C:/data/workspaces/github/de.protos.demos/src/HexagonCANDemo/etrice.HexagonCANDemo.demo/src-gen-st/HexagonCANDemo\nodeRef1_main_Disp.h **** 		
  40:C:/data/workspaces/github/de.protos.demos/src/HexagonCANDemo/etrice.HexagonCANDemo.demo/src-gen-st/HexagonCANDemo\nodeRef1_main_Disp.h **** 		/* interface items of /HexagonCANDemo/main/appl/mrPing */
  41:C:/data/workspaces/github/de.protos.demos/src/HexagonCANDemo/etrice.HexagonCANDemo.demo/src-gen-st/HexagonCANDemo\nodeRef1_main_Disp.h **** 		case 3+BASE_ADDRESS:
  42:C:/data/workspaces/github/de.protos.demos/src/HexagonCANDemo/etrice.HexagonCANDemo.demo/src-gen-st/HexagonCANDemo\nodeRef1_main_Disp.h **** 			AMrPing_receiveMessage((void*)&_HexagonCANDemo_main_appl_mrPing,(etPort*)&_HexagonCANDemo_main_a
 334              		.loc 1 42 0
 335 00fe 40F20000 		movw	r0, #:lower16:_HexagonCANDemo_main_appl_mrPing
 336 0102 C0F20000 		movt	r0, #:upper16:_HexagonCANDemo_main_appl_mrPing
 337 0106 40F20001 		movw	r1, #:lower16:_HexagonCANDemo_main_appl_mrPing_const
 338 010a C0F20001 		movt	r1, #:upper16:_HexagonCANDemo_main_appl_mrPing_const
 339 010e 7A68     		ldr	r2, [r7, #4]
 340 0110 FFF7FEFF 		bl	AMrPing_receiveMessage
  43:C:/data/workspaces/github/de.protos.demos/src/HexagonCANDemo/etrice.HexagonCANDemo.demo/src-gen-st/HexagonCANDemo\nodeRef1_main_Disp.h **** 			break;
 341              		.loc 1 43 0
 342 0114 A1E0     		b	.L19
 343              	.L6:
  44:C:/data/workspaces/github/de.protos.demos/src/HexagonCANDemo/etrice.HexagonCANDemo.demo/src-gen-st/HexagonCANDemo\nodeRef1_main_Disp.h **** 		case 4+BASE_ADDRESS:
  45:C:/data/workspaces/github/de.protos.demos/src/HexagonCANDemo/etrice.HexagonCANDemo.demo/src-gen-st/HexagonCANDemo\nodeRef1_main_Disp.h **** 			switch (msg->evtID){
 344              		.loc 1 45 0
 345 0116 7B68     		ldr	r3, [r7, #4]
 346 0118 DB88     		ldrh	r3, [r3, #6]
 347 011a 1BB2     		sxth	r3, r3
 348 011c 012B     		cmp	r3, #1
 349 011e 0CD1     		bne	.L26
 350              	.L21:
  46:C:/data/workspaces/github/de.protos.demos/src/HexagonCANDemo/etrice.HexagonCANDemo.demo/src-gen-st/HexagonCANDemo\nodeRef1_main_Disp.h **** 				case PTimer_OUT_timeout:
  47:C:/data/workspaces/github/de.protos.demos/src/HexagonCANDemo/etrice.HexagonCANDemo.demo/src-gen-st/HexagonCANDemo\nodeRef1_main_Disp.h **** 					PTimerConjPort_timeout_receiveHandler((etPort *)&_HexagonCANDemo_main_appl_mrPing_const.timer,
 351              		.loc 1 47 0
 352 0120 5148     		ldr	r0, .L29
 353 0122 7968     		ldr	r1, [r7, #4]
 354 0124 40F20002 		movw	r2, #:lower16:_HexagonCANDemo_main_appl_mrPing
 355 0128 C0F20002 		movt	r2, #:upper16:_HexagonCANDemo_main_appl_mrPing
 356 012c 40F20003 		movw	r3, #:lower16:AMrPing_receiveMessage
 357 0130 C0F20003 		movt	r3, #:upper16:AMrPing_receiveMessage
 358 0134 FFF7FEFF 		bl	PTimerConjPort_timeout_receiveHandler
  48:C:/data/workspaces/github/de.protos.demos/src/HexagonCANDemo/etrice.HexagonCANDemo.demo/src-gen-st/HexagonCANDemo\nodeRef1_main_Disp.h **** 					break;
 359              		.loc 1 48 0
 360 0138 08E0     		b	.L22
 361              	.L26:
  49:C:/data/workspaces/github/de.protos.demos/src/HexagonCANDemo/etrice.HexagonCANDemo.demo/src-gen-st/HexagonCANDemo\nodeRef1_main_Disp.h **** 				default: AMrPing_receiveMessage((void*)&_HexagonCANDemo_main_appl_mrPing,(etPort*)&_HexagonCAND
 362              		.loc 1 49 0
 363 013a 40F20000 		movw	r0, #:lower16:_HexagonCANDemo_main_appl_mrPing
 364 013e C0F20000 		movt	r0, #:upper16:_HexagonCANDemo_main_appl_mrPing
 365 0142 4949     		ldr	r1, .L29
 366 0144 7A68     		ldr	r2, [r7, #4]
 367 0146 FFF7FEFF 		bl	AMrPing_receiveMessage
  50:C:/data/workspaces/github/de.protos.demos/src/HexagonCANDemo/etrice.HexagonCANDemo.demo/src-gen-st/HexagonCANDemo\nodeRef1_main_Disp.h **** 					break;
 368              		.loc 1 50 0
 369 014a 00BF     		nop
 370              	.L22:
  51:C:/data/workspaces/github/de.protos.demos/src/HexagonCANDemo/etrice.HexagonCANDemo.demo/src-gen-st/HexagonCANDemo\nodeRef1_main_Disp.h **** 			}
  52:C:/data/workspaces/github/de.protos.demos/src/HexagonCANDemo/etrice.HexagonCANDemo.demo/src-gen-st/HexagonCANDemo\nodeRef1_main_Disp.h **** 			break;
 371              		.loc 1 52 0
 372 014c 85E0     		b	.L19
 373              	.L7:
  53:C:/data/workspaces/github/de.protos.demos/src/HexagonCANDemo/etrice.HexagonCANDemo.demo/src-gen-st/HexagonCANDemo\nodeRef1_main_Disp.h **** 		case 5+BASE_ADDRESS:
  54:C:/data/workspaces/github/de.protos.demos/src/HexagonCANDemo/etrice.HexagonCANDemo.demo/src-gen-st/HexagonCANDemo\nodeRef1_main_Disp.h **** 			AMrPing_receiveMessage((void*)&_HexagonCANDemo_main_appl_mrPing,(etPort*)&_HexagonCANDemo_main_a
 374              		.loc 1 54 0
 375 014e 40F20000 		movw	r0, #:lower16:_HexagonCANDemo_main_appl_mrPing
 376 0152 C0F20000 		movt	r0, #:upper16:_HexagonCANDemo_main_appl_mrPing
 377 0156 4549     		ldr	r1, .L29+4
 378 0158 7A68     		ldr	r2, [r7, #4]
 379 015a FFF7FEFF 		bl	AMrPing_receiveMessage
  55:C:/data/workspaces/github/de.protos.demos/src/HexagonCANDemo/etrice.HexagonCANDemo.demo/src-gen-st/HexagonCANDemo\nodeRef1_main_Disp.h **** 			break;
 380              		.loc 1 55 0
 381 015e 7CE0     		b	.L19
 382              	.L8:
  56:C:/data/workspaces/github/de.protos.demos/src/HexagonCANDemo/etrice.HexagonCANDemo.demo/src-gen-st/HexagonCANDemo\nodeRef1_main_Disp.h **** 		case 6+BASE_ADDRESS:
  57:C:/data/workspaces/github/de.protos.demos/src/HexagonCANDemo/etrice.HexagonCANDemo.demo/src-gen-st/HexagonCANDemo\nodeRef1_main_Disp.h **** 			AMrPing_receiveMessage((void*)&_HexagonCANDemo_main_appl_mrPing,(etPort*)&_HexagonCANDemo_main_a
 383              		.loc 1 57 0
 384 0160 40F20000 		movw	r0, #:lower16:_HexagonCANDemo_main_appl_mrPing
 385 0164 C0F20000 		movt	r0, #:upper16:_HexagonCANDemo_main_appl_mrPing
 386 0168 4149     		ldr	r1, .L29+8
 387 016a 7A68     		ldr	r2, [r7, #4]
 388 016c FFF7FEFF 		bl	AMrPing_receiveMessage
  58:C:/data/workspaces/github/de.protos.demos/src/HexagonCANDemo/etrice.HexagonCANDemo.demo/src-gen-st/HexagonCANDemo\nodeRef1_main_Disp.h **** 			break;
 389              		.loc 1 58 0
 390 0170 73E0     		b	.L19
 391              	.L9:
  59:C:/data/workspaces/github/de.protos.demos/src/HexagonCANDemo/etrice.HexagonCANDemo.demo/src-gen-st/HexagonCANDemo\nodeRef1_main_Disp.h **** 		
  60:C:/data/workspaces/github/de.protos.demos/src/HexagonCANDemo/etrice.HexagonCANDemo.demo/src-gen-st/HexagonCANDemo\nodeRef1_main_Disp.h **** 		/* interface items of /HexagonCANDemo/main/appl/mrPong */
  61:C:/data/workspaces/github/de.protos.demos/src/HexagonCANDemo/etrice.HexagonCANDemo.demo/src-gen-st/HexagonCANDemo\nodeRef1_main_Disp.h **** 		case 8+BASE_ADDRESS:
  62:C:/data/workspaces/github/de.protos.demos/src/HexagonCANDemo/etrice.HexagonCANDemo.demo/src-gen-st/HexagonCANDemo\nodeRef1_main_Disp.h **** 			AMrPong_receiveMessage((void*)&_HexagonCANDemo_main_appl_mrPong,(etPort*)&_HexagonCANDemo_main_a
 392              		.loc 1 62 0
 393 0172 40F20000 		movw	r0, #:lower16:_HexagonCANDemo_main_appl_mrPong
 394 0176 C0F20000 		movt	r0, #:upper16:_HexagonCANDemo_main_appl_mrPong
 395 017a 40F20001 		movw	r1, #:lower16:_HexagonCANDemo_main_appl_mrPong_const
 396 017e C0F20001 		movt	r1, #:upper16:_HexagonCANDemo_main_appl_mrPong_const
 397 0182 7A68     		ldr	r2, [r7, #4]
 398 0184 FFF7FEFF 		bl	AMrPong_receiveMessage
  63:C:/data/workspaces/github/de.protos.demos/src/HexagonCANDemo/etrice.HexagonCANDemo.demo/src-gen-st/HexagonCANDemo\nodeRef1_main_Disp.h **** 			break;
 399              		.loc 1 63 0
 400 0188 67E0     		b	.L19
 401              	.L10:
  64:C:/data/workspaces/github/de.protos.demos/src/HexagonCANDemo/etrice.HexagonCANDemo.demo/src-gen-st/HexagonCANDemo\nodeRef1_main_Disp.h **** 		
  65:C:/data/workspaces/github/de.protos.demos/src/HexagonCANDemo/etrice.HexagonCANDemo.demo/src-gen-st/HexagonCANDemo\nodeRef1_main_Disp.h **** 		/* interface items of /HexagonCANDemo/main/timingService */
  66:C:/data/workspaces/github/de.protos.demos/src/HexagonCANDemo/etrice.HexagonCANDemo.demo/src-gen-st/HexagonCANDemo\nodeRef1_main_Disp.h **** 		case 10+BASE_ADDRESS:
  67:C:/data/workspaces/github/de.protos.demos/src/HexagonCANDemo/etrice.HexagonCANDemo.demo/src-gen-st/HexagonCANDemo\nodeRef1_main_Disp.h **** 			ATimingService_receiveMessage((void*)&_HexagonCANDemo_main_timingService,&_HexagonCANDemo_main_t
 402              		.loc 1 67 0
 403 018a 40F20003 		movw	r3, #:lower16:_HexagonCANDemo_main_timingService_const
 404 018e C0F20003 		movt	r3, #:upper16:_HexagonCANDemo_main_timingService_const
 405 0192 5B68     		ldr	r3, [r3, #4]
 406 0194 40F20000 		movw	r0, #:lower16:_HexagonCANDemo_main_timingService
 407 0198 C0F20000 		movt	r0, #:upper16:_HexagonCANDemo_main_timingService
 408 019c 1946     		mov	r1, r3
 409 019e 7A68     		ldr	r2, [r7, #4]
 410 01a0 FFF7FEFF 		bl	ATimingService_receiveMessage
  68:C:/data/workspaces/github/de.protos.demos/src/HexagonCANDemo/etrice.HexagonCANDemo.demo/src-gen-st/HexagonCANDemo\nodeRef1_main_Disp.h **** 		break;
 411              		.loc 1 68 0
 412 01a4 59E0     		b	.L19
 413              	.L11:
  69:C:/data/workspaces/github/de.protos.demos/src/HexagonCANDemo/etrice.HexagonCANDemo.demo/src-gen-st/HexagonCANDemo\nodeRef1_main_Disp.h **** 		case 11+BASE_ADDRESS:
  70:C:/data/workspaces/github/de.protos.demos/src/HexagonCANDemo/etrice.HexagonCANDemo.demo/src-gen-st/HexagonCANDemo\nodeRef1_main_Disp.h **** 			ATimingService_receiveMessage((void*)&_HexagonCANDemo_main_timingService,&_HexagonCANDemo_main_t
 414              		.loc 1 70 0
 415 01a6 40F20003 		movw	r3, #:lower16:_HexagonCANDemo_main_timingService_const
 416 01aa C0F20003 		movt	r3, #:upper16:_HexagonCANDemo_main_timingService_const
 417 01ae 5B68     		ldr	r3, [r3, #4]
 418 01b0 03F11003 		add	r3, r3, #16
 419 01b4 40F20000 		movw	r0, #:lower16:_HexagonCANDemo_main_timingService
 420 01b8 C0F20000 		movt	r0, #:upper16:_HexagonCANDemo_main_timingService
 421 01bc 1946     		mov	r1, r3
 422 01be 7A68     		ldr	r2, [r7, #4]
 423 01c0 FFF7FEFF 		bl	ATimingService_receiveMessage
  71:C:/data/workspaces/github/de.protos.demos/src/HexagonCANDemo/etrice.HexagonCANDemo.demo/src-gen-st/HexagonCANDemo\nodeRef1_main_Disp.h **** 		break;
 424              		.loc 1 71 0
 425 01c4 49E0     		b	.L19
 426              	.L12:
  72:C:/data/workspaces/github/de.protos.demos/src/HexagonCANDemo/etrice.HexagonCANDemo.demo/src-gen-st/HexagonCANDemo\nodeRef1_main_Disp.h **** 		
  73:C:/data/workspaces/github/de.protos.demos/src/HexagonCANDemo/etrice.HexagonCANDemo.demo/src-gen-st/HexagonCANDemo\nodeRef1_main_Disp.h **** 		/* interface items of /HexagonCANDemo/main/canService */
  74:C:/data/workspaces/github/de.protos.demos/src/HexagonCANDemo/etrice.HexagonCANDemo.demo/src-gen-st/HexagonCANDemo\nodeRef1_main_Disp.h **** 		case 13+BASE_ADDRESS:
  75:C:/data/workspaces/github/de.protos.demos/src/HexagonCANDemo/etrice.HexagonCANDemo.demo/src-gen-st/HexagonCANDemo\nodeRef1_main_Disp.h **** 			switch (msg->evtID){
 427              		.loc 1 75 0
 428 01c6 7B68     		ldr	r3, [r7, #4]
 429 01c8 DB88     		ldrh	r3, [r3, #6]
 430 01ca 1BB2     		sxth	r3, r3
 431 01cc 012B     		cmp	r3, #1
 432 01ce 0FD1     		bne	.L27
 433              	.L24:
  76:C:/data/workspaces/github/de.protos.demos/src/HexagonCANDemo/etrice.HexagonCANDemo.demo/src-gen-st/HexagonCANDemo\nodeRef1_main_Disp.h **** 				case PTimer_OUT_timeout:
  77:C:/data/workspaces/github/de.protos.demos/src/HexagonCANDemo/etrice.HexagonCANDemo.demo/src-gen-st/HexagonCANDemo\nodeRef1_main_Disp.h **** 					PTimerConjPort_timeout_receiveHandler((etPort *)&_HexagonCANDemo_main_canService_const.timer,m
 434              		.loc 1 77 0
 435 01d0 40F20000 		movw	r0, #:lower16:_HexagonCANDemo_main_canService_const
 436 01d4 C0F20000 		movt	r0, #:upper16:_HexagonCANDemo_main_canService_const
 437 01d8 7968     		ldr	r1, [r7, #4]
 438 01da 40F20002 		movw	r2, #:lower16:_HexagonCANDemo_main_canService
 439 01de C0F20002 		movt	r2, #:upper16:_HexagonCANDemo_main_canService
 440 01e2 40F20003 		movw	r3, #:lower16:ACANService_receiveMessage
 441 01e6 C0F20003 		movt	r3, #:upper16:ACANService_receiveMessage
 442 01ea FFF7FEFF 		bl	PTimerConjPort_timeout_receiveHandler
  78:C:/data/workspaces/github/de.protos.demos/src/HexagonCANDemo/etrice.HexagonCANDemo.demo/src-gen-st/HexagonCANDemo\nodeRef1_main_Disp.h **** 					break;
 443              		.loc 1 78 0
 444 01ee 0BE0     		b	.L25
 445              	.L27:
  79:C:/data/workspaces/github/de.protos.demos/src/HexagonCANDemo/etrice.HexagonCANDemo.demo/src-gen-st/HexagonCANDemo\nodeRef1_main_Disp.h **** 				default: ACANService_receiveMessage((void*)&_HexagonCANDemo_main_canService,(etPort*)&_HexagonC
 446              		.loc 1 79 0
 447 01f0 40F20000 		movw	r0, #:lower16:_HexagonCANDemo_main_canService
 448 01f4 C0F20000 		movt	r0, #:upper16:_HexagonCANDemo_main_canService
 449 01f8 40F20001 		movw	r1, #:lower16:_HexagonCANDemo_main_canService_const
 450 01fc C0F20001 		movt	r1, #:upper16:_HexagonCANDemo_main_canService_const
 451 0200 7A68     		ldr	r2, [r7, #4]
 452 0202 FFF7FEFF 		bl	ACANService_receiveMessage
  80:C:/data/workspaces/github/de.protos.demos/src/HexagonCANDemo/etrice.HexagonCANDemo.demo/src-gen-st/HexagonCANDemo\nodeRef1_main_Disp.h **** 					break;
 453              		.loc 1 80 0
 454 0206 00BF     		nop
 455              	.L25:
  81:C:/data/workspaces/github/de.protos.demos/src/HexagonCANDemo/etrice.HexagonCANDemo.demo/src-gen-st/HexagonCANDemo\nodeRef1_main_Disp.h **** 			}
  82:C:/data/workspaces/github/de.protos.demos/src/HexagonCANDemo/etrice.HexagonCANDemo.demo/src-gen-st/HexagonCANDemo\nodeRef1_main_Disp.h **** 			break;
 456              		.loc 1 82 0
 457 0208 27E0     		b	.L19
 458              	.L13:
  83:C:/data/workspaces/github/de.protos.demos/src/HexagonCANDemo/etrice.HexagonCANDemo.demo/src-gen-st/HexagonCANDemo\nodeRef1_main_Disp.h **** 		case 14+BASE_ADDRESS:
  84:C:/data/workspaces/github/de.protos.demos/src/HexagonCANDemo/etrice.HexagonCANDemo.demo/src-gen-st/HexagonCANDemo\nodeRef1_main_Disp.h **** 			ACANService_receiveMessage((void*)&_HexagonCANDemo_main_canService,&_HexagonCANDemo_main_canServ
 459              		.loc 1 84 0
 460 020a 40F20003 		movw	r3, #:lower16:_HexagonCANDemo_main_canService_const
 461 020e C0F20003 		movt	r3, #:upper16:_HexagonCANDemo_main_canService_const
 462 0212 1B69     		ldr	r3, [r3, #16]
 463 0214 40F20000 		movw	r0, #:lower16:_HexagonCANDemo_main_canService
 464 0218 C0F20000 		movt	r0, #:upper16:_HexagonCANDemo_main_canService
 465 021c 1946     		mov	r1, r3
 466 021e 7A68     		ldr	r2, [r7, #4]
 467 0220 FFF7FEFF 		bl	ACANService_receiveMessage
  85:C:/data/workspaces/github/de.protos.demos/src/HexagonCANDemo/etrice.HexagonCANDemo.demo/src-gen-st/HexagonCANDemo\nodeRef1_main_Disp.h **** 		break;
 468              		.loc 1 85 0
 469 0224 19E0     		b	.L19
 470              	.L14:
  86:C:/data/workspaces/github/de.protos.demos/src/HexagonCANDemo/etrice.HexagonCANDemo.demo/src-gen-st/HexagonCANDemo\nodeRef1_main_Disp.h **** 		case 15+BASE_ADDRESS:
  87:C:/data/workspaces/github/de.protos.demos/src/HexagonCANDemo/etrice.HexagonCANDemo.demo/src-gen-st/HexagonCANDemo\nodeRef1_main_Disp.h **** 			ACANService_receiveMessage((void*)&_HexagonCANDemo_main_canService,&_HexagonCANDemo_main_canServ
 471              		.loc 1 87 0
 472 0226 40F20003 		movw	r3, #:lower16:_HexagonCANDemo_main_canService_const
 473 022a C0F20003 		movt	r3, #:upper16:_HexagonCANDemo_main_canService_const
 474 022e 9B69     		ldr	r3, [r3, #24]
 475 0230 40F20000 		movw	r0, #:lower16:_HexagonCANDemo_main_canService
 476 0234 C0F20000 		movt	r0, #:upper16:_HexagonCANDemo_main_canService
 477 0238 1946     		mov	r1, r3
 478 023a 7A68     		ldr	r2, [r7, #4]
 479 023c FFF7FEFF 		bl	ACANService_receiveMessage
  88:C:/data/workspaces/github/de.protos.demos/src/HexagonCANDemo/etrice.HexagonCANDemo.demo/src-gen-st/HexagonCANDemo\nodeRef1_main_Disp.h **** 		break;
 480              		.loc 1 88 0
 481 0240 0BE0     		b	.L19
 482              	.L3:
  89:C:/data/workspaces/github/de.protos.demos/src/HexagonCANDemo/etrice.HexagonCANDemo.demo/src-gen-st/HexagonCANDemo\nodeRef1_main_Disp.h **** 		
  90:C:/data/workspaces/github/de.protos.demos/src/HexagonCANDemo/etrice.HexagonCANDemo.demo/src-gen-st/HexagonCANDemo\nodeRef1_main_Disp.h **** 		default:
  91:C:/data/workspaces/github/de.protos.demos/src/HexagonCANDemo/etrice.HexagonCANDemo.demo/src-gen-st/HexagonCANDemo\nodeRef1_main_Disp.h **** 			etLogger_logErrorF("MessageService_PhysicalThread1_receiveMessage: address %d does not exist ", 
 483              		.loc 1 91 0
 484 0242 7B68     		ldr	r3, [r7, #4]
 485 0244 9B88     		ldrh	r3, [r3, #4]
 486 0246 1BB2     		sxth	r3, r3
 487 0248 40F20000 		movw	r0, #:lower16:.LC1
 488 024c C0F20000 		movt	r0, #:upper16:.LC1
 489 0250 1946     		mov	r1, r3
 490 0252 FFF7FEFF 		bl	etLogger_logErrorF
  92:C:/data/workspaces/github/de.protos.demos/src/HexagonCANDemo/etrice.HexagonCANDemo.demo/src-gen-st/HexagonCANDemo\nodeRef1_main_Disp.h **** 			break;
 491              		.loc 1 92 0
 492 0256 00E0     		b	.L19
 493              	.L28:
  36:C:/data/workspaces/github/de.protos.demos/src/HexagonCANDemo/etrice.HexagonCANDemo.demo/src-gen-st/HexagonCANDemo\nodeRef1_main_Disp.h **** 			break;
 494              		.loc 1 36 0
 495 0258 00BF     		nop
 496              	.L19:
  93:C:/data/workspaces/github/de.protos.demos/src/HexagonCANDemo/etrice.HexagonCANDemo.demo/src-gen-st/HexagonCANDemo\nodeRef1_main_Disp.h **** 	}
  94:C:/data/workspaces/github/de.protos.demos/src/HexagonCANDemo/etrice.HexagonCANDemo.demo/src-gen-st/HexagonCANDemo\nodeRef1_main_Disp.h **** 	ET_MSC_LOGGER_SYNC_EXIT
  95:C:/data/workspaces/github/de.protos.demos/src/HexagonCANDemo/etrice.HexagonCANDemo.demo/src-gen-st/HexagonCANDemo\nodeRef1_main_Disp.h **** 	return ET_TRUE;
 497              		.loc 1 95 0
 498 025a 4FF00103 		mov	r3, #1
 499              	.L18:
  96:C:/data/workspaces/github/de.protos.demos/src/HexagonCANDemo/etrice.HexagonCANDemo.demo/src-gen-st/HexagonCANDemo\nodeRef1_main_Disp.h **** }
 500              		.loc 1 96 0
 501 025e 1846     		mov	r0, r3
 502 0260 07F10807 		add	r7, r7, #8
 503 0264 BD46     		mov	sp, r7
 504 0266 80BD     		pop	{r7, pc}
 505              	.L30:
 506              		.align	2
 507              	.L29:
 508 0268 1C000000 		.word	_HexagonCANDemo_main_appl_mrPing_const+12
 509 026c 28000000 		.word	_HexagonCANDemo_main_appl_mrPing_const+24
 510 0270 34000000 		.word	_HexagonCANDemo_main_appl_mrPing_const+36
 511              		.cfi_endproc
 512              	.LFE1:
 514              		.section	.text.nodeRef1_main_initMessageServices,"ax",%progbits
 515              		.align	2
 516              		.thumb
 517              		.thumb_func
 519              	nodeRef1_main_initMessageServices:
 520              	.LFB2:
 521              		.file 2 "C:/data/workspaces/github/de.protos.demos/src/HexagonCANDemo/etrice.HexagonCANDemo.demo/s
   1:C:/data/workspaces/github/de.protos.demos/src/HexagonCANDemo/etrice.HexagonCANDemo.demo/src-gen-st/HexagonCANDemo\nodeRef1_main.c **** /**
   2:C:/data/workspaces/github/de.protos.demos/src/HexagonCANDemo/etrice.HexagonCANDemo.demo/src-gen-st/HexagonCANDemo\nodeRef1_main.c ****  * @author generated by eTrice
   3:C:/data/workspaces/github/de.protos.demos/src/HexagonCANDemo/etrice.HexagonCANDemo.demo/src-gen-st/HexagonCANDemo\nodeRef1_main.c ****  *
   4:C:/data/workspaces/github/de.protos.demos/src/HexagonCANDemo/etrice.HexagonCANDemo.demo/src-gen-st/HexagonCANDemo\nodeRef1_main.c ****  * Source File of Node nodeRef1 with SubSystem main
   5:C:/data/workspaces/github/de.protos.demos/src/HexagonCANDemo/etrice.HexagonCANDemo.demo/src-gen-st/HexagonCANDemo\nodeRef1_main.c ****  * 
   6:C:/data/workspaces/github/de.protos.demos/src/HexagonCANDemo/etrice.HexagonCANDemo.demo/src-gen-st/HexagonCANDemo\nodeRef1_main.c ****  */
   7:C:/data/workspaces/github/de.protos.demos/src/HexagonCANDemo/etrice.HexagonCANDemo.demo/src-gen-st/HexagonCANDemo\nodeRef1_main.c **** 
   8:C:/data/workspaces/github/de.protos.demos/src/HexagonCANDemo/etrice.HexagonCANDemo.demo/src-gen-st/HexagonCANDemo\nodeRef1_main.c **** #include <stdio.h>
   9:C:/data/workspaces/github/de.protos.demos/src/HexagonCANDemo/etrice.HexagonCANDemo.demo/src-gen-st/HexagonCANDemo\nodeRef1_main.c **** #include <string.h>
  10:C:/data/workspaces/github/de.protos.demos/src/HexagonCANDemo/etrice.HexagonCANDemo.demo/src-gen-st/HexagonCANDemo\nodeRef1_main.c **** 
  11:C:/data/workspaces/github/de.protos.demos/src/HexagonCANDemo/etrice.HexagonCANDemo.demo/src-gen-st/HexagonCANDemo\nodeRef1_main.c **** 
  12:C:/data/workspaces/github/de.protos.demos/src/HexagonCANDemo/etrice.HexagonCANDemo.demo/src-gen-st/HexagonCANDemo\nodeRef1_main.c **** #include "nodeRef1_main.h"
  13:C:/data/workspaces/github/de.protos.demos/src/HexagonCANDemo/etrice.HexagonCANDemo.demo/src-gen-st/HexagonCANDemo\nodeRef1_main.c **** 
  14:C:/data/workspaces/github/de.protos.demos/src/HexagonCANDemo/etrice.HexagonCANDemo.demo/src-gen-st/HexagonCANDemo\nodeRef1_main.c **** #include "debugging/etLogger.h"
  15:C:/data/workspaces/github/de.protos.demos/src/HexagonCANDemo/etrice.HexagonCANDemo.demo/src-gen-st/HexagonCANDemo\nodeRef1_main.c **** #include "debugging/etMSCLogger.h"
  16:C:/data/workspaces/github/de.protos.demos/src/HexagonCANDemo/etrice.HexagonCANDemo.demo/src-gen-st/HexagonCANDemo\nodeRef1_main.c **** #include "debugging/etDataLogger.h"
  17:C:/data/workspaces/github/de.protos.demos/src/HexagonCANDemo/etrice.HexagonCANDemo.demo/src-gen-st/HexagonCANDemo\nodeRef1_main.c **** #include "messaging/etSystemProtocol.h"
  18:C:/data/workspaces/github/de.protos.demos/src/HexagonCANDemo/etrice.HexagonCANDemo.demo/src-gen-st/HexagonCANDemo\nodeRef1_main.c **** #include "osal/etTimer.h"
  19:C:/data/workspaces/github/de.protos.demos/src/HexagonCANDemo/etrice.HexagonCANDemo.demo/src-gen-st/HexagonCANDemo\nodeRef1_main.c **** #include "osal/etSema.h"
  20:C:/data/workspaces/github/de.protos.demos/src/HexagonCANDemo/etrice.HexagonCANDemo.demo/src-gen-st/HexagonCANDemo\nodeRef1_main.c **** #include "runtime/etRuntime.h"
  21:C:/data/workspaces/github/de.protos.demos/src/HexagonCANDemo/etrice.HexagonCANDemo.demo/src-gen-st/HexagonCANDemo\nodeRef1_main.c **** #include "etRuntimeConfig.h"
  22:C:/data/workspaces/github/de.protos.demos/src/HexagonCANDemo/etrice.HexagonCANDemo.demo/src-gen-st/HexagonCANDemo\nodeRef1_main.c **** 
  23:C:/data/workspaces/github/de.protos.demos/src/HexagonCANDemo/etrice.HexagonCANDemo.demo/src-gen-st/HexagonCANDemo\nodeRef1_main.c **** 
  24:C:/data/workspaces/github/de.protos.demos/src/HexagonCANDemo/etrice.HexagonCANDemo.demo/src-gen-st/HexagonCANDemo\nodeRef1_main.c **** /* data for Node nodeRef1 with SubSystem main */
  25:C:/data/workspaces/github/de.protos.demos/src/HexagonCANDemo/etrice.HexagonCANDemo.demo/src-gen-st/HexagonCANDemo\nodeRef1_main.c **** typedef struct nodeRef1_main {
  26:C:/data/workspaces/github/de.protos.demos/src/HexagonCANDemo/etrice.HexagonCANDemo.demo/src-gen-st/HexagonCANDemo\nodeRef1_main.c **** 	char *name;
  27:C:/data/workspaces/github/de.protos.demos/src/HexagonCANDemo/etrice.HexagonCANDemo.demo/src-gen-st/HexagonCANDemo\nodeRef1_main.c **** 	volatile int shutdownRequest;
  28:C:/data/workspaces/github/de.protos.demos/src/HexagonCANDemo/etrice.HexagonCANDemo.demo/src-gen-st/HexagonCANDemo\nodeRef1_main.c **** } nodeRef1_main;
  29:C:/data/workspaces/github/de.protos.demos/src/HexagonCANDemo/etrice.HexagonCANDemo.demo/src-gen-st/HexagonCANDemo\nodeRef1_main.c **** 
  30:C:/data/workspaces/github/de.protos.demos/src/HexagonCANDemo/etrice.HexagonCANDemo.demo/src-gen-st/HexagonCANDemo\nodeRef1_main.c **** static nodeRef1_main nodeRef1_mainInst = {"nodeRef1_main", 0};
  31:C:/data/workspaces/github/de.protos.demos/src/HexagonCANDemo/etrice.HexagonCANDemo.demo/src-gen-st/HexagonCANDemo\nodeRef1_main.c **** 
  32:C:/data/workspaces/github/de.protos.demos/src/HexagonCANDemo/etrice.HexagonCANDemo.demo/src-gen-st/HexagonCANDemo\nodeRef1_main.c **** static void nodeRef1_main_initActorInstances(void);
  33:C:/data/workspaces/github/de.protos.demos/src/HexagonCANDemo/etrice.HexagonCANDemo.demo/src-gen-st/HexagonCANDemo\nodeRef1_main.c **** static void nodeRef1_main_constructActorInstances(void);
  34:C:/data/workspaces/github/de.protos.demos/src/HexagonCANDemo/etrice.HexagonCANDemo.demo/src-gen-st/HexagonCANDemo\nodeRef1_main.c **** 
  35:C:/data/workspaces/github/de.protos.demos/src/HexagonCANDemo/etrice.HexagonCANDemo.demo/src-gen-st/HexagonCANDemo\nodeRef1_main.c **** /* include instances for all classes */
  36:C:/data/workspaces/github/de.protos.demos/src/HexagonCANDemo/etrice.HexagonCANDemo.demo/src-gen-st/HexagonCANDemo\nodeRef1_main.c **** #include "nodeRef1_main_Inst.h"
  37:C:/data/workspaces/github/de.protos.demos/src/HexagonCANDemo/etrice.HexagonCANDemo.demo/src-gen-st/HexagonCANDemo\nodeRef1_main.c **** #include "nodeRef1_main_Disp.h"
  38:C:/data/workspaces/github/de.protos.demos/src/HexagonCANDemo/etrice.HexagonCANDemo.demo/src-gen-st/HexagonCANDemo\nodeRef1_main.c **** 
  39:C:/data/workspaces/github/de.protos.demos/src/HexagonCANDemo/etrice.HexagonCANDemo.demo/src-gen-st/HexagonCANDemo\nodeRef1_main.c **** static void nodeRef1_main_initMessageServices(void) {
 522              		.loc 2 39 0
 523              		.cfi_startproc
 524              		@ args = 0, pretend = 0, frame = 8
 525              		@ frame_needed = 1, uses_anonymous_args = 0
 526 0000 80B5     		push	{r7, lr}
 527              	.LCFI5:
 528              		.cfi_def_cfa_offset 8
 529              		.cfi_offset 7, -8
 530              		.cfi_offset 14, -4
 531 0002 88B0     		sub	sp, sp, #32
 532              	.LCFI6:
 533              		.cfi_def_cfa_offset 40
 534 0004 06AF     		add	r7, sp, #24
 535              	.LCFI7:
 536              		.cfi_def_cfa 7, 16
 537              	.LBB2:
  40:C:/data/workspaces/github/de.protos.demos/src/HexagonCANDemo/etrice.HexagonCANDemo.demo/src-gen-st/HexagonCANDemo\nodeRef1_main.c **** 	ET_MSC_LOGGER_SYNC_ENTRY("nodeRef1_main", "initMessageServices")
  41:C:/data/workspaces/github/de.protos.demos/src/HexagonCANDemo/etrice.HexagonCANDemo.demo/src-gen-st/HexagonCANDemo\nodeRef1_main.c **** 	{
  42:C:/data/workspaces/github/de.protos.demos/src/HexagonCANDemo/etrice.HexagonCANDemo.demo/src-gen-st/HexagonCANDemo\nodeRef1_main.c **** 		etTime interval;
  43:C:/data/workspaces/github/de.protos.demos/src/HexagonCANDemo/etrice.HexagonCANDemo.demo/src-gen-st/HexagonCANDemo\nodeRef1_main.c **** 		
  44:C:/data/workspaces/github/de.protos.demos/src/HexagonCANDemo/etrice.HexagonCANDemo.demo/src-gen-st/HexagonCANDemo\nodeRef1_main.c **** 		/* initialization of all message services */
  45:C:/data/workspaces/github/de.protos.demos/src/HexagonCANDemo/etrice.HexagonCANDemo.demo/src-gen-st/HexagonCANDemo\nodeRef1_main.c **** 		interval.sec = 0;
 538              		.loc 2 45 0
 539 0006 4FF00003 		mov	r3, #0
 540 000a 3B60     		str	r3, [r7, #0]
  46:C:/data/workspaces/github/de.protos.demos/src/HexagonCANDemo/etrice.HexagonCANDemo.demo/src-gen-st/HexagonCANDemo\nodeRef1_main.c **** 		interval.nSec = 10000000;
 541              		.loc 2 46 0
 542 000c 49F28063 		movw	r3, #38528
 543 0010 C0F29803 		movt	r3, 152
 544 0014 7B60     		str	r3, [r7, #4]
  47:C:/data/workspaces/github/de.protos.demos/src/HexagonCANDemo/etrice.HexagonCANDemo.demo/src-gen-st/HexagonCANDemo\nodeRef1_main.c **** 		etMessageService_init(
 545              		.loc 2 47 0
 546 0016 4FF48063 		mov	r3, #1024
 547 001a 0093     		str	r3, [sp, #0]
 548 001c 4FF00303 		mov	r3, #3
 549 0020 0193     		str	r3, [sp, #4]
 550 0022 02AA     		add	r2, sp, #8
 551 0024 3B46     		mov	r3, r7
 552 0026 93E80300 		ldmia	r3, {r0, r1}
 553 002a 82E80300 		stmia	r2, {r0, r1}
 554 002e 40F20003 		movw	r3, #:lower16:MsgDispatcher_PhysicalThread1_receiveMessage
 555 0032 C0F20003 		movt	r3, #:upper16:MsgDispatcher_PhysicalThread1_receiveMessage
 556 0036 0493     		str	r3, [sp, #16]
 557 0038 4FF00203 		mov	r3, #2
 558 003c 0593     		str	r3, [sp, #20]
 559 003e 40F20000 		movw	r0, #:lower16:msgService_PhysicalThread1
 560 0042 C0F20000 		movt	r0, #:upper16:msgService_PhysicalThread1
 561 0046 40F20001 		movw	r1, #:lower16:msgBuffer_PhysicalThread1
 562 004a C0F20001 		movt	r1, #:upper16:msgBuffer_PhysicalThread1
 563 004e 4FF02802 		mov	r2, #40
 564 0052 4FF02003 		mov	r3, #32
 565 0056 FFF7FEFF 		bl	etMessageService_init
 566              	.LBE2:
  48:C:/data/workspaces/github/de.protos.demos/src/HexagonCANDemo/etrice.HexagonCANDemo.demo/src-gen-st/HexagonCANDemo\nodeRef1_main.c **** 			&msgService_PhysicalThread1,
  49:C:/data/workspaces/github/de.protos.demos/src/HexagonCANDemo/etrice.HexagonCANDemo.demo/src-gen-st/HexagonCANDemo\nodeRef1_main.c **** 			msgBuffer_PhysicalThread1,
  50:C:/data/workspaces/github/de.protos.demos/src/HexagonCANDemo/etrice.HexagonCANDemo.demo/src-gen-st/HexagonCANDemo\nodeRef1_main.c **** 			PHYSICALTHREAD1_POOL_SIZE,
  51:C:/data/workspaces/github/de.protos.demos/src/HexagonCANDemo/etrice.HexagonCANDemo.demo/src-gen-st/HexagonCANDemo\nodeRef1_main.c **** 			PHYSICALTHREAD1_BLOCK_SIZE,
  52:C:/data/workspaces/github/de.protos.demos/src/HexagonCANDemo/etrice.HexagonCANDemo.demo/src-gen-st/HexagonCANDemo\nodeRef1_main.c **** 			1024,
  53:C:/data/workspaces/github/de.protos.demos/src/HexagonCANDemo/etrice.HexagonCANDemo.demo/src-gen-st/HexagonCANDemo\nodeRef1_main.c **** 			3,
  54:C:/data/workspaces/github/de.protos.demos/src/HexagonCANDemo/etrice.HexagonCANDemo.demo/src-gen-st/HexagonCANDemo\nodeRef1_main.c **** 			interval,
  55:C:/data/workspaces/github/de.protos.demos/src/HexagonCANDemo/etrice.HexagonCANDemo.demo/src-gen-st/HexagonCANDemo\nodeRef1_main.c **** 			MsgDispatcher_PhysicalThread1_receiveMessage,
  56:C:/data/workspaces/github/de.protos.demos/src/HexagonCANDemo/etrice.HexagonCANDemo.demo/src-gen-st/HexagonCANDemo\nodeRef1_main.c **** 			EXECMODE_MIXED);
  57:C:/data/workspaces/github/de.protos.demos/src/HexagonCANDemo/etrice.HexagonCANDemo.demo/src-gen-st/HexagonCANDemo\nodeRef1_main.c **** 			
  58:C:/data/workspaces/github/de.protos.demos/src/HexagonCANDemo/etrice.HexagonCANDemo.demo/src-gen-st/HexagonCANDemo\nodeRef1_main.c **** 	}
  59:C:/data/workspaces/github/de.protos.demos/src/HexagonCANDemo/etrice.HexagonCANDemo.demo/src-gen-st/HexagonCANDemo\nodeRef1_main.c **** 	
  60:C:/data/workspaces/github/de.protos.demos/src/HexagonCANDemo/etrice.HexagonCANDemo.demo/src-gen-st/HexagonCANDemo\nodeRef1_main.c **** 	ET_MSC_LOGGER_SYNC_EXIT
  61:C:/data/workspaces/github/de.protos.demos/src/HexagonCANDemo/etrice.HexagonCANDemo.demo/src-gen-st/HexagonCANDemo\nodeRef1_main.c **** }
 567              		.loc 2 61 0
 568 005a 07F10807 		add	r7, r7, #8
 569 005e BD46     		mov	sp, r7
 570 0060 80BD     		pop	{r7, pc}
 571              		.cfi_endproc
 572              	.LFE2:
 574 0062 00BF     		.section	.text.nodeRef1_main_startMessageServices,"ax",%progbits
 575              		.align	2
 576              		.thumb
 577              		.thumb_func
 579              	nodeRef1_main_startMessageServices:
 580              	.LFB3:
  62:C:/data/workspaces/github/de.protos.demos/src/HexagonCANDemo/etrice.HexagonCANDemo.demo/src-gen-st/HexagonCANDemo\nodeRef1_main.c **** 
  63:C:/data/workspaces/github/de.protos.demos/src/HexagonCANDemo/etrice.HexagonCANDemo.demo/src-gen-st/HexagonCANDemo\nodeRef1_main.c **** static void nodeRef1_main_startMessageServices(void) {
 581              		.loc 2 63 0
 582              		.cfi_startproc
 583              		@ args = 0, pretend = 0, frame = 0
 584              		@ frame_needed = 1, uses_anonymous_args = 0
 585 0000 80B5     		push	{r7, lr}
 586              	.LCFI8:
 587              		.cfi_def_cfa_offset 8
 588              		.cfi_offset 7, -8
 589              		.cfi_offset 14, -4
 590 0002 00AF     		add	r7, sp, #0
 591              	.LCFI9:
 592              		.cfi_def_cfa_register 7
  64:C:/data/workspaces/github/de.protos.demos/src/HexagonCANDemo/etrice.HexagonCANDemo.demo/src-gen-st/HexagonCANDemo\nodeRef1_main.c **** 	ET_MSC_LOGGER_SYNC_ENTRY("nodeRef1_main", "startMessageServices")
  65:C:/data/workspaces/github/de.protos.demos/src/HexagonCANDemo/etrice.HexagonCANDemo.demo/src-gen-st/HexagonCANDemo\nodeRef1_main.c **** 	
  66:C:/data/workspaces/github/de.protos.demos/src/HexagonCANDemo/etrice.HexagonCANDemo.demo/src-gen-st/HexagonCANDemo\nodeRef1_main.c **** 	etMessageService_start(&msgService_PhysicalThread1);
 593              		.loc 2 66 0
 594 0004 40F20000 		movw	r0, #:lower16:msgService_PhysicalThread1
 595 0008 C0F20000 		movt	r0, #:upper16:msgService_PhysicalThread1
 596 000c FFF7FEFF 		bl	etMessageService_start
  67:C:/data/workspaces/github/de.protos.demos/src/HexagonCANDemo/etrice.HexagonCANDemo.demo/src-gen-st/HexagonCANDemo\nodeRef1_main.c **** 	
  68:C:/data/workspaces/github/de.protos.demos/src/HexagonCANDemo/etrice.HexagonCANDemo.demo/src-gen-st/HexagonCANDemo\nodeRef1_main.c **** 	ET_MSC_LOGGER_SYNC_EXIT
  69:C:/data/workspaces/github/de.protos.demos/src/HexagonCANDemo/etrice.HexagonCANDemo.demo/src-gen-st/HexagonCANDemo\nodeRef1_main.c **** }
 597              		.loc 2 69 0
 598 0010 80BD     		pop	{r7, pc}
 599              		.cfi_endproc
 600              	.LFE3:
 602 0012 00BF     		.section	.text.nodeRef1_main_stopMessageServices,"ax",%progbits
 603              		.align	2
 604              		.thumb
 605              		.thumb_func
 607              	nodeRef1_main_stopMessageServices:
 608              	.LFB4:
  70:C:/data/workspaces/github/de.protos.demos/src/HexagonCANDemo/etrice.HexagonCANDemo.demo/src-gen-st/HexagonCANDemo\nodeRef1_main.c **** 
  71:C:/data/workspaces/github/de.protos.demos/src/HexagonCANDemo/etrice.HexagonCANDemo.demo/src-gen-st/HexagonCANDemo\nodeRef1_main.c **** static void nodeRef1_main_stopMessageServices(void) {
 609              		.loc 2 71 0
 610              		.cfi_startproc
 611              		@ args = 0, pretend = 0, frame = 0
 612              		@ frame_needed = 1, uses_anonymous_args = 0
 613 0000 80B5     		push	{r7, lr}
 614              	.LCFI10:
 615              		.cfi_def_cfa_offset 8
 616              		.cfi_offset 7, -8
 617              		.cfi_offset 14, -4
 618 0002 00AF     		add	r7, sp, #0
 619              	.LCFI11:
 620              		.cfi_def_cfa_register 7
  72:C:/data/workspaces/github/de.protos.demos/src/HexagonCANDemo/etrice.HexagonCANDemo.demo/src-gen-st/HexagonCANDemo\nodeRef1_main.c **** 	ET_MSC_LOGGER_SYNC_ENTRY("nodeRef1_main", "stopMessageServices")
  73:C:/data/workspaces/github/de.protos.demos/src/HexagonCANDemo/etrice.HexagonCANDemo.demo/src-gen-st/HexagonCANDemo\nodeRef1_main.c **** 	
  74:C:/data/workspaces/github/de.protos.demos/src/HexagonCANDemo/etrice.HexagonCANDemo.demo/src-gen-st/HexagonCANDemo\nodeRef1_main.c **** 	etMessageService_stop(&msgService_PhysicalThread1);
 621              		.loc 2 74 0
 622 0004 40F20000 		movw	r0, #:lower16:msgService_PhysicalThread1
 623 0008 C0F20000 		movt	r0, #:upper16:msgService_PhysicalThread1
 624 000c FFF7FEFF 		bl	etMessageService_stop
  75:C:/data/workspaces/github/de.protos.demos/src/HexagonCANDemo/etrice.HexagonCANDemo.demo/src-gen-st/HexagonCANDemo\nodeRef1_main.c **** 	
  76:C:/data/workspaces/github/de.protos.demos/src/HexagonCANDemo/etrice.HexagonCANDemo.demo/src-gen-st/HexagonCANDemo\nodeRef1_main.c **** 	ET_MSC_LOGGER_SYNC_EXIT
  77:C:/data/workspaces/github/de.protos.demos/src/HexagonCANDemo/etrice.HexagonCANDemo.demo/src-gen-st/HexagonCANDemo\nodeRef1_main.c **** }
 625              		.loc 2 77 0
 626 0010 80BD     		pop	{r7, pc}
 627              		.cfi_endproc
 628              	.LFE4:
 630 0012 00BF     		.section	.text.nodeRef1_main_destroyMessageServices,"ax",%progbits
 631              		.align	2
 632              		.thumb
 633              		.thumb_func
 635              	nodeRef1_main_destroyMessageServices:
 636              	.LFB5:
  78:C:/data/workspaces/github/de.protos.demos/src/HexagonCANDemo/etrice.HexagonCANDemo.demo/src-gen-st/HexagonCANDemo\nodeRef1_main.c **** 
  79:C:/data/workspaces/github/de.protos.demos/src/HexagonCANDemo/etrice.HexagonCANDemo.demo/src-gen-st/HexagonCANDemo\nodeRef1_main.c **** static void nodeRef1_main_destroyMessageServices(void) {
 637              		.loc 2 79 0
 638              		.cfi_startproc
 639              		@ args = 0, pretend = 0, frame = 0
 640              		@ frame_needed = 1, uses_anonymous_args = 0
 641 0000 80B5     		push	{r7, lr}
 642              	.LCFI12:
 643              		.cfi_def_cfa_offset 8
 644              		.cfi_offset 7, -8
 645              		.cfi_offset 14, -4
 646 0002 00AF     		add	r7, sp, #0
 647              	.LCFI13:
 648              		.cfi_def_cfa_register 7
  80:C:/data/workspaces/github/de.protos.demos/src/HexagonCANDemo/etrice.HexagonCANDemo.demo/src-gen-st/HexagonCANDemo\nodeRef1_main.c **** 	ET_MSC_LOGGER_SYNC_ENTRY("nodeRef1_main", "destroyMessageServices")
  81:C:/data/workspaces/github/de.protos.demos/src/HexagonCANDemo/etrice.HexagonCANDemo.demo/src-gen-st/HexagonCANDemo\nodeRef1_main.c **** 	
  82:C:/data/workspaces/github/de.protos.demos/src/HexagonCANDemo/etrice.HexagonCANDemo.demo/src-gen-st/HexagonCANDemo\nodeRef1_main.c **** 	etMessageService_destroy(&msgService_PhysicalThread1);
 649              		.loc 2 82 0
 650 0004 40F20000 		movw	r0, #:lower16:msgService_PhysicalThread1
 651 0008 C0F20000 		movt	r0, #:upper16:msgService_PhysicalThread1
 652 000c FFF7FEFF 		bl	etMessageService_destroy
  83:C:/data/workspaces/github/de.protos.demos/src/HexagonCANDemo/etrice.HexagonCANDemo.demo/src-gen-st/HexagonCANDemo\nodeRef1_main.c **** 	
  84:C:/data/workspaces/github/de.protos.demos/src/HexagonCANDemo/etrice.HexagonCANDemo.demo/src-gen-st/HexagonCANDemo\nodeRef1_main.c **** 	ET_MSC_LOGGER_SYNC_EXIT
  85:C:/data/workspaces/github/de.protos.demos/src/HexagonCANDemo/etrice.HexagonCANDemo.demo/src-gen-st/HexagonCANDemo\nodeRef1_main.c **** }
 653              		.loc 2 85 0
 654 0010 80BD     		pop	{r7, pc}
 655              		.cfi_endproc
 656              	.LFE5:
 658 0012 00BF     		.section	.rodata
 659 00fa 0000     		.align	2
 660              	.LC2:
 661 00fc 25735F69 		.ascii	"%s_init\000"
 661      6E697400 
 662              		.section	.text.nodeRef1_main_init,"ax",%progbits
 663              		.align	2
 664              		.global	nodeRef1_main_init
 665              		.thumb
 666              		.thumb_func
 668              	nodeRef1_main_init:
 669              	.LFB6:
  86:C:/data/workspaces/github/de.protos.demos/src/HexagonCANDemo/etrice.HexagonCANDemo.demo/src-gen-st/HexagonCANDemo\nodeRef1_main.c **** 
  87:C:/data/workspaces/github/de.protos.demos/src/HexagonCANDemo/etrice.HexagonCANDemo.demo/src-gen-st/HexagonCANDemo\nodeRef1_main.c **** void nodeRef1_main_init(void) {
 670              		.loc 2 87 0
 671              		.cfi_startproc
 672              		@ args = 0, pretend = 0, frame = 0
 673              		@ frame_needed = 1, uses_anonymous_args = 0
 674 0000 80B5     		push	{r7, lr}
 675              	.LCFI14:
 676              		.cfi_def_cfa_offset 8
 677              		.cfi_offset 7, -8
 678              		.cfi_offset 14, -4
 679 0002 00AF     		add	r7, sp, #0
 680              	.LCFI15:
 681              		.cfi_def_cfa_register 7
  88:C:/data/workspaces/github/de.protos.demos/src/HexagonCANDemo/etrice.HexagonCANDemo.demo/src-gen-st/HexagonCANDemo\nodeRef1_main.c **** 	ET_MSC_LOGGER_SYNC_ENTRY("nodeRef1_main", "init")
  89:C:/data/workspaces/github/de.protos.demos/src/HexagonCANDemo/etrice.HexagonCANDemo.demo/src-gen-st/HexagonCANDemo\nodeRef1_main.c **** 	etLogger_logInfoF("%s_init", nodeRef1_mainInst.name);
 682              		.loc 2 89 0
 683 0004 40F20003 		movw	r3, #:lower16:nodeRef1_mainInst
 684 0008 C0F20003 		movt	r3, #:upper16:nodeRef1_mainInst
 685 000c 1B68     		ldr	r3, [r3, #0]
 686 000e 40F20000 		movw	r0, #:lower16:.LC2
 687 0012 C0F20000 		movt	r0, #:upper16:.LC2
 688 0016 1946     		mov	r1, r3
 689 0018 FFF7FEFF 		bl	etLogger_logInfoF
  90:C:/data/workspaces/github/de.protos.demos/src/HexagonCANDemo/etrice.HexagonCANDemo.demo/src-gen-st/HexagonCANDemo\nodeRef1_main.c **** 	
  91:C:/data/workspaces/github/de.protos.demos/src/HexagonCANDemo/etrice.HexagonCANDemo.demo/src-gen-st/HexagonCANDemo\nodeRef1_main.c **** 	/* construct all actors */
  92:C:/data/workspaces/github/de.protos.demos/src/HexagonCANDemo/etrice.HexagonCANDemo.demo/src-gen-st/HexagonCANDemo\nodeRef1_main.c **** 	nodeRef1_main_constructActorInstances();
 690              		.loc 2 92 0
 691 001c FFF7FEFF 		bl	nodeRef1_main_constructActorInstances
  93:C:/data/workspaces/github/de.protos.demos/src/HexagonCANDemo/etrice.HexagonCANDemo.demo/src-gen-st/HexagonCANDemo\nodeRef1_main.c **** 	
  94:C:/data/workspaces/github/de.protos.demos/src/HexagonCANDemo/etrice.HexagonCANDemo.demo/src-gen-st/HexagonCANDemo\nodeRef1_main.c **** 	/* initialization of all message services */
  95:C:/data/workspaces/github/de.protos.demos/src/HexagonCANDemo/etrice.HexagonCANDemo.demo/src-gen-st/HexagonCANDemo\nodeRef1_main.c **** 	nodeRef1_main_initMessageServices();
 692              		.loc 2 95 0
 693 0020 FFF7FEFF 		bl	nodeRef1_main_initMessageServices
  96:C:/data/workspaces/github/de.protos.demos/src/HexagonCANDemo/etrice.HexagonCANDemo.demo/src-gen-st/HexagonCANDemo\nodeRef1_main.c **** 	
  97:C:/data/workspaces/github/de.protos.demos/src/HexagonCANDemo/etrice.HexagonCANDemo.demo/src-gen-st/HexagonCANDemo\nodeRef1_main.c **** 	/* init all actors */
  98:C:/data/workspaces/github/de.protos.demos/src/HexagonCANDemo/etrice.HexagonCANDemo.demo/src-gen-st/HexagonCANDemo\nodeRef1_main.c **** 	nodeRef1_main_initActorInstances();
 694              		.loc 2 98 0
 695 0024 FFF7FEFF 		bl	nodeRef1_main_initActorInstances
  99:C:/data/workspaces/github/de.protos.demos/src/HexagonCANDemo/etrice.HexagonCANDemo.demo/src-gen-st/HexagonCANDemo\nodeRef1_main.c **** 	
 100:C:/data/workspaces/github/de.protos.demos/src/HexagonCANDemo/etrice.HexagonCANDemo.demo/src-gen-st/HexagonCANDemo\nodeRef1_main.c **** 	
 101:C:/data/workspaces/github/de.protos.demos/src/HexagonCANDemo/etrice.HexagonCANDemo.demo/src-gen-st/HexagonCANDemo\nodeRef1_main.c **** 	ET_MSC_LOGGER_SYNC_EXIT
 102:C:/data/workspaces/github/de.protos.demos/src/HexagonCANDemo/etrice.HexagonCANDemo.demo/src-gen-st/HexagonCANDemo\nodeRef1_main.c **** }
 696              		.loc 2 102 0
 697 0028 80BD     		pop	{r7, pc}
 698              		.cfi_endproc
 699              	.LFE6:
 701 002a 00BF     		.section	.rodata
 702              		.align	2
 703              	.LC3:
 704 0104 25735F73 		.ascii	"%s_start\000"
 704      74617274 
 704      00
 705              		.section	.text.nodeRef1_main_start,"ax",%progbits
 706              		.align	2
 707              		.global	nodeRef1_main_start
 708              		.thumb
 709              		.thumb_func
 711              	nodeRef1_main_start:
 712              	.LFB7:
 103:C:/data/workspaces/github/de.protos.demos/src/HexagonCANDemo/etrice.HexagonCANDemo.demo/src-gen-st/HexagonCANDemo\nodeRef1_main.c **** 
 104:C:/data/workspaces/github/de.protos.demos/src/HexagonCANDemo/etrice.HexagonCANDemo.demo/src-gen-st/HexagonCANDemo\nodeRef1_main.c **** void nodeRef1_main_start(void) {
 713              		.loc 2 104 0
 714              		.cfi_startproc
 715              		@ args = 0, pretend = 0, frame = 0
 716              		@ frame_needed = 1, uses_anonymous_args = 0
 717 0000 80B5     		push	{r7, lr}
 718              	.LCFI16:
 719              		.cfi_def_cfa_offset 8
 720              		.cfi_offset 7, -8
 721              		.cfi_offset 14, -4
 722 0002 00AF     		add	r7, sp, #0
 723              	.LCFI17:
 724              		.cfi_def_cfa_register 7
 105:C:/data/workspaces/github/de.protos.demos/src/HexagonCANDemo/etrice.HexagonCANDemo.demo/src-gen-st/HexagonCANDemo\nodeRef1_main.c **** 	ET_MSC_LOGGER_SYNC_ENTRY("nodeRef1_main", "start")
 106:C:/data/workspaces/github/de.protos.demos/src/HexagonCANDemo/etrice.HexagonCANDemo.demo/src-gen-st/HexagonCANDemo\nodeRef1_main.c **** 	etLogger_logInfoF("%s_start", nodeRef1_mainInst.name);
 725              		.loc 2 106 0
 726 0004 40F20003 		movw	r3, #:lower16:nodeRef1_mainInst
 727 0008 C0F20003 		movt	r3, #:upper16:nodeRef1_mainInst
 728 000c 1B68     		ldr	r3, [r3, #0]
 729 000e 40F20000 		movw	r0, #:lower16:.LC3
 730 0012 C0F20000 		movt	r0, #:upper16:.LC3
 731 0016 1946     		mov	r1, r3
 732 0018 FFF7FEFF 		bl	etLogger_logInfoF
 107:C:/data/workspaces/github/de.protos.demos/src/HexagonCANDemo/etrice.HexagonCANDemo.demo/src-gen-st/HexagonCANDemo\nodeRef1_main.c **** 	nodeRef1_main_startMessageServices();
 733              		.loc 2 107 0
 734 001c FFF7FEFF 		bl	nodeRef1_main_startMessageServices
 108:C:/data/workspaces/github/de.protos.demos/src/HexagonCANDemo/etrice.HexagonCANDemo.demo/src-gen-st/HexagonCANDemo\nodeRef1_main.c **** 	ET_MSC_LOGGER_SYNC_EXIT
 109:C:/data/workspaces/github/de.protos.demos/src/HexagonCANDemo/etrice.HexagonCANDemo.demo/src-gen-st/HexagonCANDemo\nodeRef1_main.c **** }
 735              		.loc 2 109 0
 736 0020 80BD     		pop	{r7, pc}
 737              		.cfi_endproc
 738              	.LFE7:
 740 0022 00BF     		.section	.rodata
 741 010d 000000   		.align	2
 742              	.LC4:
 743 0110 74797065 		.ascii	"type quit to exit\000"
 743      20717569 
 743      7420746F 
 743      20657869 
 743      7400
 744 0122 0000     		.align	2
 745              	.LC5:
 746 0124 71756974 		.ascii	"quit\000"
 746      00
 747              		.section	.text.nodeRef1_main_run,"ax",%progbits
 748              		.align	2
 749              		.global	nodeRef1_main_run
 750              		.thumb
 751              		.thumb_func
 753              	nodeRef1_main_run:
 754              	.LFB8:
 110:C:/data/workspaces/github/de.protos.demos/src/HexagonCANDemo/etrice.HexagonCANDemo.demo/src-gen-st/HexagonCANDemo\nodeRef1_main.c **** 
 111:C:/data/workspaces/github/de.protos.demos/src/HexagonCANDemo/etrice.HexagonCANDemo.demo/src-gen-st/HexagonCANDemo\nodeRef1_main.c **** void nodeRef1_main_run(etBool runAsTest) {
 755              		.loc 2 111 0
 756              		.cfi_startproc
 757              		@ args = 0, pretend = 0, frame = 72
 758              		@ frame_needed = 1, uses_anonymous_args = 0
 759 0000 80B5     		push	{r7, lr}
 760              	.LCFI18:
 761              		.cfi_def_cfa_offset 8
 762              		.cfi_offset 7, -8
 763              		.cfi_offset 14, -4
 764 0002 92B0     		sub	sp, sp, #72
 765              	.LCFI19:
 766              		.cfi_def_cfa_offset 80
 767 0004 00AF     		add	r7, sp, #0
 768              	.LCFI20:
 769              		.cfi_def_cfa_register 7
 770 0006 0346     		mov	r3, r0
 771 0008 FB71     		strb	r3, [r7, #7]
 112:C:/data/workspaces/github/de.protos.demos/src/HexagonCANDemo/etrice.HexagonCANDemo.demo/src-gen-st/HexagonCANDemo\nodeRef1_main.c **** #ifdef ET_RUNNER_ACTIVATE 
 113:C:/data/workspaces/github/de.protos.demos/src/HexagonCANDemo/etrice.HexagonCANDemo.demo/src-gen-st/HexagonCANDemo\nodeRef1_main.c **** 	ET_MSC_LOGGER_SYNC_ENTRY("nodeRef1_main", "run")
 114:C:/data/workspaces/github/de.protos.demos/src/HexagonCANDemo/etrice.HexagonCANDemo.demo/src-gen-st/HexagonCANDemo\nodeRef1_main.c **** 	
 115:C:/data/workspaces/github/de.protos.demos/src/HexagonCANDemo/etrice.HexagonCANDemo.demo/src-gen-st/HexagonCANDemo\nodeRef1_main.c **** 	if (runAsTest) {
 772              		.loc 2 115 0
 773 000a FB79     		ldrb	r3, [r7, #7]	@ zero_extendqisi2
 774 000c 002B     		cmp	r3, #0
 775 000e 06D0     		beq	.L38
 116:C:/data/workspaces/github/de.protos.demos/src/HexagonCANDemo/etrice.HexagonCANDemo.demo/src-gen-st/HexagonCANDemo\nodeRef1_main.c **** 		etSema_waitForWakeup(etRuntime_getTerminateSemaphore());
 776              		.loc 2 116 0
 777 0010 FFF7FEFF 		bl	etRuntime_getTerminateSemaphore
 778 0014 0346     		mov	r3, r0
 779 0016 1846     		mov	r0, r3
 780 0018 FFF7FEFF 		bl	etSema_waitForWakeup
 781 001c 2FE0     		b	.L37
 782              	.L38:
 117:C:/data/workspaces/github/de.protos.demos/src/HexagonCANDemo/etrice.HexagonCANDemo.demo/src-gen-st/HexagonCANDemo\nodeRef1_main.c **** 	}
 118:C:/data/workspaces/github/de.protos.demos/src/HexagonCANDemo/etrice.HexagonCANDemo.demo/src-gen-st/HexagonCANDemo\nodeRef1_main.c **** 	else {
 119:C:/data/workspaces/github/de.protos.demos/src/HexagonCANDemo/etrice.HexagonCANDemo.demo/src-gen-st/HexagonCANDemo\nodeRef1_main.c **** 		printf("type quit to exit\n");
 783              		.loc 2 119 0
 784 001e 40F20000 		movw	r0, #:lower16:.LC4
 785 0022 C0F20000 		movt	r0, #:upper16:.LC4
 786 0026 FFF7FEFF 		bl	puts
 120:C:/data/workspaces/github/de.protos.demos/src/HexagonCANDemo/etrice.HexagonCANDemo.demo/src-gen-st/HexagonCANDemo\nodeRef1_main.c **** 		fflush(stdout);
 787              		.loc 2 120 0
 788 002a 40F20003 		movw	r3, #:lower16:_impure_ptr
 789 002e C0F20003 		movt	r3, #:upper16:_impure_ptr
 790 0032 1B68     		ldr	r3, [r3, #0]
 791 0034 9B68     		ldr	r3, [r3, #8]
 792 0036 1846     		mov	r0, r3
 793 0038 FFF7FEFF 		bl	fflush
 794 003c 00E0     		b	.L42
 795              	.L43:
 121:C:/data/workspaces/github/de.protos.demos/src/HexagonCANDemo/etrice.HexagonCANDemo.demo/src-gen-st/HexagonCANDemo\nodeRef1_main.c **** 		while (ET_TRUE) {
 122:C:/data/workspaces/github/de.protos.demos/src/HexagonCANDemo/etrice.HexagonCANDemo.demo/src-gen-st/HexagonCANDemo\nodeRef1_main.c **** 			char line[64];
 123:C:/data/workspaces/github/de.protos.demos/src/HexagonCANDemo/etrice.HexagonCANDemo.demo/src-gen-st/HexagonCANDemo\nodeRef1_main.c **** 
 124:C:/data/workspaces/github/de.protos.demos/src/HexagonCANDemo/etrice.HexagonCANDemo.demo/src-gen-st/HexagonCANDemo\nodeRef1_main.c **** 			if (fgets(line, 64, stdin) != NULL) {
 125:C:/data/workspaces/github/de.protos.demos/src/HexagonCANDemo/etrice.HexagonCANDemo.demo/src-gen-st/HexagonCANDemo\nodeRef1_main.c **** 				if (strncmp(line, "quit", 4)==0)
 126:C:/data/workspaces/github/de.protos.demos/src/HexagonCANDemo/etrice.HexagonCANDemo.demo/src-gen-st/HexagonCANDemo\nodeRef1_main.c **** 					break;
 127:C:/data/workspaces/github/de.protos.demos/src/HexagonCANDemo/etrice.HexagonCANDemo.demo/src-gen-st/HexagonCANDemo\nodeRef1_main.c **** 			}
 128:C:/data/workspaces/github/de.protos.demos/src/HexagonCANDemo/etrice.HexagonCANDemo.demo/src-gen-st/HexagonCANDemo\nodeRef1_main.c **** 		}
 796              		.loc 2 128 0
 797 003e 00BF     		nop
 798              	.L42:
 799              	.LBB3:
 124:C:/data/workspaces/github/de.protos.demos/src/HexagonCANDemo/etrice.HexagonCANDemo.demo/src-gen-st/HexagonCANDemo\nodeRef1_main.c **** 			if (fgets(line, 64, stdin) != NULL) {
 800              		.loc 2 124 0
 801 0040 40F20003 		movw	r3, #:lower16:_impure_ptr
 802 0044 C0F20003 		movt	r3, #:upper16:_impure_ptr
 803 0048 1B68     		ldr	r3, [r3, #0]
 804 004a 5B68     		ldr	r3, [r3, #4]
 805 004c 07F10802 		add	r2, r7, #8
 806 0050 1046     		mov	r0, r2
 807 0052 4FF04001 		mov	r1, #64
 808 0056 1A46     		mov	r2, r3
 809 0058 FFF7FEFF 		bl	fgets
 810 005c 0346     		mov	r3, r0
 811 005e 002B     		cmp	r3, #0
 812 0060 EDD0     		beq	.L43
 125:C:/data/workspaces/github/de.protos.demos/src/HexagonCANDemo/etrice.HexagonCANDemo.demo/src-gen-st/HexagonCANDemo\nodeRef1_main.c **** 				if (strncmp(line, "quit", 4)==0)
 813              		.loc 2 125 0
 814 0062 07F10803 		add	r3, r7, #8
 815 0066 1846     		mov	r0, r3
 816 0068 40F20001 		movw	r1, #:lower16:.LC5
 817 006c C0F20001 		movt	r1, #:upper16:.LC5
 818 0070 4FF00402 		mov	r2, #4
 819 0074 FFF7FEFF 		bl	strncmp
 820 0078 0346     		mov	r3, r0
 821 007a 002B     		cmp	r3, #0
 822 007c DFD1     		bne	.L43
 823              	.L37:
 824              	.LBE3:
 129:C:/data/workspaces/github/de.protos.demos/src/HexagonCANDemo/etrice.HexagonCANDemo.demo/src-gen-st/HexagonCANDemo\nodeRef1_main.c **** 	}
 130:C:/data/workspaces/github/de.protos.demos/src/HexagonCANDemo/etrice.HexagonCANDemo.demo/src-gen-st/HexagonCANDemo\nodeRef1_main.c **** 	
 131:C:/data/workspaces/github/de.protos.demos/src/HexagonCANDemo/etrice.HexagonCANDemo.demo/src-gen-st/HexagonCANDemo\nodeRef1_main.c **** 	ET_MSC_LOGGER_SYNC_EXIT
 132:C:/data/workspaces/github/de.protos.demos/src/HexagonCANDemo/etrice.HexagonCANDemo.demo/src-gen-st/HexagonCANDemo\nodeRef1_main.c **** #endif	
 133:C:/data/workspaces/github/de.protos.demos/src/HexagonCANDemo/etrice.HexagonCANDemo.demo/src-gen-st/HexagonCANDemo\nodeRef1_main.c **** }
 825              		.loc 2 133 0
 826 007e 07F14807 		add	r7, r7, #72
 827 0082 BD46     		mov	sp, r7
 828 0084 80BD     		pop	{r7, pc}
 829              		.cfi_endproc
 830              	.LFE8:
 832 0086 00BF     		.section	.rodata
 833 0129 000000   		.align	2
 834              	.LC6:
 835 012c 25735F73 		.ascii	"%s_stop\000"
 835      746F7000 
 836              		.section	.text.nodeRef1_main_stop,"ax",%progbits
 837              		.align	2
 838              		.global	nodeRef1_main_stop
 839              		.thumb
 840              		.thumb_func
 842              	nodeRef1_main_stop:
 843              	.LFB9:
 134:C:/data/workspaces/github/de.protos.demos/src/HexagonCANDemo/etrice.HexagonCANDemo.demo/src-gen-st/HexagonCANDemo\nodeRef1_main.c **** 
 135:C:/data/workspaces/github/de.protos.demos/src/HexagonCANDemo/etrice.HexagonCANDemo.demo/src-gen-st/HexagonCANDemo\nodeRef1_main.c **** void nodeRef1_main_stop(void){
 844              		.loc 2 135 0
 845              		.cfi_startproc
 846              		@ args = 0, pretend = 0, frame = 0
 847              		@ frame_needed = 1, uses_anonymous_args = 0
 848 0000 80B5     		push	{r7, lr}
 849              	.LCFI21:
 850              		.cfi_def_cfa_offset 8
 851              		.cfi_offset 7, -8
 852              		.cfi_offset 14, -4
 853 0002 00AF     		add	r7, sp, #0
 854              	.LCFI22:
 855              		.cfi_def_cfa_register 7
 136:C:/data/workspaces/github/de.protos.demos/src/HexagonCANDemo/etrice.HexagonCANDemo.demo/src-gen-st/HexagonCANDemo\nodeRef1_main.c **** 	ET_MSC_LOGGER_SYNC_ENTRY("nodeRef1_main", "stop")
 137:C:/data/workspaces/github/de.protos.demos/src/HexagonCANDemo/etrice.HexagonCANDemo.demo/src-gen-st/HexagonCANDemo\nodeRef1_main.c **** 	etLogger_logInfoF("%s_stop", nodeRef1_mainInst.name);
 856              		.loc 2 137 0
 857 0004 40F20003 		movw	r3, #:lower16:nodeRef1_mainInst
 858 0008 C0F20003 		movt	r3, #:upper16:nodeRef1_mainInst
 859 000c 1B68     		ldr	r3, [r3, #0]
 860 000e 40F20000 		movw	r0, #:lower16:.LC6
 861 0012 C0F20000 		movt	r0, #:upper16:.LC6
 862 0016 1946     		mov	r1, r3
 863 0018 FFF7FEFF 		bl	etLogger_logInfoF
 138:C:/data/workspaces/github/de.protos.demos/src/HexagonCANDemo/etrice.HexagonCANDemo.demo/src-gen-st/HexagonCANDemo\nodeRef1_main.c **** 
 139:C:/data/workspaces/github/de.protos.demos/src/HexagonCANDemo/etrice.HexagonCANDemo.demo/src-gen-st/HexagonCANDemo\nodeRef1_main.c **** 	nodeRef1_main_stopMessageServices();
 864              		.loc 2 139 0
 865 001c FFF7FEFF 		bl	nodeRef1_main_stopMessageServices
 140:C:/data/workspaces/github/de.protos.demos/src/HexagonCANDemo/etrice.HexagonCANDemo.demo/src-gen-st/HexagonCANDemo\nodeRef1_main.c **** 	
 141:C:/data/workspaces/github/de.protos.demos/src/HexagonCANDemo/etrice.HexagonCANDemo.demo/src-gen-st/HexagonCANDemo\nodeRef1_main.c **** 	ET_MSC_LOGGER_SYNC_EXIT
 142:C:/data/workspaces/github/de.protos.demos/src/HexagonCANDemo/etrice.HexagonCANDemo.demo/src-gen-st/HexagonCANDemo\nodeRef1_main.c **** }
 866              		.loc 2 142 0
 867 0020 80BD     		pop	{r7, pc}
 868              		.cfi_endproc
 869              	.LFE9:
 871 0022 00BF     		.section	.rodata
 872              		.align	2
 873              	.LC7:
 874 0134 25735F64 		.ascii	"%s_destroy\000"
 874      65737472 
 874      6F7900
 875              		.section	.text.nodeRef1_main_destroy,"ax",%progbits
 876              		.align	2
 877              		.global	nodeRef1_main_destroy
 878              		.thumb
 879              		.thumb_func
 881              	nodeRef1_main_destroy:
 882              	.LFB10:
 143:C:/data/workspaces/github/de.protos.demos/src/HexagonCANDemo/etrice.HexagonCANDemo.demo/src-gen-st/HexagonCANDemo\nodeRef1_main.c **** 
 144:C:/data/workspaces/github/de.protos.demos/src/HexagonCANDemo/etrice.HexagonCANDemo.demo/src-gen-st/HexagonCANDemo\nodeRef1_main.c **** void nodeRef1_main_destroy(void){
 883              		.loc 2 144 0
 884              		.cfi_startproc
 885              		@ args = 0, pretend = 0, frame = 0
 886              		@ frame_needed = 1, uses_anonymous_args = 0
 887 0000 80B5     		push	{r7, lr}
 888              	.LCFI23:
 889              		.cfi_def_cfa_offset 8
 890              		.cfi_offset 7, -8
 891              		.cfi_offset 14, -4
 892 0002 00AF     		add	r7, sp, #0
 893              	.LCFI24:
 894              		.cfi_def_cfa_register 7
 145:C:/data/workspaces/github/de.protos.demos/src/HexagonCANDemo/etrice.HexagonCANDemo.demo/src-gen-st/HexagonCANDemo\nodeRef1_main.c **** 	ET_MSC_LOGGER_SYNC_ENTRY("nodeRef1_main", "destroy")
 146:C:/data/workspaces/github/de.protos.demos/src/HexagonCANDemo/etrice.HexagonCANDemo.demo/src-gen-st/HexagonCANDemo\nodeRef1_main.c **** 	etLogger_logInfoF("%s_destroy", nodeRef1_mainInst.name);
 895              		.loc 2 146 0
 896 0004 40F20003 		movw	r3, #:lower16:nodeRef1_mainInst
 897 0008 C0F20003 		movt	r3, #:upper16:nodeRef1_mainInst
 898 000c 1B68     		ldr	r3, [r3, #0]
 899 000e 40F20000 		movw	r0, #:lower16:.LC7
 900 0012 C0F20000 		movt	r0, #:upper16:.LC7
 901 0016 1946     		mov	r1, r3
 902 0018 FFF7FEFF 		bl	etLogger_logInfoF
 147:C:/data/workspaces/github/de.protos.demos/src/HexagonCANDemo/etrice.HexagonCANDemo.demo/src-gen-st/HexagonCANDemo\nodeRef1_main.c **** 	
 148:C:/data/workspaces/github/de.protos.demos/src/HexagonCANDemo/etrice.HexagonCANDemo.demo/src-gen-st/HexagonCANDemo\nodeRef1_main.c **** 	nodeRef1_main_destroyMessageServices();
 903              		.loc 2 148 0
 904 001c FFF7FEFF 		bl	nodeRef1_main_destroyMessageServices
 149:C:/data/workspaces/github/de.protos.demos/src/HexagonCANDemo/etrice.HexagonCANDemo.demo/src-gen-st/HexagonCANDemo\nodeRef1_main.c **** 	
 150:C:/data/workspaces/github/de.protos.demos/src/HexagonCANDemo/etrice.HexagonCANDemo.demo/src-gen-st/HexagonCANDemo\nodeRef1_main.c **** 	ET_MSC_LOGGER_SYNC_EXIT
 151:C:/data/workspaces/github/de.protos.demos/src/HexagonCANDemo/etrice.HexagonCANDemo.demo/src-gen-st/HexagonCANDemo\nodeRef1_main.c **** }
 905              		.loc 2 151 0
 906 0020 80BD     		pop	{r7, pc}
 907              		.cfi_endproc
 908              	.LFE10:
 910 0022 00BF     		.section	.rodata
 911 013f 00       		.align	2
 912              	.LC8:
 913 0140 25735F73 		.ascii	"%s_shutdown\000"
 913      68757464 
 913      6F776E00 
 914              		.section	.text.nodeRef1_main_shutdown,"ax",%progbits
 915              		.align	2
 916              		.global	nodeRef1_main_shutdown
 917              		.thumb
 918              		.thumb_func
 920              	nodeRef1_main_shutdown:
 921              	.LFB11:
 152:C:/data/workspaces/github/de.protos.demos/src/HexagonCANDemo/etrice.HexagonCANDemo.demo/src-gen-st/HexagonCANDemo\nodeRef1_main.c **** 
 153:C:/data/workspaces/github/de.protos.demos/src/HexagonCANDemo/etrice.HexagonCANDemo.demo/src-gen-st/HexagonCANDemo\nodeRef1_main.c **** void nodeRef1_main_shutdown(void){
 922              		.loc 2 153 0
 923              		.cfi_startproc
 924              		@ args = 0, pretend = 0, frame = 0
 925              		@ frame_needed = 1, uses_anonymous_args = 0
 926 0000 80B5     		push	{r7, lr}
 927              	.LCFI25:
 928              		.cfi_def_cfa_offset 8
 929              		.cfi_offset 7, -8
 930              		.cfi_offset 14, -4
 931 0002 00AF     		add	r7, sp, #0
 932              	.LCFI26:
 933              		.cfi_def_cfa_register 7
 154:C:/data/workspaces/github/de.protos.demos/src/HexagonCANDemo/etrice.HexagonCANDemo.demo/src-gen-st/HexagonCANDemo\nodeRef1_main.c **** 	ET_MSC_LOGGER_SYNC_ENTRY("nodeRef1_main", "shutdown")
 155:C:/data/workspaces/github/de.protos.demos/src/HexagonCANDemo/etrice.HexagonCANDemo.demo/src-gen-st/HexagonCANDemo\nodeRef1_main.c **** 	etLogger_logInfoF("%s_shutdown", nodeRef1_mainInst.name);
 934              		.loc 2 155 0
 935 0004 40F20003 		movw	r3, #:lower16:nodeRef1_mainInst
 936 0008 C0F20003 		movt	r3, #:upper16:nodeRef1_mainInst
 937 000c 1B68     		ldr	r3, [r3, #0]
 938 000e 40F20000 		movw	r0, #:lower16:.LC8
 939 0012 C0F20000 		movt	r0, #:upper16:.LC8
 940 0016 1946     		mov	r1, r3
 941 0018 FFF7FEFF 		bl	etLogger_logInfoF
 156:C:/data/workspaces/github/de.protos.demos/src/HexagonCANDemo/etrice.HexagonCANDemo.demo/src-gen-st/HexagonCANDemo\nodeRef1_main.c **** 	
 157:C:/data/workspaces/github/de.protos.demos/src/HexagonCANDemo/etrice.HexagonCANDemo.demo/src-gen-st/HexagonCANDemo\nodeRef1_main.c **** 	nodeRef1_mainInst.shutdownRequest = 1;
 942              		.loc 2 157 0
 943 001c 40F20003 		movw	r3, #:lower16:nodeRef1_mainInst
 944 0020 C0F20003 		movt	r3, #:upper16:nodeRef1_mainInst
 945 0024 4FF00102 		mov	r2, #1
 946 0028 5A60     		str	r2, [r3, #4]
 158:C:/data/workspaces/github/de.protos.demos/src/HexagonCANDemo/etrice.HexagonCANDemo.demo/src-gen-st/HexagonCANDemo\nodeRef1_main.c **** 	
 159:C:/data/workspaces/github/de.protos.demos/src/HexagonCANDemo/etrice.HexagonCANDemo.demo/src-gen-st/HexagonCANDemo\nodeRef1_main.c **** 	ET_MSC_LOGGER_SYNC_EXIT
 160:C:/data/workspaces/github/de.protos.demos/src/HexagonCANDemo/etrice.HexagonCANDemo.demo/src-gen-st/HexagonCANDemo\nodeRef1_main.c **** }
 947              		.loc 2 160 0
 948 002a 80BD     		pop	{r7, pc}
 949              		.cfi_endproc
 950              	.LFE11:
 952              		.section	.text.nodeRef1_main_constructActorInstances,"ax",%progbits
 953              		.align	2
 954              		.thumb
 955              		.thumb_func
 957              	nodeRef1_main_constructActorInstances:
 958              	.LFB12:
 161:C:/data/workspaces/github/de.protos.demos/src/HexagonCANDemo/etrice.HexagonCANDemo.demo/src-gen-st/HexagonCANDemo\nodeRef1_main.c **** 
 162:C:/data/workspaces/github/de.protos.demos/src/HexagonCANDemo/etrice.HexagonCANDemo.demo/src-gen-st/HexagonCANDemo\nodeRef1_main.c **** 
 163:C:/data/workspaces/github/de.protos.demos/src/HexagonCANDemo/etrice.HexagonCANDemo.demo/src-gen-st/HexagonCANDemo\nodeRef1_main.c **** static void nodeRef1_main_constructActorInstances(void){
 959              		.loc 2 163 0
 960              		.cfi_startproc
 961              		@ args = 0, pretend = 0, frame = 0
 962              		@ frame_needed = 1, uses_anonymous_args = 0
 963              		@ link register save eliminated.
 964 0000 80B4     		push	{r7}
 965              	.LCFI27:
 966              		.cfi_def_cfa_offset 4
 967              		.cfi_offset 7, -4
 968 0002 00AF     		add	r7, sp, #0
 969              	.LCFI28:
 970              		.cfi_def_cfa_register 7
 164:C:/data/workspaces/github/de.protos.demos/src/HexagonCANDemo/etrice.HexagonCANDemo.demo/src-gen-st/HexagonCANDemo\nodeRef1_main.c **** 	ET_MSC_LOGGER_SYNC_ENTRY("nodeRef1_main", "constructActorInstances")
 165:C:/data/workspaces/github/de.protos.demos/src/HexagonCANDemo/etrice.HexagonCANDemo.demo/src-gen-st/HexagonCANDemo\nodeRef1_main.c **** 	
 166:C:/data/workspaces/github/de.protos.demos/src/HexagonCANDemo/etrice.HexagonCANDemo.demo/src-gen-st/HexagonCANDemo\nodeRef1_main.c **** 	
 167:C:/data/workspaces/github/de.protos.demos/src/HexagonCANDemo/etrice.HexagonCANDemo.demo/src-gen-st/HexagonCANDemo\nodeRef1_main.c **** 	ET_MSC_LOGGER_SYNC_EXIT
 168:C:/data/workspaces/github/de.protos.demos/src/HexagonCANDemo/etrice.HexagonCANDemo.demo/src-gen-st/HexagonCANDemo\nodeRef1_main.c **** }
 971              		.loc 2 168 0
 972 0004 BD46     		mov	sp, r7
 973 0006 80BC     		pop	{r7}
 974 0008 7047     		bx	lr
 975              		.cfi_endproc
 976              	.LFE12:
 978 000a 00BF     		.section	.text.nodeRef1_main_initActorInstances,"ax",%progbits
 979              		.align	2
 980              		.thumb
 981              		.thumb_func
 983              	nodeRef1_main_initActorInstances:
 984              	.LFB13:
 169:C:/data/workspaces/github/de.protos.demos/src/HexagonCANDemo/etrice.HexagonCANDemo.demo/src-gen-st/HexagonCANDemo\nodeRef1_main.c **** 
 170:C:/data/workspaces/github/de.protos.demos/src/HexagonCANDemo/etrice.HexagonCANDemo.demo/src-gen-st/HexagonCANDemo\nodeRef1_main.c **** static void nodeRef1_main_initActorInstances(void){
 985              		.loc 2 170 0
 986              		.cfi_startproc
 987              		@ args = 0, pretend = 0, frame = 0
 988              		@ frame_needed = 1, uses_anonymous_args = 0
 989 0000 80B5     		push	{r7, lr}
 990              	.LCFI29:
 991              		.cfi_def_cfa_offset 8
 992              		.cfi_offset 7, -8
 993              		.cfi_offset 14, -4
 994 0002 00AF     		add	r7, sp, #0
 995              	.LCFI30:
 996              		.cfi_def_cfa_register 7
 171:C:/data/workspaces/github/de.protos.demos/src/HexagonCANDemo/etrice.HexagonCANDemo.demo/src-gen-st/HexagonCANDemo\nodeRef1_main.c **** 	ET_MSC_LOGGER_SYNC_ENTRY("nodeRef1_main", "initActorInstances")
 172:C:/data/workspaces/github/de.protos.demos/src/HexagonCANDemo/etrice.HexagonCANDemo.demo/src-gen-st/HexagonCANDemo\nodeRef1_main.c **** 	
 173:C:/data/workspaces/github/de.protos.demos/src/HexagonCANDemo/etrice.HexagonCANDemo.demo/src-gen-st/HexagonCANDemo\nodeRef1_main.c **** 	Application_init(&_HexagonCANDemo_main_appl);
 997              		.loc 2 173 0
 998 0004 40F20000 		movw	r0, #:lower16:_HexagonCANDemo_main_appl
 999 0008 C0F20000 		movt	r0, #:upper16:_HexagonCANDemo_main_appl
 1000 000c FFF7FEFF 		bl	Application_init
 174:C:/data/workspaces/github/de.protos.demos/src/HexagonCANDemo/etrice.HexagonCANDemo.demo/src-gen-st/HexagonCANDemo\nodeRef1_main.c **** 	AMrPing_init(&_HexagonCANDemo_main_appl_mrPing);
 1001              		.loc 2 174 0
 1002 0010 40F20000 		movw	r0, #:lower16:_HexagonCANDemo_main_appl_mrPing
 1003 0014 C0F20000 		movt	r0, #:upper16:_HexagonCANDemo_main_appl_mrPing
 1004 0018 FFF7FEFF 		bl	AMrPing_init
 175:C:/data/workspaces/github/de.protos.demos/src/HexagonCANDemo/etrice.HexagonCANDemo.demo/src-gen-st/HexagonCANDemo\nodeRef1_main.c **** 	AMrPong_init(&_HexagonCANDemo_main_appl_mrPong);
 1005              		.loc 2 175 0
 1006 001c 40F20000 		movw	r0, #:lower16:_HexagonCANDemo_main_appl_mrPong
 1007 0020 C0F20000 		movt	r0, #:upper16:_HexagonCANDemo_main_appl_mrPong
 1008 0024 FFF7FEFF 		bl	AMrPong_init
 176:C:/data/workspaces/github/de.protos.demos/src/HexagonCANDemo/etrice.HexagonCANDemo.demo/src-gen-st/HexagonCANDemo\nodeRef1_main.c **** 	ATimingService_init(&_HexagonCANDemo_main_timingService);
 1009              		.loc 2 176 0
 1010 0028 40F20000 		movw	r0, #:lower16:_HexagonCANDemo_main_timingService
 1011 002c C0F20000 		movt	r0, #:upper16:_HexagonCANDemo_main_timingService
 1012 0030 FFF7FEFF 		bl	ATimingService_init
 177:C:/data/workspaces/github/de.protos.demos/src/HexagonCANDemo/etrice.HexagonCANDemo.demo/src-gen-st/HexagonCANDemo\nodeRef1_main.c **** 	ACANService_init(&_HexagonCANDemo_main_canService);
 1013              		.loc 2 177 0
 1014 0034 40F20000 		movw	r0, #:lower16:_HexagonCANDemo_main_canService
 1015 0038 C0F20000 		movt	r0, #:upper16:_HexagonCANDemo_main_canService
 1016 003c FFF7FEFF 		bl	ACANService_init
 178:C:/data/workspaces/github/de.protos.demos/src/HexagonCANDemo/etrice.HexagonCANDemo.demo/src-gen-st/HexagonCANDemo\nodeRef1_main.c **** 	
 179:C:/data/workspaces/github/de.protos.demos/src/HexagonCANDemo/etrice.HexagonCANDemo.demo/src-gen-st/HexagonCANDemo\nodeRef1_main.c **** 	ET_MSC_LOGGER_SYNC_EXIT
 180:C:/data/workspaces/github/de.protos.demos/src/HexagonCANDemo/etrice.HexagonCANDemo.demo/src-gen-st/HexagonCANDemo\nodeRef1_main.c **** }
 1017              		.loc 2 180 0
 1018 0040 80BD     		pop	{r7, pc}
 1019              		.cfi_endproc
 1020              	.LFE13:
 1022 0042 00BF     		.text
 1023              	.Letext0:
 1024              		.file 3 "c:\\dave-3.1.10\\arm-gcc\\bin\\../lib/gcc/arm-none-eabi/4.7.4/../../../../arm-none-eabi/i
 1025              		.file 4 "c:\\dave-3.1.10\\arm-gcc\\bin\\../lib/gcc/arm-none-eabi/4.7.4/../../../../arm-none-eabi/i
 1026              		.file 5 "c:\\dave-3.1.10\\arm-gcc\\bin\\../lib/gcc/arm-none-eabi/4.7.4/include/stddef.h"
 1027              		.file 6 "c:\\dave-3.1.10\\arm-gcc\\bin\\../lib/gcc/arm-none-eabi/4.7.4/../../../../arm-none-eabi/i
 1028              		.file 7 "C:\\data\\workspaces\\github\\de.protos.demos\\src\\HexagonCANDemo\\etrice.runtime.c\\etR
 1029              		.file 8 "C:\\data\\workspaces\\github\\de.protos.demos\\src\\HexagonCANDemo\\etrice.runtime.c\\etR
 1030              		.file 9 "C:\\data\\workspaces\\github\\de.protos.demos\\src\\HexagonCANDemo\\etrice.runtime.c\\etR
 1031              		.file 10 "C:\\data\\workspaces\\github\\de.protos.demos\\src\\HexagonCANDemo\\etrice.runtime.c\\et
 1032              		.file 11 "C:\\data\\workspaces\\github\\de.protos.demos\\src\\HexagonCANDemo\\etrice.runtime.c\\et
 1033              		.file 12 "C:\\data\\workspaces\\github\\de.protos.demos\\src\\HexagonCANDemo\\etrice.runtime.c\\et
 1034              		.file 13 "C:\\data\\workspaces\\github\\de.protos.demos\\src\\HexagonCANDemo\\etrice.runtime.c\\et
 1035              		.file 14 "C:\\data\\workspaces\\github\\de.protos.demos\\src\\HexagonCANDemo\\etrice.runtime.c\\et
 1036              		.file 15 "C:\\data\\workspaces\\github\\de.protos.demos\\src\\HexagonCANDemo\\etrice.runtime.c\\et
 1037              		.file 16 "C:\\data\\workspaces\\github\\de.protos.demos\\src\\HexagonCANDemo\\etrice.runtime.c\\et
 1038              		.file 17 "C:\\data\\workspaces\\github\\de.protos.demos\\src\\HexagonCANDemo\\etrice.runtime.c\\et
 1039              		.file 18 "C:\\data\\workspaces\\github\\de.protos.demos\\src\\HexagonCANDemo\\etrice.runtime.c\\et
 1040              		.file 19 "C:\\data\\workspaces\\github\\de.protos.demos\\src\\HexagonCANDemo\\etrice.HexagonCANDem
 1041              		.file 20 "C:\\data\\workspaces\\github\\de.protos.demos\\src\\HexagonCANDemo\\etrice.HexagonCANDem
 1042              		.file 21 "C:\\data\\workspaces\\github\\de.protos.demos\\src\\HexagonCANDemo\\etrice.HexagonCANDem
 1043              		.file 22 "C:\\data\\workspaces\\github\\de.protos.demos\\src\\HexagonCANDemo\\etrice.HexagonCANDem
 1044              		.file 23 "C:\\data\\workspaces\\github\\de.protos.demos\\src\\HexagonCANDemo\\etrice.HexagonCANDem
 1045              		.file 24 "C:\\data\\workspaces\\github\\de.protos.demos\\src\\HexagonCANDemo\\etrice.HexagonCANDem
 1046              		.file 25 "C:\\data\\workspaces\\github\\de.protos.demos\\src\\HexagonCANDemo\\etrice.HexagonCANDem
 1047              		.file 26 "C:\\data\\workspaces\\github\\de.protos.demos\\src\\HexagonCANDemo\\etrice.HexagonCANDem
 1048              		.file 27 "C:\\data\\workspaces\\github\\de.protos.demos\\src\\HexagonCANDemo\\etrice.HexagonCANDem
 1049              		.file 28 "C:\\data\\workspaces\\github\\de.protos.demos\\src\\HexagonCANDemo\\etrice.HexagonCANDem
 1050              		.file 29 "C:/data/workspaces/github/de.protos.demos/src/HexagonCANDemo/etrice.HexagonCANDemo.demo/