   1              		.cpu cortex-m0
   2              		.fpu softvfp
   3              		.eabi_attribute 20, 1
   4              		.eabi_attribute 21, 1
   5              		.eabi_attribute 23, 3
   6              		.eabi_attribute 24, 1
   7              		.eabi_attribute 25, 1
   8              		.eabi_attribute 26, 1
   9              		.eabi_attribute 30, 6
  10              		.eabi_attribute 34, 0
  11              		.eabi_attribute 18, 4
  12              		.code	16
  13              		.file	"ADimmer.c"
  14              		.text
  15              	.Ltext0:
  16              		.cfi_sections	.debug_frame
  17              		.section	.text.setState,"ax",%progbits
  18              		.align	2
  19              		.code	16
  20              		.thumb_func
  22              	setState:
  23              	.LFB33:
  24              		.file 1 "C:/data/workspaces/github/de.protos.demos/src/XMC2GoBlinky/etrice.XMC2GoBlinky.demo/src-g
   1:C:/data/workspaces/github/de.protos.demos/src/XMC2GoBlinky/etrice.XMC2GoBlinky.demo/src-gen-st/XMC2GoDemoModel\ADimmer.c **** /**
   2:C:/data/workspaces/github/de.protos.demos/src/XMC2GoBlinky/etrice.XMC2GoBlinky.demo/src-gen-st/XMC2GoDemoModel\ADimmer.c ****  * @author generated by eTrice
   3:C:/data/workspaces/github/de.protos.demos/src/XMC2GoBlinky/etrice.XMC2GoBlinky.demo/src-gen-st/XMC2GoDemoModel\ADimmer.c ****  *
   4:C:/data/workspaces/github/de.protos.demos/src/XMC2GoBlinky/etrice.XMC2GoBlinky.demo/src-gen-st/XMC2GoDemoModel\ADimmer.c ****  * Source File of ActorClass ADimmer
   5:C:/data/workspaces/github/de.protos.demos/src/XMC2GoBlinky/etrice.XMC2GoBlinky.demo/src-gen-st/XMC2GoDemoModel\ADimmer.c ****  * 
   6:C:/data/workspaces/github/de.protos.demos/src/XMC2GoBlinky/etrice.XMC2GoBlinky.demo/src-gen-st/XMC2GoDemoModel\ADimmer.c ****  */
   7:C:/data/workspaces/github/de.protos.demos/src/XMC2GoBlinky/etrice.XMC2GoBlinky.demo/src-gen-st/XMC2GoDemoModel\ADimmer.c **** 
   8:C:/data/workspaces/github/de.protos.demos/src/XMC2GoBlinky/etrice.XMC2GoBlinky.demo/src-gen-st/XMC2GoDemoModel\ADimmer.c **** #include "ADimmer.h"
   9:C:/data/workspaces/github/de.protos.demos/src/XMC2GoBlinky/etrice.XMC2GoBlinky.demo/src-gen-st/XMC2GoDemoModel\ADimmer.c **** 
  10:C:/data/workspaces/github/de.protos.demos/src/XMC2GoBlinky/etrice.XMC2GoBlinky.demo/src-gen-st/XMC2GoDemoModel\ADimmer.c **** #include "modelbase/etActor.h"
  11:C:/data/workspaces/github/de.protos.demos/src/XMC2GoBlinky/etrice.XMC2GoBlinky.demo/src-gen-st/XMC2GoDemoModel\ADimmer.c **** #include "debugging/etLogger.h"
  12:C:/data/workspaces/github/de.protos.demos/src/XMC2GoBlinky/etrice.XMC2GoBlinky.demo/src-gen-st/XMC2GoDemoModel\ADimmer.c **** #include "debugging/etMSCLogger.h"
  13:C:/data/workspaces/github/de.protos.demos/src/XMC2GoBlinky/etrice.XMC2GoBlinky.demo/src-gen-st/XMC2GoDemoModel\ADimmer.c **** #include "etUnit/etUnit.h"
  14:C:/data/workspaces/github/de.protos.demos/src/XMC2GoBlinky/etrice.XMC2GoBlinky.demo/src-gen-st/XMC2GoDemoModel\ADimmer.c **** #include "base/etMemory.h"
  15:C:/data/workspaces/github/de.protos.demos/src/XMC2GoBlinky/etrice.XMC2GoBlinky.demo/src-gen-st/XMC2GoDemoModel\ADimmer.c **** 
  16:C:/data/workspaces/github/de.protos.demos/src/XMC2GoBlinky/etrice.XMC2GoBlinky.demo/src-gen-st/XMC2GoDemoModel\ADimmer.c **** #include "room/basic/service/timing/PTimer.h"
  17:C:/data/workspaces/github/de.protos.demos/src/XMC2GoBlinky/etrice.XMC2GoBlinky.demo/src-gen-st/XMC2GoDemoModel\ADimmer.c **** #include "DaveInterface/PWMSP001.h"
  18:C:/data/workspaces/github/de.protos.demos/src/XMC2GoBlinky/etrice.XMC2GoBlinky.demo/src-gen-st/XMC2GoDemoModel\ADimmer.c **** 
  19:C:/data/workspaces/github/de.protos.demos/src/XMC2GoBlinky/etrice.XMC2GoBlinky.demo/src-gen-st/XMC2GoDemoModel\ADimmer.c **** #include "ADimmer_Utils.h"
  20:C:/data/workspaces/github/de.protos.demos/src/XMC2GoBlinky/etrice.XMC2GoBlinky.demo/src-gen-st/XMC2GoDemoModel\ADimmer.c **** 
  21:C:/data/workspaces/github/de.protos.demos/src/XMC2GoBlinky/etrice.XMC2GoBlinky.demo/src-gen-st/XMC2GoDemoModel\ADimmer.c **** 
  22:C:/data/workspaces/github/de.protos.demos/src/XMC2GoBlinky/etrice.XMC2GoBlinky.demo/src-gen-st/XMC2GoDemoModel\ADimmer.c **** /* interface item IDs */
  23:C:/data/workspaces/github/de.protos.demos/src/XMC2GoBlinky/etrice.XMC2GoBlinky.demo/src-gen-st/XMC2GoDemoModel\ADimmer.c **** enum interface_items {
  24:C:/data/workspaces/github/de.protos.demos/src/XMC2GoBlinky/etrice.XMC2GoBlinky.demo/src-gen-st/XMC2GoDemoModel\ADimmer.c **** 	IFITEM_pwm = 1,
  25:C:/data/workspaces/github/de.protos.demos/src/XMC2GoBlinky/etrice.XMC2GoBlinky.demo/src-gen-st/XMC2GoDemoModel\ADimmer.c **** 	IFITEM_timer = 2
  26:C:/data/workspaces/github/de.protos.demos/src/XMC2GoBlinky/etrice.XMC2GoBlinky.demo/src-gen-st/XMC2GoDemoModel\ADimmer.c **** };
  27:C:/data/workspaces/github/de.protos.demos/src/XMC2GoBlinky/etrice.XMC2GoBlinky.demo/src-gen-st/XMC2GoDemoModel\ADimmer.c **** 
  28:C:/data/workspaces/github/de.protos.demos/src/XMC2GoBlinky/etrice.XMC2GoBlinky.demo/src-gen-st/XMC2GoDemoModel\ADimmer.c **** /* state IDs */
  29:C:/data/workspaces/github/de.protos.demos/src/XMC2GoBlinky/etrice.XMC2GoBlinky.demo/src-gen-st/XMC2GoDemoModel\ADimmer.c **** enum state_ids {
  30:C:/data/workspaces/github/de.protos.demos/src/XMC2GoBlinky/etrice.XMC2GoBlinky.demo/src-gen-st/XMC2GoDemoModel\ADimmer.c **** 	NO_STATE = 0,
  31:C:/data/workspaces/github/de.protos.demos/src/XMC2GoBlinky/etrice.XMC2GoBlinky.demo/src-gen-st/XMC2GoDemoModel\ADimmer.c **** 	STATE_TOP = 1,
  32:C:/data/workspaces/github/de.protos.demos/src/XMC2GoBlinky/etrice.XMC2GoBlinky.demo/src-gen-st/XMC2GoDemoModel\ADimmer.c **** 	STATE_goingOn = 2,
  33:C:/data/workspaces/github/de.protos.demos/src/XMC2GoBlinky/etrice.XMC2GoBlinky.demo/src-gen-st/XMC2GoDemoModel\ADimmer.c **** 	STATE_goingOff = 3,
  34:C:/data/workspaces/github/de.protos.demos/src/XMC2GoBlinky/etrice.XMC2GoBlinky.demo/src-gen-st/XMC2GoDemoModel\ADimmer.c **** 	STATE_off = 4,
  35:C:/data/workspaces/github/de.protos.demos/src/XMC2GoBlinky/etrice.XMC2GoBlinky.demo/src-gen-st/XMC2GoDemoModel\ADimmer.c **** 	STATE_MAX = 5
  36:C:/data/workspaces/github/de.protos.demos/src/XMC2GoBlinky/etrice.XMC2GoBlinky.demo/src-gen-st/XMC2GoDemoModel\ADimmer.c **** };
  37:C:/data/workspaces/github/de.protos.demos/src/XMC2GoBlinky/etrice.XMC2GoBlinky.demo/src-gen-st/XMC2GoDemoModel\ADimmer.c **** 
  38:C:/data/workspaces/github/de.protos.demos/src/XMC2GoBlinky/etrice.XMC2GoBlinky.demo/src-gen-st/XMC2GoDemoModel\ADimmer.c **** /* transition chains */
  39:C:/data/workspaces/github/de.protos.demos/src/XMC2GoBlinky/etrice.XMC2GoBlinky.demo/src-gen-st/XMC2GoDemoModel\ADimmer.c **** enum chain_ids {
  40:C:/data/workspaces/github/de.protos.demos/src/XMC2GoBlinky/etrice.XMC2GoBlinky.demo/src-gen-st/XMC2GoDemoModel\ADimmer.c **** 	CHAIN_TRANS_INITIAL_TO__goingOn = 1,
  41:C:/data/workspaces/github/de.protos.demos/src/XMC2GoBlinky/etrice.XMC2GoBlinky.demo/src-gen-st/XMC2GoDemoModel\ADimmer.c **** 	CHAIN_TRANS_tr1_FROM_goingOn_TO_cp0_BY_timeouttimer = 2,
  42:C:/data/workspaces/github/de.protos.demos/src/XMC2GoBlinky/etrice.XMC2GoBlinky.demo/src-gen-st/XMC2GoDemoModel\ADimmer.c **** 	CHAIN_TRANS_tr3_FROM_goingOff_TO_cp1_BY_timeouttimer = 3,
  43:C:/data/workspaces/github/de.protos.demos/src/XMC2GoBlinky/etrice.XMC2GoBlinky.demo/src-gen-st/XMC2GoDemoModel\ADimmer.c **** 	CHAIN_TRANS_tr7_FROM_off_TO_cp2_BY_timeouttimer = 4
  44:C:/data/workspaces/github/de.protos.demos/src/XMC2GoBlinky/etrice.XMC2GoBlinky.demo/src-gen-st/XMC2GoDemoModel\ADimmer.c **** };
  45:C:/data/workspaces/github/de.protos.demos/src/XMC2GoBlinky/etrice.XMC2GoBlinky.demo/src-gen-st/XMC2GoDemoModel\ADimmer.c **** 
  46:C:/data/workspaces/github/de.protos.demos/src/XMC2GoBlinky/etrice.XMC2GoBlinky.demo/src-gen-st/XMC2GoDemoModel\ADimmer.c **** /* triggers */
  47:C:/data/workspaces/github/de.protos.demos/src/XMC2GoBlinky/etrice.XMC2GoBlinky.demo/src-gen-st/XMC2GoDemoModel\ADimmer.c **** enum triggers {
  48:C:/data/workspaces/github/de.protos.demos/src/XMC2GoBlinky/etrice.XMC2GoBlinky.demo/src-gen-st/XMC2GoDemoModel\ADimmer.c **** 	POLLING = 0,
  49:C:/data/workspaces/github/de.protos.demos/src/XMC2GoBlinky/etrice.XMC2GoBlinky.demo/src-gen-st/XMC2GoDemoModel\ADimmer.c **** 	TRIG_timer__timeout = IFITEM_timer + EVT_SHIFT*PTimer_OUT_timeout
  50:C:/data/workspaces/github/de.protos.demos/src/XMC2GoBlinky/etrice.XMC2GoBlinky.demo/src-gen-st/XMC2GoDemoModel\ADimmer.c **** };
  51:C:/data/workspaces/github/de.protos.demos/src/XMC2GoBlinky/etrice.XMC2GoBlinky.demo/src-gen-st/XMC2GoDemoModel\ADimmer.c **** 
  52:C:/data/workspaces/github/de.protos.demos/src/XMC2GoBlinky/etrice.XMC2GoBlinky.demo/src-gen-st/XMC2GoDemoModel\ADimmer.c **** 
  53:C:/data/workspaces/github/de.protos.demos/src/XMC2GoBlinky/etrice.XMC2GoBlinky.demo/src-gen-st/XMC2GoDemoModel\ADimmer.c **** static void setState(ADimmer* self, etInt16 new_state) {
  25              		.loc 1 53 0
  26              		.cfi_startproc
  27 0000 80B5     		push	{r7, lr}
  28              	.LCFI0:
  29              		.cfi_def_cfa_offset 8
  30              		.cfi_offset 7, -8
  31              		.cfi_offset 14, -4
  32 0002 82B0     		sub	sp, sp, #8
  33              	.LCFI1:
  34              		.cfi_def_cfa_offset 16
  35 0004 00AF     		add	r7, sp, #0
  36              	.LCFI2:
  37              		.cfi_def_cfa_register 7
  38 0006 7860     		str	r0, [r7, #4]
  39 0008 0A1C     		mov	r2, r1
  40 000a BB1C     		add	r3, r7, #2
  41 000c 1A80     		strh	r2, [r3]
  54:C:/data/workspaces/github/de.protos.demos/src/XMC2GoBlinky/etrice.XMC2GoBlinky.demo/src-gen-st/XMC2GoDemoModel\ADimmer.c **** 	self->state = new_state;
  42              		.loc 1 54 0
  43 000e 7B68     		ldr	r3, [r7, #4]
  44 0010 BA1C     		add	r2, r7, #2
  45 0012 1288     		ldrh	r2, [r2]
  46 0014 9A81     		strh	r2, [r3, #12]
  55:C:/data/workspaces/github/de.protos.demos/src/XMC2GoBlinky/etrice.XMC2GoBlinky.demo/src-gen-st/XMC2GoDemoModel\ADimmer.c **** }
  47              		.loc 1 55 0
  48 0016 BD46     		mov	sp, r7
  49 0018 02B0     		add	sp, sp, #8
  50              		@ sp needed for prologue
  51 001a 80BD     		pop	{r7, pc}
  52              		.cfi_endproc
  53              	.LFE33:
  55              		.section	.text.getState,"ax",%progbits
  56              		.align	2
  57              		.code	16
  58              		.thumb_func
  60              	getState:
  61              	.LFB34:
  56:C:/data/workspaces/github/de.protos.demos/src/XMC2GoBlinky/etrice.XMC2GoBlinky.demo/src-gen-st/XMC2GoDemoModel\ADimmer.c **** 
  57:C:/data/workspaces/github/de.protos.demos/src/XMC2GoBlinky/etrice.XMC2GoBlinky.demo/src-gen-st/XMC2GoDemoModel\ADimmer.c **** static etInt16 getState(ADimmer* self) {
  62              		.loc 1 57 0
  63              		.cfi_startproc
  64 0000 80B5     		push	{r7, lr}
  65              	.LCFI3:
  66              		.cfi_def_cfa_offset 8
  67              		.cfi_offset 7, -8
  68              		.cfi_offset 14, -4
  69 0002 82B0     		sub	sp, sp, #8
  70              	.LCFI4:
  71              		.cfi_def_cfa_offset 16
  72 0004 00AF     		add	r7, sp, #0
  73              	.LCFI5:
  74              		.cfi_def_cfa_register 7
  75 0006 7860     		str	r0, [r7, #4]
  58:C:/data/workspaces/github/de.protos.demos/src/XMC2GoBlinky/etrice.XMC2GoBlinky.demo/src-gen-st/XMC2GoDemoModel\ADimmer.c **** 	return self->state;
  76              		.loc 1 58 0
  77 0008 7B68     		ldr	r3, [r7, #4]
  78 000a 9B89     		ldrh	r3, [r3, #12]
  79 000c 1BB2     		sxth	r3, r3
  59:C:/data/workspaces/github/de.protos.demos/src/XMC2GoBlinky/etrice.XMC2GoBlinky.demo/src-gen-st/XMC2GoDemoModel\ADimmer.c **** }
  80              		.loc 1 59 0
  81 000e 181C     		mov	r0, r3
  82 0010 BD46     		mov	sp, r7
  83 0012 02B0     		add	sp, sp, #8
  84              		@ sp needed for prologue
  85 0014 80BD     		pop	{r7, pc}
  86              		.cfi_endproc
  87              	.LFE34:
  89 0016 C046     		.section	.text.action_TRANS_INITIAL_TO__goingOn,"ax",%progbits
  90              		.align	2
  91              		.code	16
  92              		.thumb_func
  94              	action_TRANS_INITIAL_TO__goingOn:
  95              	.LFB35:
  60:C:/data/workspaces/github/de.protos.demos/src/XMC2GoBlinky/etrice.XMC2GoBlinky.demo/src-gen-st/XMC2GoDemoModel\ADimmer.c **** 
  61:C:/data/workspaces/github/de.protos.demos/src/XMC2GoBlinky/etrice.XMC2GoBlinky.demo/src-gen-st/XMC2GoDemoModel\ADimmer.c **** /* Entry and Exit Codes */
  62:C:/data/workspaces/github/de.protos.demos/src/XMC2GoBlinky/etrice.XMC2GoBlinky.demo/src-gen-st/XMC2GoDemoModel\ADimmer.c **** 
  63:C:/data/workspaces/github/de.protos.demos/src/XMC2GoBlinky/etrice.XMC2GoBlinky.demo/src-gen-st/XMC2GoDemoModel\ADimmer.c **** /* Action Codes */
  64:C:/data/workspaces/github/de.protos.demos/src/XMC2GoBlinky/etrice.XMC2GoBlinky.demo/src-gen-st/XMC2GoDemoModel\ADimmer.c **** static void action_TRANS_INITIAL_TO__goingOn(ADimmer* self) {
  96              		.loc 1 64 0
  97              		.cfi_startproc
  98 0000 80B5     		push	{r7, lr}
  99              	.LCFI6:
 100              		.cfi_def_cfa_offset 8
 101              		.cfi_offset 7, -8
 102              		.cfi_offset 14, -4
 103 0002 82B0     		sub	sp, sp, #8
 104              	.LCFI7:
 105              		.cfi_def_cfa_offset 16
 106 0004 00AF     		add	r7, sp, #0
 107              	.LCFI8:
 108              		.cfi_def_cfa_register 7
 109 0006 7860     		str	r0, [r7, #4]
  65:C:/data/workspaces/github/de.protos.demos/src/XMC2GoBlinky/etrice.XMC2GoBlinky.demo/src-gen-st/XMC2GoDemoModel\ADimmer.c **** 	pwm_setInstance(instance);
 110              		.loc 1 65 0
 111 0008 7B68     		ldr	r3, [r7, #4]
 112 000a 1B68     		ldr	r3, [r3]
 113 000c 1A1C     		mov	r2, r3
 114 000e 7B68     		ldr	r3, [r7, #4]
 115 0010 9B68     		ldr	r3, [r3, #8]
 116 0012 101C     		mov	r0, r2
 117 0014 191C     		mov	r1, r3
 118 0016 FFF7FEFF 		bl	PWMSP001ConjPort_setInstance
  66:C:/data/workspaces/github/de.protos.demos/src/XMC2GoBlinky/etrice.XMC2GoBlinky.demo/src-gen-st/XMC2GoDemoModel\ADimmer.c **** 	//PWMSP001ConjPort_setInstance(&self->constData->pwm,0);
  67:C:/data/workspaces/github/de.protos.demos/src/XMC2GoBlinky/etrice.XMC2GoBlinky.demo/src-gen-st/XMC2GoDemoModel\ADimmer.c **** 	timer_startTimer(10);
 119              		.loc 1 67 0
 120 001a 7B68     		ldr	r3, [r7, #4]
 121 001c 1B68     		ldr	r3, [r3]
 122 001e 0C33     		add	r3, r3, #12
 123 0020 181C     		mov	r0, r3
 124 0022 0A21     		mov	r1, #10
 125 0024 FFF7FEFF 		bl	PTimerConjPort_startTimer
  68:C:/data/workspaces/github/de.protos.demos/src/XMC2GoBlinky/etrice.XMC2GoBlinky.demo/src-gen-st/XMC2GoDemoModel\ADimmer.c **** 	counter=0;
 126              		.loc 1 68 0
 127 0028 7B68     		ldr	r3, [r7, #4]
 128 002a 0022     		mov	r2, #0
 129 002c 1A71     		strb	r2, [r3, #4]
  69:C:/data/workspaces/github/de.protos.demos/src/XMC2GoBlinky/etrice.XMC2GoBlinky.demo/src-gen-st/XMC2GoDemoModel\ADimmer.c **** }
 130              		.loc 1 69 0
 131 002e BD46     		mov	sp, r7
 132 0030 02B0     		add	sp, sp, #8
 133              		@ sp needed for prologue
 134 0032 80BD     		pop	{r7, pc}
 135              		.cfi_endproc
 136              	.LFE35:
 138              		.section	.text.action_TRANS_tr2_FROM_cp0_TO_goingOn_COND_tr2,"ax",%progbits
 139              		.align	2
 140              		.code	16
 141              		.thumb_func
 143              	action_TRANS_tr2_FROM_cp0_TO_goingOn_COND_tr2:
 144              	.LFB36:
  70:C:/data/workspaces/github/de.protos.demos/src/XMC2GoBlinky/etrice.XMC2GoBlinky.demo/src-gen-st/XMC2GoDemoModel\ADimmer.c **** static void action_TRANS_tr2_FROM_cp0_TO_goingOn_COND_tr2(ADimmer* self, const InterfaceItemBase* i
 145              		.loc 1 70 0
 146              		.cfi_startproc
 147 0000 80B5     		push	{r7, lr}
 148              	.LCFI9:
 149              		.cfi_def_cfa_offset 8
 150              		.cfi_offset 7, -8
 151              		.cfi_offset 14, -4
 152 0002 82B0     		sub	sp, sp, #8
 153              	.LCFI10:
 154              		.cfi_def_cfa_offset 16
 155 0004 00AF     		add	r7, sp, #0
 156              	.LCFI11:
 157              		.cfi_def_cfa_register 7
 158 0006 7860     		str	r0, [r7, #4]
 159 0008 3960     		str	r1, [r7]
  71:C:/data/workspaces/github/de.protos.demos/src/XMC2GoBlinky/etrice.XMC2GoBlinky.demo/src-gen-st/XMC2GoDemoModel\ADimmer.c **** 	pwm_setDutyCycle(counter);
 160              		.loc 1 71 0
 161 000a 7B68     		ldr	r3, [r7, #4]
 162 000c 1B68     		ldr	r3, [r3]
 163 000e 1A1C     		mov	r2, r3
 164 0010 7B68     		ldr	r3, [r7, #4]
 165 0012 1B79     		ldrb	r3, [r3, #4]
 166 0014 101C     		mov	r0, r2
 167 0016 191C     		mov	r1, r3
 168 0018 FFF7FEFF 		bl	PWMSP001ConjPort_setDutyCycle
  72:C:/data/workspaces/github/de.protos.demos/src/XMC2GoBlinky/etrice.XMC2GoBlinky.demo/src-gen-st/XMC2GoDemoModel\ADimmer.c **** 	//PWMSP001ConjPort_setDutyCycle(&self->constData->pwm,counter);
  73:C:/data/workspaces/github/de.protos.demos/src/XMC2GoBlinky/etrice.XMC2GoBlinky.demo/src-gen-st/XMC2GoDemoModel\ADimmer.c **** }
 169              		.loc 1 73 0
 170 001c BD46     		mov	sp, r7
 171 001e 02B0     		add	sp, sp, #8
 172              		@ sp needed for prologue
 173 0020 80BD     		pop	{r7, pc}
 174              		.cfi_endproc
 175              	.LFE36:
 177 0022 C046     		.section	.text.action_TRANS_tr4_FROM_cp1_TO_off,"ax",%progbits
 178              		.align	2
 179              		.code	16
 180              		.thumb_func
 182              	action_TRANS_tr4_FROM_cp1_TO_off:
 183              	.LFB37:
  74:C:/data/workspaces/github/de.protos.demos/src/XMC2GoBlinky/etrice.XMC2GoBlinky.demo/src-gen-st/XMC2GoDemoModel\ADimmer.c **** static void action_TRANS_tr4_FROM_cp1_TO_off(ADimmer* self, const InterfaceItemBase* ifitem) {
 184              		.loc 1 74 0
 185              		.cfi_startproc
 186 0000 80B5     		push	{r7, lr}
 187              	.LCFI12:
 188              		.cfi_def_cfa_offset 8
 189              		.cfi_offset 7, -8
 190              		.cfi_offset 14, -4
 191 0002 82B0     		sub	sp, sp, #8
 192              	.LCFI13:
 193              		.cfi_def_cfa_offset 16
 194 0004 00AF     		add	r7, sp, #0
 195              	.LCFI14:
 196              		.cfi_def_cfa_register 7
 197 0006 7860     		str	r0, [r7, #4]
 198 0008 3960     		str	r1, [r7]
  75:C:/data/workspaces/github/de.protos.demos/src/XMC2GoBlinky/etrice.XMC2GoBlinky.demo/src-gen-st/XMC2GoDemoModel\ADimmer.c **** 	pwm_setDutyCycle(counter);
 199              		.loc 1 75 0
 200 000a 7B68     		ldr	r3, [r7, #4]
 201 000c 1B68     		ldr	r3, [r3]
 202 000e 1A1C     		mov	r2, r3
 203 0010 7B68     		ldr	r3, [r7, #4]
 204 0012 1B79     		ldrb	r3, [r3, #4]
 205 0014 101C     		mov	r0, r2
 206 0016 191C     		mov	r1, r3
 207 0018 FFF7FEFF 		bl	PWMSP001ConjPort_setDutyCycle
  76:C:/data/workspaces/github/de.protos.demos/src/XMC2GoBlinky/etrice.XMC2GoBlinky.demo/src-gen-st/XMC2GoDemoModel\ADimmer.c **** 	//PWMSP001ConjPort_setDutyCycle(&self->constData->pwm,0);
  77:C:/data/workspaces/github/de.protos.demos/src/XMC2GoBlinky/etrice.XMC2GoBlinky.demo/src-gen-st/XMC2GoDemoModel\ADimmer.c **** 	
  78:C:/data/workspaces/github/de.protos.demos/src/XMC2GoBlinky/etrice.XMC2GoBlinky.demo/src-gen-st/XMC2GoDemoModel\ADimmer.c **** 	counter = 200;
 208              		.loc 1 78 0
 209 001c 7B68     		ldr	r3, [r7, #4]
 210 001e C822     		mov	r2, #200
 211 0020 1A71     		strb	r2, [r3, #4]
  79:C:/data/workspaces/github/de.protos.demos/src/XMC2GoBlinky/etrice.XMC2GoBlinky.demo/src-gen-st/XMC2GoDemoModel\ADimmer.c **** }
 212              		.loc 1 79 0
 213 0022 BD46     		mov	sp, r7
 214 0024 02B0     		add	sp, sp, #8
 215              		@ sp needed for prologue
 216 0026 80BD     		pop	{r7, pc}
 217              		.cfi_endproc
 218              	.LFE37:
 220              		.section	.text.action_TRANS_tr5_FROM_cp1_TO_goingOff_COND_tr5,"ax",%progbits
 221              		.align	2
 222              		.code	16
 223              		.thumb_func
 225              	action_TRANS_tr5_FROM_cp1_TO_goingOff_COND_tr5:
 226              	.LFB38:
  80:C:/data/workspaces/github/de.protos.demos/src/XMC2GoBlinky/etrice.XMC2GoBlinky.demo/src-gen-st/XMC2GoDemoModel\ADimmer.c **** static void action_TRANS_tr5_FROM_cp1_TO_goingOff_COND_tr5(ADimmer* self, const InterfaceItemBase* 
 227              		.loc 1 80 0
 228              		.cfi_startproc
 229 0000 80B5     		push	{r7, lr}
 230              	.LCFI15:
 231              		.cfi_def_cfa_offset 8
 232              		.cfi_offset 7, -8
 233              		.cfi_offset 14, -4
 234 0002 82B0     		sub	sp, sp, #8
 235              	.LCFI16:
 236              		.cfi_def_cfa_offset 16
 237 0004 00AF     		add	r7, sp, #0
 238              	.LCFI17:
 239              		.cfi_def_cfa_register 7
 240 0006 7860     		str	r0, [r7, #4]
 241 0008 3960     		str	r1, [r7]
  81:C:/data/workspaces/github/de.protos.demos/src/XMC2GoBlinky/etrice.XMC2GoBlinky.demo/src-gen-st/XMC2GoDemoModel\ADimmer.c **** 	pwm_setDutyCycle(counter);
 242              		.loc 1 81 0
 243 000a 7B68     		ldr	r3, [r7, #4]
 244 000c 1B68     		ldr	r3, [r3]
 245 000e 1A1C     		mov	r2, r3
 246 0010 7B68     		ldr	r3, [r7, #4]
 247 0012 1B79     		ldrb	r3, [r3, #4]
 248 0014 101C     		mov	r0, r2
 249 0016 191C     		mov	r1, r3
 250 0018 FFF7FEFF 		bl	PWMSP001ConjPort_setDutyCycle
  82:C:/data/workspaces/github/de.protos.demos/src/XMC2GoBlinky/etrice.XMC2GoBlinky.demo/src-gen-st/XMC2GoDemoModel\ADimmer.c **** 	//PWMSP001ConjPort_setDutyCycle(&self->constData->pwm,counter);
  83:C:/data/workspaces/github/de.protos.demos/src/XMC2GoBlinky/etrice.XMC2GoBlinky.demo/src-gen-st/XMC2GoDemoModel\ADimmer.c **** }
 251              		.loc 1 83 0
 252 001c BD46     		mov	sp, r7
 253 001e 02B0     		add	sp, sp, #8
 254              		@ sp needed for prologue
 255 0020 80BD     		pop	{r7, pc}
 256              		.cfi_endproc
 257              	.LFE38:
 259 0022 C046     		.section	.text.exitTo,"ax",%progbits
 260              		.align	2
 261              		.code	16
 262              		.thumb_func
 264              	exitTo:
 265              	.LFB39:
  84:C:/data/workspaces/github/de.protos.demos/src/XMC2GoBlinky/etrice.XMC2GoBlinky.demo/src-gen-st/XMC2GoDemoModel\ADimmer.c **** 
  85:C:/data/workspaces/github/de.protos.demos/src/XMC2GoBlinky/etrice.XMC2GoBlinky.demo/src-gen-st/XMC2GoDemoModel\ADimmer.c **** /**
  86:C:/data/workspaces/github/de.protos.demos/src/XMC2GoBlinky/etrice.XMC2GoBlinky.demo/src-gen-st/XMC2GoDemoModel\ADimmer.c ****  * calls exit codes while exiting from the current state to one of its
  87:C:/data/workspaces/github/de.protos.demos/src/XMC2GoBlinky/etrice.XMC2GoBlinky.demo/src-gen-st/XMC2GoDemoModel\ADimmer.c ****  * parent states while remembering the history
  88:C:/data/workspaces/github/de.protos.demos/src/XMC2GoBlinky/etrice.XMC2GoBlinky.demo/src-gen-st/XMC2GoDemoModel\ADimmer.c ****  * @param current__et - the current state
  89:C:/data/workspaces/github/de.protos.demos/src/XMC2GoBlinky/etrice.XMC2GoBlinky.demo/src-gen-st/XMC2GoDemoModel\ADimmer.c ****  * @param to - the final parent state
  90:C:/data/workspaces/github/de.protos.demos/src/XMC2GoBlinky/etrice.XMC2GoBlinky.demo/src-gen-st/XMC2GoDemoModel\ADimmer.c ****  */
  91:C:/data/workspaces/github/de.protos.demos/src/XMC2GoBlinky/etrice.XMC2GoBlinky.demo/src-gen-st/XMC2GoDemoModel\ADimmer.c **** static void exitTo(ADimmer* self, etInt16 current__et, etInt16 to) {
 266              		.loc 1 91 0
 267              		.cfi_startproc
 268 0000 80B5     		push	{r7, lr}
 269              	.LCFI18:
 270              		.cfi_def_cfa_offset 8
 271              		.cfi_offset 7, -8
 272              		.cfi_offset 14, -4
 273 0002 82B0     		sub	sp, sp, #8
 274              	.LCFI19:
 275              		.cfi_def_cfa_offset 16
 276 0004 00AF     		add	r7, sp, #0
 277              	.LCFI20:
 278              		.cfi_def_cfa_register 7
 279 0006 7860     		str	r0, [r7, #4]
 280 0008 BB1C     		add	r3, r7, #2
 281 000a 1980     		strh	r1, [r3]
 282 000c 3B1C     		mov	r3, r7
 283 000e 1A80     		strh	r2, [r3]
  92:C:/data/workspaces/github/de.protos.demos/src/XMC2GoBlinky/etrice.XMC2GoBlinky.demo/src-gen-st/XMC2GoDemoModel\ADimmer.c **** 	while (current__et!=to) {
 284              		.loc 1 92 0
 285 0010 22E0     		b	.L9
 286              	.L14:
  93:C:/data/workspaces/github/de.protos.demos/src/XMC2GoBlinky/etrice.XMC2GoBlinky.demo/src-gen-st/XMC2GoDemoModel\ADimmer.c **** 		switch (current__et) {
 287              		.loc 1 93 0
 288 0012 BB1C     		add	r3, r7, #2
 289 0014 0021     		mov	r1, #0
 290 0016 5B5E     		ldrsh	r3, [r3, r1]
 291 0018 032B     		cmp	r3, #3
 292 001a 0AD0     		beq	.L12
 293 001c 042B     		cmp	r3, #4
 294 001e 0FD0     		beq	.L13
 295 0020 022B     		cmp	r3, #2
 296 0022 14D1     		bne	.L15
 297              	.L11:
  94:C:/data/workspaces/github/de.protos.demos/src/XMC2GoBlinky/etrice.XMC2GoBlinky.demo/src-gen-st/XMC2GoDemoModel\ADimmer.c **** 			case STATE_goingOn:
  95:C:/data/workspaces/github/de.protos.demos/src/XMC2GoBlinky/etrice.XMC2GoBlinky.demo/src-gen-st/XMC2GoDemoModel\ADimmer.c **** 				self->history[STATE_TOP] = STATE_goingOn;
 298              		.loc 1 95 0
 299 0024 7B68     		ldr	r3, [r7, #4]
 300 0026 0222     		mov	r2, #2
 301 0028 1A82     		strh	r2, [r3, #16]
  96:C:/data/workspaces/github/de.protos.demos/src/XMC2GoBlinky/etrice.XMC2GoBlinky.demo/src-gen-st/XMC2GoDemoModel\ADimmer.c **** 				current__et = STATE_TOP;
 302              		.loc 1 96 0
 303 002a BB1C     		add	r3, r7, #2
 304 002c 0122     		mov	r2, #1
 305 002e 1A80     		strh	r2, [r3]
  97:C:/data/workspaces/github/de.protos.demos/src/XMC2GoBlinky/etrice.XMC2GoBlinky.demo/src-gen-st/XMC2GoDemoModel\ADimmer.c **** 				break;
 306              		.loc 1 97 0
 307 0030 12E0     		b	.L9
 308              	.L12:
  98:C:/data/workspaces/github/de.protos.demos/src/XMC2GoBlinky/etrice.XMC2GoBlinky.demo/src-gen-st/XMC2GoDemoModel\ADimmer.c **** 			case STATE_goingOff:
  99:C:/data/workspaces/github/de.protos.demos/src/XMC2GoBlinky/etrice.XMC2GoBlinky.demo/src-gen-st/XMC2GoDemoModel\ADimmer.c **** 				self->history[STATE_TOP] = STATE_goingOff;
 309              		.loc 1 99 0
 310 0032 7B68     		ldr	r3, [r7, #4]
 311 0034 0322     		mov	r2, #3
 312 0036 1A82     		strh	r2, [r3, #16]
 100:C:/data/workspaces/github/de.protos.demos/src/XMC2GoBlinky/etrice.XMC2GoBlinky.demo/src-gen-st/XMC2GoDemoModel\ADimmer.c **** 				current__et = STATE_TOP;
 313              		.loc 1 100 0
 314 0038 BB1C     		add	r3, r7, #2
 315 003a 0122     		mov	r2, #1
 316 003c 1A80     		strh	r2, [r3]
 101:C:/data/workspaces/github/de.protos.demos/src/XMC2GoBlinky/etrice.XMC2GoBlinky.demo/src-gen-st/XMC2GoDemoModel\ADimmer.c **** 				break;
 317              		.loc 1 101 0
 318 003e 0BE0     		b	.L9
 319              	.L13:
 102:C:/data/workspaces/github/de.protos.demos/src/XMC2GoBlinky/etrice.XMC2GoBlinky.demo/src-gen-st/XMC2GoDemoModel\ADimmer.c **** 			case STATE_off:
 103:C:/data/workspaces/github/de.protos.demos/src/XMC2GoBlinky/etrice.XMC2GoBlinky.demo/src-gen-st/XMC2GoDemoModel\ADimmer.c **** 				self->history[STATE_TOP] = STATE_off;
 320              		.loc 1 103 0
 321 0040 7B68     		ldr	r3, [r7, #4]
 322 0042 0422     		mov	r2, #4
 323 0044 1A82     		strh	r2, [r3, #16]
 104:C:/data/workspaces/github/de.protos.demos/src/XMC2GoBlinky/etrice.XMC2GoBlinky.demo/src-gen-st/XMC2GoDemoModel\ADimmer.c **** 				current__et = STATE_TOP;
 324              		.loc 1 104 0
 325 0046 BB1C     		add	r3, r7, #2
 326 0048 0122     		mov	r2, #1
 327 004a 1A80     		strh	r2, [r3]
 105:C:/data/workspaces/github/de.protos.demos/src/XMC2GoBlinky/etrice.XMC2GoBlinky.demo/src-gen-st/XMC2GoDemoModel\ADimmer.c **** 				break;
 328              		.loc 1 105 0
 329 004c 04E0     		b	.L9
 330              	.L15:
 331 004e BB1C     		add	r3, r7, #2
 332 0050 BA1C     		add	r2, r7, #2
 333 0052 1288     		ldrh	r2, [r2]
 334 0054 1A80     		strh	r2, [r3]
 106:C:/data/workspaces/github/de.protos.demos/src/XMC2GoBlinky/etrice.XMC2GoBlinky.demo/src-gen-st/XMC2GoDemoModel\ADimmer.c **** 			default:
 107:C:/data/workspaces/github/de.protos.demos/src/XMC2GoBlinky/etrice.XMC2GoBlinky.demo/src-gen-st/XMC2GoDemoModel\ADimmer.c **** 				/* should not occur */
 108:C:/data/workspaces/github/de.protos.demos/src/XMC2GoBlinky/etrice.XMC2GoBlinky.demo/src-gen-st/XMC2GoDemoModel\ADimmer.c **** 				break;
 335              		.loc 1 108 0
 336 0056 C046     		mov	r8, r8
 337              	.L9:
  92:C:/data/workspaces/github/de.protos.demos/src/XMC2GoBlinky/etrice.XMC2GoBlinky.demo/src-gen-st/XMC2GoDemoModel\ADimmer.c **** 	while (current__et!=to) {
 338              		.loc 1 92 0 discriminator 1
 339 0058 BA1C     		add	r2, r7, #2
 340 005a 3B1C     		mov	r3, r7
 341 005c 0021     		mov	r1, #0
 342 005e 525E     		ldrsh	r2, [r2, r1]
 343 0060 0021     		mov	r1, #0
 344 0062 5B5E     		ldrsh	r3, [r3, r1]
 345 0064 9A42     		cmp	r2, r3
 346 0066 D4D1     		bne	.L14
 109:C:/data/workspaces/github/de.protos.demos/src/XMC2GoBlinky/etrice.XMC2GoBlinky.demo/src-gen-st/XMC2GoDemoModel\ADimmer.c **** 		}
 110:C:/data/workspaces/github/de.protos.demos/src/XMC2GoBlinky/etrice.XMC2GoBlinky.demo/src-gen-st/XMC2GoDemoModel\ADimmer.c **** 	}
 111:C:/data/workspaces/github/de.protos.demos/src/XMC2GoBlinky/etrice.XMC2GoBlinky.demo/src-gen-st/XMC2GoDemoModel\ADimmer.c **** }
 347              		.loc 1 111 0
 348 0068 BD46     		mov	sp, r7
 349 006a 02B0     		add	sp, sp, #8
 350              		@ sp needed for prologue
 351 006c 80BD     		pop	{r7, pc}
 352              		.cfi_endproc
 353              	.LFE39:
 355 006e C046     		.section	.text.executeTransitionChain,"ax",%progbits
 356              		.align	2
 357              		.code	16
 358              		.thumb_func
 360              	executeTransitionChain:
 361              	.LFB40:
 112:C:/data/workspaces/github/de.protos.demos/src/XMC2GoBlinky/etrice.XMC2GoBlinky.demo/src-gen-st/XMC2GoDemoModel\ADimmer.c **** 
 113:C:/data/workspaces/github/de.protos.demos/src/XMC2GoBlinky/etrice.XMC2GoBlinky.demo/src-gen-st/XMC2GoDemoModel\ADimmer.c **** /**
 114:C:/data/workspaces/github/de.protos.demos/src/XMC2GoBlinky/etrice.XMC2GoBlinky.demo/src-gen-st/XMC2GoDemoModel\ADimmer.c ****  * calls action, entry and exit codes along a transition chain. The generic data are cast to typed 
 115:C:/data/workspaces/github/de.protos.demos/src/XMC2GoBlinky/etrice.XMC2GoBlinky.demo/src-gen-st/XMC2GoDemoModel\ADimmer.c ****  * matching the trigger of this chain. The ID of the final state is returned
 116:C:/data/workspaces/github/de.protos.demos/src/XMC2GoBlinky/etrice.XMC2GoBlinky.demo/src-gen-st/XMC2GoDemoModel\ADimmer.c ****  * @param chain__et - the chain ID
 117:C:/data/workspaces/github/de.protos.demos/src/XMC2GoBlinky/etrice.XMC2GoBlinky.demo/src-gen-st/XMC2GoDemoModel\ADimmer.c ****  * @param generic_data__et - the generic data pointer
 118:C:/data/workspaces/github/de.protos.demos/src/XMC2GoBlinky/etrice.XMC2GoBlinky.demo/src-gen-st/XMC2GoDemoModel\ADimmer.c ****  * @return the +/- ID of the final state either with a positive sign, that indicates to execute the
 119:C:/data/workspaces/github/de.protos.demos/src/XMC2GoBlinky/etrice.XMC2GoBlinky.demo/src-gen-st/XMC2GoDemoModel\ADimmer.c ****  */
 120:C:/data/workspaces/github/de.protos.demos/src/XMC2GoBlinky/etrice.XMC2GoBlinky.demo/src-gen-st/XMC2GoDemoModel\ADimmer.c **** static etInt16 executeTransitionChain(ADimmer* self, int chain__et, const InterfaceItemBase* ifitem
 362              		.loc 1 120 0
 363              		.cfi_startproc
 364 0000 80B5     		push	{r7, lr}
 365              	.LCFI21:
 366              		.cfi_def_cfa_offset 8
 367              		.cfi_offset 7, -8
 368              		.cfi_offset 14, -4
 369 0002 84B0     		sub	sp, sp, #16
 370              	.LCFI22:
 371              		.cfi_def_cfa_offset 24
 372 0004 00AF     		add	r7, sp, #0
 373              	.LCFI23:
 374              		.cfi_def_cfa_register 7
 375 0006 F860     		str	r0, [r7, #12]
 376 0008 B960     		str	r1, [r7, #8]
 377 000a 7A60     		str	r2, [r7, #4]
 378 000c 3B60     		str	r3, [r7]
 121:C:/data/workspaces/github/de.protos.demos/src/XMC2GoBlinky/etrice.XMC2GoBlinky.demo/src-gen-st/XMC2GoDemoModel\ADimmer.c **** 	switch (chain__et) {
 379              		.loc 1 121 0
 380 000e BB68     		ldr	r3, [r7, #8]
 381 0010 022B     		cmp	r3, #2
 382 0012 0ED0     		beq	.L19
 383 0014 02DC     		bgt	.L22
 384 0016 012B     		cmp	r3, #1
 385 0018 05D0     		beq	.L18
 386 001a 46E0     		b	.L17
 387              	.L22:
 388 001c 032B     		cmp	r3, #3
 389 001e 1CD0     		beq	.L20
 390 0020 042B     		cmp	r3, #4
 391 0022 34D0     		beq	.L21
 392 0024 41E0     		b	.L17
 393              	.L18:
 122:C:/data/workspaces/github/de.protos.demos/src/XMC2GoBlinky/etrice.XMC2GoBlinky.demo/src-gen-st/XMC2GoDemoModel\ADimmer.c **** 		case CHAIN_TRANS_INITIAL_TO__goingOn:
 123:C:/data/workspaces/github/de.protos.demos/src/XMC2GoBlinky/etrice.XMC2GoBlinky.demo/src-gen-st/XMC2GoDemoModel\ADimmer.c **** 		{
 124:C:/data/workspaces/github/de.protos.demos/src/XMC2GoBlinky/etrice.XMC2GoBlinky.demo/src-gen-st/XMC2GoDemoModel\ADimmer.c **** 			action_TRANS_INITIAL_TO__goingOn(self);
 394              		.loc 1 124 0
 395 0026 FB68     		ldr	r3, [r7, #12]
 396 0028 181C     		mov	r0, r3
 397 002a FFF7FEFF 		bl	action_TRANS_INITIAL_TO__goingOn
 125:C:/data/workspaces/github/de.protos.demos/src/XMC2GoBlinky/etrice.XMC2GoBlinky.demo/src-gen-st/XMC2GoDemoModel\ADimmer.c **** 			return STATE_goingOn;
 398              		.loc 1 125 0
 399 002e 0223     		mov	r3, #2
 400 0030 3DE0     		b	.L23
 401              	.L19:
 126:C:/data/workspaces/github/de.protos.demos/src/XMC2GoBlinky/etrice.XMC2GoBlinky.demo/src-gen-st/XMC2GoDemoModel\ADimmer.c **** 		}
 127:C:/data/workspaces/github/de.protos.demos/src/XMC2GoBlinky/etrice.XMC2GoBlinky.demo/src-gen-st/XMC2GoDemoModel\ADimmer.c **** 		case CHAIN_TRANS_tr1_FROM_goingOn_TO_cp0_BY_timeouttimer:
 128:C:/data/workspaces/github/de.protos.demos/src/XMC2GoBlinky/etrice.XMC2GoBlinky.demo/src-gen-st/XMC2GoDemoModel\ADimmer.c **** 		{
 129:C:/data/workspaces/github/de.protos.demos/src/XMC2GoBlinky/etrice.XMC2GoBlinky.demo/src-gen-st/XMC2GoDemoModel\ADimmer.c **** 			if (++counter<100) {
 402              		.loc 1 129 0
 403 0032 FB68     		ldr	r3, [r7, #12]
 404 0034 1B79     		ldrb	r3, [r3, #4]
 405 0036 0133     		add	r3, r3, #1
 406 0038 DAB2     		uxtb	r2, r3
 407 003a FB68     		ldr	r3, [r7, #12]
 408 003c 1A71     		strb	r2, [r3, #4]
 409 003e FB68     		ldr	r3, [r7, #12]
 410 0040 1B79     		ldrb	r3, [r3, #4]
 411 0042 632B     		cmp	r3, #99
 412 0044 07D8     		bhi	.L24
 130:C:/data/workspaces/github/de.protos.demos/src/XMC2GoBlinky/etrice.XMC2GoBlinky.demo/src-gen-st/XMC2GoDemoModel\ADimmer.c **** 			action_TRANS_tr2_FROM_cp0_TO_goingOn_COND_tr2(self, ifitem);
 413              		.loc 1 130 0
 414 0046 FA68     		ldr	r2, [r7, #12]
 415 0048 7B68     		ldr	r3, [r7, #4]
 416 004a 101C     		mov	r0, r2
 417 004c 191C     		mov	r1, r3
 418 004e FFF7FEFF 		bl	action_TRANS_tr2_FROM_cp0_TO_goingOn_COND_tr2
 131:C:/data/workspaces/github/de.protos.demos/src/XMC2GoBlinky/etrice.XMC2GoBlinky.demo/src-gen-st/XMC2GoDemoModel\ADimmer.c **** 			return STATE_goingOn;}
 419              		.loc 1 131 0
 420 0052 0223     		mov	r3, #2
 421 0054 2BE0     		b	.L23
 422              	.L24:
 132:C:/data/workspaces/github/de.protos.demos/src/XMC2GoBlinky/etrice.XMC2GoBlinky.demo/src-gen-st/XMC2GoDemoModel\ADimmer.c **** 			else {
 133:C:/data/workspaces/github/de.protos.demos/src/XMC2GoBlinky/etrice.XMC2GoBlinky.demo/src-gen-st/XMC2GoDemoModel\ADimmer.c **** 			return STATE_goingOff;}
 423              		.loc 1 133 0
 424 0056 0323     		mov	r3, #3
 425 0058 29E0     		b	.L23
 426              	.L20:
 134:C:/data/workspaces/github/de.protos.demos/src/XMC2GoBlinky/etrice.XMC2GoBlinky.demo/src-gen-st/XMC2GoDemoModel\ADimmer.c **** 		}
 135:C:/data/workspaces/github/de.protos.demos/src/XMC2GoBlinky/etrice.XMC2GoBlinky.demo/src-gen-st/XMC2GoDemoModel\ADimmer.c **** 		case CHAIN_TRANS_tr3_FROM_goingOff_TO_cp1_BY_timeouttimer:
 136:C:/data/workspaces/github/de.protos.demos/src/XMC2GoBlinky/etrice.XMC2GoBlinky.demo/src-gen-st/XMC2GoDemoModel\ADimmer.c **** 		{
 137:C:/data/workspaces/github/de.protos.demos/src/XMC2GoBlinky/etrice.XMC2GoBlinky.demo/src-gen-st/XMC2GoDemoModel\ADimmer.c **** 			if (--counter>0) {
 427              		.loc 1 137 0
 428 005a FB68     		ldr	r3, [r7, #12]
 429 005c 1B79     		ldrb	r3, [r3, #4]
 430 005e 013B     		sub	r3, r3, #1
 431 0060 DAB2     		uxtb	r2, r3
 432 0062 FB68     		ldr	r3, [r7, #12]
 433 0064 1A71     		strb	r2, [r3, #4]
 434 0066 FB68     		ldr	r3, [r7, #12]
 435 0068 1B79     		ldrb	r3, [r3, #4]
 436 006a 002B     		cmp	r3, #0
 437 006c 07D0     		beq	.L25
 138:C:/data/workspaces/github/de.protos.demos/src/XMC2GoBlinky/etrice.XMC2GoBlinky.demo/src-gen-st/XMC2GoDemoModel\ADimmer.c **** 			action_TRANS_tr5_FROM_cp1_TO_goingOff_COND_tr5(self, ifitem);
 438              		.loc 1 138 0
 439 006e FA68     		ldr	r2, [r7, #12]
 440 0070 7B68     		ldr	r3, [r7, #4]
 441 0072 101C     		mov	r0, r2
 442 0074 191C     		mov	r1, r3
 443 0076 FFF7FEFF 		bl	action_TRANS_tr5_FROM_cp1_TO_goingOff_COND_tr5
 139:C:/data/workspaces/github/de.protos.demos/src/XMC2GoBlinky/etrice.XMC2GoBlinky.demo/src-gen-st/XMC2GoDemoModel\ADimmer.c **** 			return STATE_goingOff;}
 444              		.loc 1 139 0
 445 007a 0323     		mov	r3, #3
 446 007c 17E0     		b	.L23
 447              	.L25:
 140:C:/data/workspaces/github/de.protos.demos/src/XMC2GoBlinky/etrice.XMC2GoBlinky.demo/src-gen-st/XMC2GoDemoModel\ADimmer.c **** 			else {
 141:C:/data/workspaces/github/de.protos.demos/src/XMC2GoBlinky/etrice.XMC2GoBlinky.demo/src-gen-st/XMC2GoDemoModel\ADimmer.c **** 			action_TRANS_tr4_FROM_cp1_TO_off(self, ifitem);
 448              		.loc 1 141 0
 449 007e FA68     		ldr	r2, [r7, #12]
 450 0080 7B68     		ldr	r3, [r7, #4]
 451 0082 101C     		mov	r0, r2
 452 0084 191C     		mov	r1, r3
 453 0086 FFF7FEFF 		bl	action_TRANS_tr4_FROM_cp1_TO_off
 142:C:/data/workspaces/github/de.protos.demos/src/XMC2GoBlinky/etrice.XMC2GoBlinky.demo/src-gen-st/XMC2GoDemoModel\ADimmer.c **** 			return STATE_off;}
 454              		.loc 1 142 0
 455 008a 0423     		mov	r3, #4
 456 008c 0FE0     		b	.L23
 457              	.L21:
 143:C:/data/workspaces/github/de.protos.demos/src/XMC2GoBlinky/etrice.XMC2GoBlinky.demo/src-gen-st/XMC2GoDemoModel\ADimmer.c **** 		}
 144:C:/data/workspaces/github/de.protos.demos/src/XMC2GoBlinky/etrice.XMC2GoBlinky.demo/src-gen-st/XMC2GoDemoModel\ADimmer.c **** 		case CHAIN_TRANS_tr7_FROM_off_TO_cp2_BY_timeouttimer:
 145:C:/data/workspaces/github/de.protos.demos/src/XMC2GoBlinky/etrice.XMC2GoBlinky.demo/src-gen-st/XMC2GoDemoModel\ADimmer.c **** 		{
 146:C:/data/workspaces/github/de.protos.demos/src/XMC2GoBlinky/etrice.XMC2GoBlinky.demo/src-gen-st/XMC2GoDemoModel\ADimmer.c **** 			if (--counter > 0) {
 458              		.loc 1 146 0
 459 008e FB68     		ldr	r3, [r7, #12]
 460 0090 1B79     		ldrb	r3, [r3, #4]
 461 0092 013B     		sub	r3, r3, #1
 462 0094 DAB2     		uxtb	r2, r3
 463 0096 FB68     		ldr	r3, [r7, #12]
 464 0098 1A71     		strb	r2, [r3, #4]
 465 009a FB68     		ldr	r3, [r7, #12]
 466 009c 1B79     		ldrb	r3, [r3, #4]
 467 009e 002B     		cmp	r3, #0
 468 00a0 01D0     		beq	.L26
 147:C:/data/workspaces/github/de.protos.demos/src/XMC2GoBlinky/etrice.XMC2GoBlinky.demo/src-gen-st/XMC2GoDemoModel\ADimmer.c **** 			return STATE_off;}
 469              		.loc 1 147 0
 470 00a2 0423     		mov	r3, #4
 471 00a4 03E0     		b	.L23
 472              	.L26:
 148:C:/data/workspaces/github/de.protos.demos/src/XMC2GoBlinky/etrice.XMC2GoBlinky.demo/src-gen-st/XMC2GoDemoModel\ADimmer.c **** 			else {
 149:C:/data/workspaces/github/de.protos.demos/src/XMC2GoBlinky/etrice.XMC2GoBlinky.demo/src-gen-st/XMC2GoDemoModel\ADimmer.c **** 			return STATE_goingOn;}
 473              		.loc 1 149 0
 474 00a6 0223     		mov	r3, #2
 475 00a8 01E0     		b	.L23
 476              	.L17:
 150:C:/data/workspaces/github/de.protos.demos/src/XMC2GoBlinky/etrice.XMC2GoBlinky.demo/src-gen-st/XMC2GoDemoModel\ADimmer.c **** 		}
 151:C:/data/workspaces/github/de.protos.demos/src/XMC2GoBlinky/etrice.XMC2GoBlinky.demo/src-gen-st/XMC2GoDemoModel\ADimmer.c **** 			default:
 152:C:/data/workspaces/github/de.protos.demos/src/XMC2GoBlinky/etrice.XMC2GoBlinky.demo/src-gen-st/XMC2GoDemoModel\ADimmer.c **** 				/* should not occur */
 153:C:/data/workspaces/github/de.protos.demos/src/XMC2GoBlinky/etrice.XMC2GoBlinky.demo/src-gen-st/XMC2GoDemoModel\ADimmer.c **** 				break;
 477              		.loc 1 153 0
 478 00aa C046     		mov	r8, r8
 154:C:/data/workspaces/github/de.protos.demos/src/XMC2GoBlinky/etrice.XMC2GoBlinky.demo/src-gen-st/XMC2GoDemoModel\ADimmer.c **** 	}
 155:C:/data/workspaces/github/de.protos.demos/src/XMC2GoBlinky/etrice.XMC2GoBlinky.demo/src-gen-st/XMC2GoDemoModel\ADimmer.c **** 	return NO_STATE;
 479              		.loc 1 155 0
 480 00ac 0023     		mov	r3, #0
 481              	.L23:
 482 00ae 1BB2     		sxth	r3, r3
 156:C:/data/workspaces/github/de.protos.demos/src/XMC2GoBlinky/etrice.XMC2GoBlinky.demo/src-gen-st/XMC2GoDemoModel\ADimmer.c **** }
 483              		.loc 1 156 0
 484 00b0 181C     		mov	r0, r3
 485 00b2 BD46     		mov	sp, r7
 486 00b4 04B0     		add	sp, sp, #16
 487              		@ sp needed for prologue
 488 00b6 80BD     		pop	{r7, pc}
 489              		.cfi_endproc
 490              	.LFE40:
 492              		.section	.text.enterHistory,"ax",%progbits
 493              		.align	2
 494              		.code	16
 495              		.thumb_func
 497              	enterHistory:
 498              	.LFB41:
 157:C:/data/workspaces/github/de.protos.demos/src/XMC2GoBlinky/etrice.XMC2GoBlinky.demo/src-gen-st/XMC2GoDemoModel\ADimmer.c **** 
 158:C:/data/workspaces/github/de.protos.demos/src/XMC2GoBlinky/etrice.XMC2GoBlinky.demo/src-gen-st/XMC2GoDemoModel\ADimmer.c **** /**
 159:C:/data/workspaces/github/de.protos.demos/src/XMC2GoBlinky/etrice.XMC2GoBlinky.demo/src-gen-st/XMC2GoDemoModel\ADimmer.c ****  * calls entry codes while entering a state's history. The ID of the final leaf state is returned
 160:C:/data/workspaces/github/de.protos.demos/src/XMC2GoBlinky/etrice.XMC2GoBlinky.demo/src-gen-st/XMC2GoDemoModel\ADimmer.c ****  * @param state__et - the state which is entered
 161:C:/data/workspaces/github/de.protos.demos/src/XMC2GoBlinky/etrice.XMC2GoBlinky.demo/src-gen-st/XMC2GoDemoModel\ADimmer.c ****  * @return - the ID of the final leaf state
 162:C:/data/workspaces/github/de.protos.demos/src/XMC2GoBlinky/etrice.XMC2GoBlinky.demo/src-gen-st/XMC2GoDemoModel\ADimmer.c ****  */
 163:C:/data/workspaces/github/de.protos.demos/src/XMC2GoBlinky/etrice.XMC2GoBlinky.demo/src-gen-st/XMC2GoDemoModel\ADimmer.c **** static etInt16 enterHistory(ADimmer* self, etInt16 state__et) {
 499              		.loc 1 163 0
 500              		.cfi_startproc
 501 0000 80B5     		push	{r7, lr}
 502              	.LCFI24:
 503              		.cfi_def_cfa_offset 8
 504              		.cfi_offset 7, -8
 505              		.cfi_offset 14, -4
 506 0002 84B0     		sub	sp, sp, #16
 507              	.LCFI25:
 508              		.cfi_def_cfa_offset 24
 509 0004 00AF     		add	r7, sp, #0
 510              	.LCFI26:
 511              		.cfi_def_cfa_register 7
 512 0006 7860     		str	r0, [r7, #4]
 513 0008 0A1C     		mov	r2, r1
 514 000a BB1C     		add	r3, r7, #2
 515 000c 1A80     		strh	r2, [r3]
 164:C:/data/workspaces/github/de.protos.demos/src/XMC2GoBlinky/etrice.XMC2GoBlinky.demo/src-gen-st/XMC2GoDemoModel\ADimmer.c **** 	boolean skip_entry__et = ET_FALSE;
 516              		.loc 1 164 0
 517 000e 3B1C     		mov	r3, r7
 518 0010 0F33     		add	r3, r3, #15
 519 0012 0022     		mov	r2, #0
 520 0014 1A70     		strb	r2, [r3]
 165:C:/data/workspaces/github/de.protos.demos/src/XMC2GoBlinky/etrice.XMC2GoBlinky.demo/src-gen-st/XMC2GoDemoModel\ADimmer.c **** 	if (state__et >= STATE_MAX) {
 521              		.loc 1 165 0
 522 0016 BB1C     		add	r3, r7, #2
 523 0018 0022     		mov	r2, #0
 524 001a 9B5E     		ldrsh	r3, [r3, r2]
 525 001c 042B     		cmp	r3, #4
 526 001e 09DD     		ble	.L28
 166:C:/data/workspaces/github/de.protos.demos/src/XMC2GoBlinky/etrice.XMC2GoBlinky.demo/src-gen-st/XMC2GoDemoModel\ADimmer.c **** 		state__et = (etInt16) (state__et - STATE_MAX);
 527              		.loc 1 166 0
 528 0020 BB1C     		add	r3, r7, #2
 529 0022 1B88     		ldrh	r3, [r3]
 530 0024 053B     		sub	r3, r3, #5
 531 0026 9AB2     		uxth	r2, r3
 532 0028 BB1C     		add	r3, r7, #2
 533 002a 1A80     		strh	r2, [r3]
 167:C:/data/workspaces/github/de.protos.demos/src/XMC2GoBlinky/etrice.XMC2GoBlinky.demo/src-gen-st/XMC2GoDemoModel\ADimmer.c **** 		skip_entry__et = ET_TRUE;
 534              		.loc 1 167 0
 535 002c 3B1C     		mov	r3, r7
 536 002e 0F33     		add	r3, r3, #15
 537 0030 0122     		mov	r2, #1
 538 0032 1A70     		strb	r2, [r3]
 539              	.L28:
 168:C:/data/workspaces/github/de.protos.demos/src/XMC2GoBlinky/etrice.XMC2GoBlinky.demo/src-gen-st/XMC2GoDemoModel\ADimmer.c **** 	}
 169:C:/data/workspaces/github/de.protos.demos/src/XMC2GoBlinky/etrice.XMC2GoBlinky.demo/src-gen-st/XMC2GoDemoModel\ADimmer.c **** 	while (ET_TRUE) {
 170:C:/data/workspaces/github/de.protos.demos/src/XMC2GoBlinky/etrice.XMC2GoBlinky.demo/src-gen-st/XMC2GoDemoModel\ADimmer.c **** 		switch (state__et) {
 540              		.loc 1 170 0
 541 0034 BB1C     		add	r3, r7, #2
 542 0036 0022     		mov	r2, #0
 543 0038 9B5E     		ldrsh	r3, [r3, r2]
 544 003a 022B     		cmp	r3, #2
 545 003c 08D0     		beq	.L31
 546 003e 02DC     		bgt	.L34
 547 0040 012B     		cmp	r3, #1
 548 0042 0BD0     		beq	.L30
 549 0044 0FE0     		b	.L29
 550              	.L34:
 551 0046 032B     		cmp	r3, #3
 552 0048 04D0     		beq	.L32
 553 004a 042B     		cmp	r3, #4
 554 004c 04D0     		beq	.L33
 555 004e 0AE0     		b	.L29
 556              	.L31:
 171:C:/data/workspaces/github/de.protos.demos/src/XMC2GoBlinky/etrice.XMC2GoBlinky.demo/src-gen-st/XMC2GoDemoModel\ADimmer.c **** 			case STATE_goingOn:
 172:C:/data/workspaces/github/de.protos.demos/src/XMC2GoBlinky/etrice.XMC2GoBlinky.demo/src-gen-st/XMC2GoDemoModel\ADimmer.c **** 				/* in leaf state: return state id */
 173:C:/data/workspaces/github/de.protos.demos/src/XMC2GoBlinky/etrice.XMC2GoBlinky.demo/src-gen-st/XMC2GoDemoModel\ADimmer.c **** 				return STATE_goingOn;
 557              		.loc 1 173 0
 558 0050 0223     		mov	r3, #2
 559 0052 0EE0     		b	.L35
 560              	.L32:
 174:C:/data/workspaces/github/de.protos.demos/src/XMC2GoBlinky/etrice.XMC2GoBlinky.demo/src-gen-st/XMC2GoDemoModel\ADimmer.c **** 			case STATE_goingOff:
 175:C:/data/workspaces/github/de.protos.demos/src/XMC2GoBlinky/etrice.XMC2GoBlinky.demo/src-gen-st/XMC2GoDemoModel\ADimmer.c **** 				/* in leaf state: return state id */
 176:C:/data/workspaces/github/de.protos.demos/src/XMC2GoBlinky/etrice.XMC2GoBlinky.demo/src-gen-st/XMC2GoDemoModel\ADimmer.c **** 				return STATE_goingOff;
 561              		.loc 1 176 0
 562 0054 0323     		mov	r3, #3
 563 0056 0CE0     		b	.L35
 564              	.L33:
 177:C:/data/workspaces/github/de.protos.demos/src/XMC2GoBlinky/etrice.XMC2GoBlinky.demo/src-gen-st/XMC2GoDemoModel\ADimmer.c **** 			case STATE_off:
 178:C:/data/workspaces/github/de.protos.demos/src/XMC2GoBlinky/etrice.XMC2GoBlinky.demo/src-gen-st/XMC2GoDemoModel\ADimmer.c **** 				/* in leaf state: return state id */
 179:C:/data/workspaces/github/de.protos.demos/src/XMC2GoBlinky/etrice.XMC2GoBlinky.demo/src-gen-st/XMC2GoDemoModel\ADimmer.c **** 				return STATE_off;
 565              		.loc 1 179 0
 566 0058 0423     		mov	r3, #4
 567 005a 0AE0     		b	.L35
 568              	.L30:
 180:C:/data/workspaces/github/de.protos.demos/src/XMC2GoBlinky/etrice.XMC2GoBlinky.demo/src-gen-st/XMC2GoDemoModel\ADimmer.c **** 			case STATE_TOP:
 181:C:/data/workspaces/github/de.protos.demos/src/XMC2GoBlinky/etrice.XMC2GoBlinky.demo/src-gen-st/XMC2GoDemoModel\ADimmer.c **** 				state__et = self->history[STATE_TOP];
 569              		.loc 1 181 0
 570 005c BB1C     		add	r3, r7, #2
 571 005e 7A68     		ldr	r2, [r7, #4]
 572 0060 128A     		ldrh	r2, [r2, #16]
 573 0062 1A80     		strh	r2, [r3]
 182:C:/data/workspaces/github/de.protos.demos/src/XMC2GoBlinky/etrice.XMC2GoBlinky.demo/src-gen-st/XMC2GoDemoModel\ADimmer.c **** 				break;
 574              		.loc 1 182 0
 575 0064 00E0     		b	.L36
 576              	.L29:
 183:C:/data/workspaces/github/de.protos.demos/src/XMC2GoBlinky/etrice.XMC2GoBlinky.demo/src-gen-st/XMC2GoDemoModel\ADimmer.c **** 			default:
 184:C:/data/workspaces/github/de.protos.demos/src/XMC2GoBlinky/etrice.XMC2GoBlinky.demo/src-gen-st/XMC2GoDemoModel\ADimmer.c **** 				/* should not occur */
 185:C:/data/workspaces/github/de.protos.demos/src/XMC2GoBlinky/etrice.XMC2GoBlinky.demo/src-gen-st/XMC2GoDemoModel\ADimmer.c **** 				break;
 577              		.loc 1 185 0
 578 0066 C046     		mov	r8, r8
 579              	.L36:
 186:C:/data/workspaces/github/de.protos.demos/src/XMC2GoBlinky/etrice.XMC2GoBlinky.demo/src-gen-st/XMC2GoDemoModel\ADimmer.c **** 		}
 187:C:/data/workspaces/github/de.protos.demos/src/XMC2GoBlinky/etrice.XMC2GoBlinky.demo/src-gen-st/XMC2GoDemoModel\ADimmer.c **** 		skip_entry__et = ET_FALSE;
 580              		.loc 1 187 0
 581 0068 3B1C     		mov	r3, r7
 582 006a 0F33     		add	r3, r3, #15
 583 006c 0022     		mov	r2, #0
 584 006e 1A70     		strb	r2, [r3]
 188:C:/data/workspaces/github/de.protos.demos/src/XMC2GoBlinky/etrice.XMC2GoBlinky.demo/src-gen-st/XMC2GoDemoModel\ADimmer.c **** 	}
 585              		.loc 1 188 0
 586 0070 E0E7     		b	.L28
 587              	.L35:
 588 0072 1BB2     		sxth	r3, r3
 189:C:/data/workspaces/github/de.protos.demos/src/XMC2GoBlinky/etrice.XMC2GoBlinky.demo/src-gen-st/XMC2GoDemoModel\ADimmer.c **** 	/* return NO_STATE; // required by CDT but detected as unreachable by JDT because of while (true) 
 190:C:/data/workspaces/github/de.protos.demos/src/XMC2GoBlinky/etrice.XMC2GoBlinky.demo/src-gen-st/XMC2GoDemoModel\ADimmer.c **** }
 589              		.loc 1 190 0
 590 0074 181C     		mov	r0, r3
 591 0076 BD46     		mov	sp, r7
 592 0078 04B0     		add	sp, sp, #16
 593              		@ sp needed for prologue
 594 007a 80BD     		pop	{r7, pc}
 595              		.cfi_endproc
 596              	.LFE41:
 598              		.section	.text.ADimmer_executeInitTransition,"ax",%progbits
 599              		.align	2
 600              		.code	16
 601              		.thumb_func
 603              	ADimmer_executeInitTransition:
 604              	.LFB42:
 191:C:/data/workspaces/github/de.protos.demos/src/XMC2GoBlinky/etrice.XMC2GoBlinky.demo/src-gen-st/XMC2GoDemoModel\ADimmer.c **** 
 192:C:/data/workspaces/github/de.protos.demos/src/XMC2GoBlinky/etrice.XMC2GoBlinky.demo/src-gen-st/XMC2GoDemoModel\ADimmer.c **** static void ADimmer_executeInitTransition(ADimmer* self) {
 605              		.loc 1 192 0
 606              		.cfi_startproc
 607 0000 90B5     		push	{r4, r7, lr}
 608              	.LCFI27:
 609              		.cfi_def_cfa_offset 12
 610              		.cfi_offset 4, -12
 611              		.cfi_offset 7, -8
 612              		.cfi_offset 14, -4
 613 0002 85B0     		sub	sp, sp, #20
 614              	.LCFI28:
 615              		.cfi_def_cfa_offset 32
 616 0004 00AF     		add	r7, sp, #0
 617              	.LCFI29:
 618              		.cfi_def_cfa_register 7
 619 0006 7860     		str	r0, [r7, #4]
 193:C:/data/workspaces/github/de.protos.demos/src/XMC2GoBlinky/etrice.XMC2GoBlinky.demo/src-gen-st/XMC2GoDemoModel\ADimmer.c **** 	int chain__et = CHAIN_TRANS_INITIAL_TO__goingOn;
 620              		.loc 1 193 0
 621 0008 0123     		mov	r3, #1
 622 000a FB60     		str	r3, [r7, #12]
 194:C:/data/workspaces/github/de.protos.demos/src/XMC2GoBlinky/etrice.XMC2GoBlinky.demo/src-gen-st/XMC2GoDemoModel\ADimmer.c **** 	etInt16 next__et = executeTransitionChain(self, chain__et, NULL, NULL);
 623              		.loc 1 194 0
 624 000c 3C1C     		mov	r4, r7
 625 000e 0A34     		add	r4, r4, #10
 626 0010 7A68     		ldr	r2, [r7, #4]
 627 0012 FB68     		ldr	r3, [r7, #12]
 628 0014 101C     		mov	r0, r2
 629 0016 191C     		mov	r1, r3
 630 0018 0022     		mov	r2, #0
 631 001a 0023     		mov	r3, #0
 632 001c FFF7FEFF 		bl	executeTransitionChain
 633 0020 031C     		mov	r3, r0
 634 0022 2380     		strh	r3, [r4]
 195:C:/data/workspaces/github/de.protos.demos/src/XMC2GoBlinky/etrice.XMC2GoBlinky.demo/src-gen-st/XMC2GoDemoModel\ADimmer.c **** 	next__et = enterHistory(self, next__et);
 635              		.loc 1 195 0
 636 0024 3C1C     		mov	r4, r7
 637 0026 0A34     		add	r4, r4, #10
 638 0028 7A68     		ldr	r2, [r7, #4]
 639 002a 3B1C     		mov	r3, r7
 640 002c 0A33     		add	r3, r3, #10
 641 002e 0021     		mov	r1, #0
 642 0030 5B5E     		ldrsh	r3, [r3, r1]
 643 0032 101C     		mov	r0, r2
 644 0034 191C     		mov	r1, r3
 645 0036 FFF7FEFF 		bl	enterHistory
 646 003a 031C     		mov	r3, r0
 647 003c 2380     		strh	r3, [r4]
 196:C:/data/workspaces/github/de.protos.demos/src/XMC2GoBlinky/etrice.XMC2GoBlinky.demo/src-gen-st/XMC2GoDemoModel\ADimmer.c **** 	setState(self, next__et);
 648              		.loc 1 196 0
 649 003e 7A68     		ldr	r2, [r7, #4]
 650 0040 3B1C     		mov	r3, r7
 651 0042 0A33     		add	r3, r3, #10
 652 0044 0021     		mov	r1, #0
 653 0046 5B5E     		ldrsh	r3, [r3, r1]
 654 0048 101C     		mov	r0, r2
 655 004a 191C     		mov	r1, r3
 656 004c FFF7FEFF 		bl	setState
 197:C:/data/workspaces/github/de.protos.demos/src/XMC2GoBlinky/etrice.XMC2GoBlinky.demo/src-gen-st/XMC2GoDemoModel\ADimmer.c **** }
 657              		.loc 1 197 0
 658 0050 BD46     		mov	sp, r7
 659 0052 05B0     		add	sp, sp, #20
 660              		@ sp needed for prologue
 661 0054 90BD     		pop	{r4, r7, pc}
 662              		.cfi_endproc
 663              	.LFE42:
 665 0056 C046     		.section	.text.ADimmer_receiveEvent,"ax",%progbits
 666              		.align	2
 667              		.code	16
 668              		.thumb_func
 670              	ADimmer_receiveEvent:
 671              	.LFB43:
 198:C:/data/workspaces/github/de.protos.demos/src/XMC2GoBlinky/etrice.XMC2GoBlinky.demo/src-gen-st/XMC2GoDemoModel\ADimmer.c **** 
 199:C:/data/workspaces/github/de.protos.demos/src/XMC2GoBlinky/etrice.XMC2GoBlinky.demo/src-gen-st/XMC2GoDemoModel\ADimmer.c **** /* receiveEvent contains the main implementation of the FSM */
 200:C:/data/workspaces/github/de.protos.demos/src/XMC2GoBlinky/etrice.XMC2GoBlinky.demo/src-gen-st/XMC2GoDemoModel\ADimmer.c **** static void ADimmer_receiveEvent(ADimmer* self, InterfaceItemBase* ifitem, int evt, void* generic_d
 672              		.loc 1 200 0
 673              		.cfi_startproc
 674 0000 90B5     		push	{r4, r7, lr}
 675              	.LCFI30:
 676              		.cfi_def_cfa_offset 12
 677              		.cfi_offset 4, -12
 678              		.cfi_offset 7, -8
 679              		.cfi_offset 14, -4
 680 0002 89B0     		sub	sp, sp, #36
 681              	.LCFI31:
 682              		.cfi_def_cfa_offset 48
 683 0004 00AF     		add	r7, sp, #0
 684              	.LCFI32:
 685              		.cfi_def_cfa_register 7
 686 0006 F860     		str	r0, [r7, #12]
 687 0008 B960     		str	r1, [r7, #8]
 688 000a 7A60     		str	r2, [r7, #4]
 689 000c 3B60     		str	r3, [r7]
 201:C:/data/workspaces/github/de.protos.demos/src/XMC2GoBlinky/etrice.XMC2GoBlinky.demo/src-gen-st/XMC2GoDemoModel\ADimmer.c **** 	int trigger__et = ifitem->localId + EVT_SHIFT*evt;
 690              		.loc 1 201 0
 691 000e BB68     		ldr	r3, [r7, #8]
 692 0010 5B7A     		ldrb	r3, [r3, #9]
 693 0012 1A1C     		mov	r2, r3
 694 0014 7B68     		ldr	r3, [r7, #4]
 695 0016 6421     		mov	r1, #100
 696 0018 4B43     		mul	r3, r1
 697 001a D318     		add	r3, r2, r3
 698 001c 7B61     		str	r3, [r7, #20]
 202:C:/data/workspaces/github/de.protos.demos/src/XMC2GoBlinky/etrice.XMC2GoBlinky.demo/src-gen-st/XMC2GoDemoModel\ADimmer.c **** 	int chain__et = NOT_CAUGHT;
 699              		.loc 1 202 0
 700 001e 0023     		mov	r3, #0
 701 0020 FB61     		str	r3, [r7, #28]
 203:C:/data/workspaces/github/de.protos.demos/src/XMC2GoBlinky/etrice.XMC2GoBlinky.demo/src-gen-st/XMC2GoDemoModel\ADimmer.c **** 	etInt16 catching_state__et = NO_STATE;
 702              		.loc 1 203 0
 703 0022 3B1C     		mov	r3, r7
 704 0024 1A33     		add	r3, r3, #26
 705 0026 0022     		mov	r2, #0
 706 0028 1A80     		strh	r2, [r3]
 204:C:/data/workspaces/github/de.protos.demos/src/XMC2GoBlinky/etrice.XMC2GoBlinky.demo/src-gen-st/XMC2GoDemoModel\ADimmer.c **** 	((void)trigger__et);	/* avoids unused warning */
 205:C:/data/workspaces/github/de.protos.demos/src/XMC2GoBlinky/etrice.XMC2GoBlinky.demo/src-gen-st/XMC2GoDemoModel\ADimmer.c **** 	
 206:C:/data/workspaces/github/de.protos.demos/src/XMC2GoBlinky/etrice.XMC2GoBlinky.demo/src-gen-st/XMC2GoDemoModel\ADimmer.c **** 	if (!handleSystemEvent(ifitem, evt, generic_data__et)) {
 707              		.loc 1 206 0
 708 002a B968     		ldr	r1, [r7, #8]
 709 002c 7A68     		ldr	r2, [r7, #4]
 710 002e 3B68     		ldr	r3, [r7]
 711 0030 081C     		mov	r0, r1
 712 0032 111C     		mov	r1, r2
 713 0034 1A1C     		mov	r2, r3
 714 0036 FFF7FEFF 		bl	handleSystemEvent
 715 003a 031C     		mov	r3, r0
 716 003c 002B     		cmp	r3, #0
 717 003e 2FD1     		bne	.L39
 207:C:/data/workspaces/github/de.protos.demos/src/XMC2GoBlinky/etrice.XMC2GoBlinky.demo/src-gen-st/XMC2GoDemoModel\ADimmer.c **** 		switch (getState(self)) {
 718              		.loc 1 207 0
 719 0040 FB68     		ldr	r3, [r7, #12]
 720 0042 181C     		mov	r0, r3
 721 0044 FFF7FEFF 		bl	getState
 722 0048 031C     		mov	r3, r0
 723 004a 032B     		cmp	r3, #3
 724 004c 0FD0     		beq	.L42
 725 004e 042B     		cmp	r3, #4
 726 0050 19D0     		beq	.L43
 727 0052 022B     		cmp	r3, #2
 728 0054 23D1     		bne	.L54
 729              	.L41:
 208:C:/data/workspaces/github/de.protos.demos/src/XMC2GoBlinky/etrice.XMC2GoBlinky.demo/src-gen-st/XMC2GoDemoModel\ADimmer.c **** 			case STATE_goingOn:
 209:C:/data/workspaces/github/de.protos.demos/src/XMC2GoBlinky/etrice.XMC2GoBlinky.demo/src-gen-st/XMC2GoDemoModel\ADimmer.c **** 				switch(trigger__et) {
 730              		.loc 1 209 0
 731 0056 7B69     		ldr	r3, [r7, #20]
 732 0058 662B     		cmp	r3, #102
 733 005a 06D1     		bne	.L55
 734              	.L45:
 210:C:/data/workspaces/github/de.protos.demos/src/XMC2GoBlinky/etrice.XMC2GoBlinky.demo/src-gen-st/XMC2GoDemoModel\ADimmer.c **** 						case TRIG_timer__timeout:
 211:C:/data/workspaces/github/de.protos.demos/src/XMC2GoBlinky/etrice.XMC2GoBlinky.demo/src-gen-st/XMC2GoDemoModel\ADimmer.c **** 							{
 212:C:/data/workspaces/github/de.protos.demos/src/XMC2GoBlinky/etrice.XMC2GoBlinky.demo/src-gen-st/XMC2GoDemoModel\ADimmer.c **** 								chain__et = CHAIN_TRANS_tr1_FROM_goingOn_TO_cp0_BY_timeouttimer;
 735              		.loc 1 212 0
 736 005c 0223     		mov	r3, #2
 737 005e FB61     		str	r3, [r7, #28]
 213:C:/data/workspaces/github/de.protos.demos/src/XMC2GoBlinky/etrice.XMC2GoBlinky.demo/src-gen-st/XMC2GoDemoModel\ADimmer.c **** 								catching_state__et = STATE_TOP;
 738              		.loc 1 213 0
 739 0060 3B1C     		mov	r3, r7
 740 0062 1A33     		add	r3, r3, #26
 741 0064 0122     		mov	r2, #1
 742 0066 1A80     		strh	r2, [r3]
 214:C:/data/workspaces/github/de.protos.demos/src/XMC2GoBlinky/etrice.XMC2GoBlinky.demo/src-gen-st/XMC2GoDemoModel\ADimmer.c **** 							}
 215:C:/data/workspaces/github/de.protos.demos/src/XMC2GoBlinky/etrice.XMC2GoBlinky.demo/src-gen-st/XMC2GoDemoModel\ADimmer.c **** 						break;
 743              		.loc 1 215 0
 744 0068 00E0     		b	.L46
 745              	.L55:
 216:C:/data/workspaces/github/de.protos.demos/src/XMC2GoBlinky/etrice.XMC2GoBlinky.demo/src-gen-st/XMC2GoDemoModel\ADimmer.c **** 						default:
 217:C:/data/workspaces/github/de.protos.demos/src/XMC2GoBlinky/etrice.XMC2GoBlinky.demo/src-gen-st/XMC2GoDemoModel\ADimmer.c **** 							/* should not occur */
 218:C:/data/workspaces/github/de.protos.demos/src/XMC2GoBlinky/etrice.XMC2GoBlinky.demo/src-gen-st/XMC2GoDemoModel\ADimmer.c **** 							break;
 746              		.loc 1 218 0
 747 006a C046     		mov	r8, r8
 748              	.L46:
 219:C:/data/workspaces/github/de.protos.demos/src/XMC2GoBlinky/etrice.XMC2GoBlinky.demo/src-gen-st/XMC2GoDemoModel\ADimmer.c **** 				}
 220:C:/data/workspaces/github/de.protos.demos/src/XMC2GoBlinky/etrice.XMC2GoBlinky.demo/src-gen-st/XMC2GoDemoModel\ADimmer.c **** 				break;
 749              		.loc 1 220 0
 750 006c 18E0     		b	.L39
 751              	.L42:
 221:C:/data/workspaces/github/de.protos.demos/src/XMC2GoBlinky/etrice.XMC2GoBlinky.demo/src-gen-st/XMC2GoDemoModel\ADimmer.c **** 			case STATE_goingOff:
 222:C:/data/workspaces/github/de.protos.demos/src/XMC2GoBlinky/etrice.XMC2GoBlinky.demo/src-gen-st/XMC2GoDemoModel\ADimmer.c **** 				switch(trigger__et) {
 752              		.loc 1 222 0
 753 006e 7B69     		ldr	r3, [r7, #20]
 754 0070 662B     		cmp	r3, #102
 755 0072 06D1     		bne	.L56
 756              	.L48:
 223:C:/data/workspaces/github/de.protos.demos/src/XMC2GoBlinky/etrice.XMC2GoBlinky.demo/src-gen-st/XMC2GoDemoModel\ADimmer.c **** 						case TRIG_timer__timeout:
 224:C:/data/workspaces/github/de.protos.demos/src/XMC2GoBlinky/etrice.XMC2GoBlinky.demo/src-gen-st/XMC2GoDemoModel\ADimmer.c **** 							{
 225:C:/data/workspaces/github/de.protos.demos/src/XMC2GoBlinky/etrice.XMC2GoBlinky.demo/src-gen-st/XMC2GoDemoModel\ADimmer.c **** 								chain__et = CHAIN_TRANS_tr3_FROM_goingOff_TO_cp1_BY_timeouttimer;
 757              		.loc 1 225 0
 758 0074 0323     		mov	r3, #3
 759 0076 FB61     		str	r3, [r7, #28]
 226:C:/data/workspaces/github/de.protos.demos/src/XMC2GoBlinky/etrice.XMC2GoBlinky.demo/src-gen-st/XMC2GoDemoModel\ADimmer.c **** 								catching_state__et = STATE_TOP;
 760              		.loc 1 226 0
 761 0078 3B1C     		mov	r3, r7
 762 007a 1A33     		add	r3, r3, #26
 763 007c 0122     		mov	r2, #1
 764 007e 1A80     		strh	r2, [r3]
 227:C:/data/workspaces/github/de.protos.demos/src/XMC2GoBlinky/etrice.XMC2GoBlinky.demo/src-gen-st/XMC2GoDemoModel\ADimmer.c **** 							}
 228:C:/data/workspaces/github/de.protos.demos/src/XMC2GoBlinky/etrice.XMC2GoBlinky.demo/src-gen-st/XMC2GoDemoModel\ADimmer.c **** 						break;
 765              		.loc 1 228 0
 766 0080 00E0     		b	.L49
 767              	.L56:
 229:C:/data/workspaces/github/de.protos.demos/src/XMC2GoBlinky/etrice.XMC2GoBlinky.demo/src-gen-st/XMC2GoDemoModel\ADimmer.c **** 						default:
 230:C:/data/workspaces/github/de.protos.demos/src/XMC2GoBlinky/etrice.XMC2GoBlinky.demo/src-gen-st/XMC2GoDemoModel\ADimmer.c **** 							/* should not occur */
 231:C:/data/workspaces/github/de.protos.demos/src/XMC2GoBlinky/etrice.XMC2GoBlinky.demo/src-gen-st/XMC2GoDemoModel\ADimmer.c **** 							break;
 768              		.loc 1 231 0
 769 0082 C046     		mov	r8, r8
 770              	.L49:
 232:C:/data/workspaces/github/de.protos.demos/src/XMC2GoBlinky/etrice.XMC2GoBlinky.demo/src-gen-st/XMC2GoDemoModel\ADimmer.c **** 				}
 233:C:/data/workspaces/github/de.protos.demos/src/XMC2GoBlinky/etrice.XMC2GoBlinky.demo/src-gen-st/XMC2GoDemoModel\ADimmer.c **** 				break;
 771              		.loc 1 233 0
 772 0084 0CE0     		b	.L39
 773              	.L43:
 234:C:/data/workspaces/github/de.protos.demos/src/XMC2GoBlinky/etrice.XMC2GoBlinky.demo/src-gen-st/XMC2GoDemoModel\ADimmer.c **** 			case STATE_off:
 235:C:/data/workspaces/github/de.protos.demos/src/XMC2GoBlinky/etrice.XMC2GoBlinky.demo/src-gen-st/XMC2GoDemoModel\ADimmer.c **** 				switch(trigger__et) {
 774              		.loc 1 235 0
 775 0086 7B69     		ldr	r3, [r7, #20]
 776 0088 662B     		cmp	r3, #102
 777 008a 06D1     		bne	.L57
 778              	.L51:
 236:C:/data/workspaces/github/de.protos.demos/src/XMC2GoBlinky/etrice.XMC2GoBlinky.demo/src-gen-st/XMC2GoDemoModel\ADimmer.c **** 						case TRIG_timer__timeout:
 237:C:/data/workspaces/github/de.protos.demos/src/XMC2GoBlinky/etrice.XMC2GoBlinky.demo/src-gen-st/XMC2GoDemoModel\ADimmer.c **** 							{
 238:C:/data/workspaces/github/de.protos.demos/src/XMC2GoBlinky/etrice.XMC2GoBlinky.demo/src-gen-st/XMC2GoDemoModel\ADimmer.c **** 								chain__et = CHAIN_TRANS_tr7_FROM_off_TO_cp2_BY_timeouttimer;
 779              		.loc 1 238 0
 780 008c 0423     		mov	r3, #4
 781 008e FB61     		str	r3, [r7, #28]
 239:C:/data/workspaces/github/de.protos.demos/src/XMC2GoBlinky/etrice.XMC2GoBlinky.demo/src-gen-st/XMC2GoDemoModel\ADimmer.c **** 								catching_state__et = STATE_TOP;
 782              		.loc 1 239 0
 783 0090 3B1C     		mov	r3, r7
 784 0092 1A33     		add	r3, r3, #26
 785 0094 0122     		mov	r2, #1
 786 0096 1A80     		strh	r2, [r3]
 240:C:/data/workspaces/github/de.protos.demos/src/XMC2GoBlinky/etrice.XMC2GoBlinky.demo/src-gen-st/XMC2GoDemoModel\ADimmer.c **** 							}
 241:C:/data/workspaces/github/de.protos.demos/src/XMC2GoBlinky/etrice.XMC2GoBlinky.demo/src-gen-st/XMC2GoDemoModel\ADimmer.c **** 						break;
 787              		.loc 1 241 0
 788 0098 00E0     		b	.L52
 789              	.L57:
 242:C:/data/workspaces/github/de.protos.demos/src/XMC2GoBlinky/etrice.XMC2GoBlinky.demo/src-gen-st/XMC2GoDemoModel\ADimmer.c **** 						default:
 243:C:/data/workspaces/github/de.protos.demos/src/XMC2GoBlinky/etrice.XMC2GoBlinky.demo/src-gen-st/XMC2GoDemoModel\ADimmer.c **** 							/* should not occur */
 244:C:/data/workspaces/github/de.protos.demos/src/XMC2GoBlinky/etrice.XMC2GoBlinky.demo/src-gen-st/XMC2GoDemoModel\ADimmer.c **** 							break;
 790              		.loc 1 244 0
 791 009a C046     		mov	r8, r8
 792              	.L52:
 245:C:/data/workspaces/github/de.protos.demos/src/XMC2GoBlinky/etrice.XMC2GoBlinky.demo/src-gen-st/XMC2GoDemoModel\ADimmer.c **** 				}
 246:C:/data/workspaces/github/de.protos.demos/src/XMC2GoBlinky/etrice.XMC2GoBlinky.demo/src-gen-st/XMC2GoDemoModel\ADimmer.c **** 				break;
 793              		.loc 1 246 0
 794 009c 00E0     		b	.L39
 795              	.L54:
 247:C:/data/workspaces/github/de.protos.demos/src/XMC2GoBlinky/etrice.XMC2GoBlinky.demo/src-gen-st/XMC2GoDemoModel\ADimmer.c **** 			default:
 248:C:/data/workspaces/github/de.protos.demos/src/XMC2GoBlinky/etrice.XMC2GoBlinky.demo/src-gen-st/XMC2GoDemoModel\ADimmer.c **** 				/* should not occur */
 249:C:/data/workspaces/github/de.protos.demos/src/XMC2GoBlinky/etrice.XMC2GoBlinky.demo/src-gen-st/XMC2GoDemoModel\ADimmer.c **** 				break;
 796              		.loc 1 249 0
 797 009e C046     		mov	r8, r8
 798              	.L39:
 250:C:/data/workspaces/github/de.protos.demos/src/XMC2GoBlinky/etrice.XMC2GoBlinky.demo/src-gen-st/XMC2GoDemoModel\ADimmer.c **** 		}
 251:C:/data/workspaces/github/de.protos.demos/src/XMC2GoBlinky/etrice.XMC2GoBlinky.demo/src-gen-st/XMC2GoDemoModel\ADimmer.c **** 	}
 252:C:/data/workspaces/github/de.protos.demos/src/XMC2GoBlinky/etrice.XMC2GoBlinky.demo/src-gen-st/XMC2GoDemoModel\ADimmer.c **** 	if (chain__et != NOT_CAUGHT) {
 799              		.loc 1 252 0
 800 00a0 FB69     		ldr	r3, [r7, #28]
 801 00a2 002B     		cmp	r3, #0
 802 00a4 2FD0     		beq	.L38
 253:C:/data/workspaces/github/de.protos.demos/src/XMC2GoBlinky/etrice.XMC2GoBlinky.demo/src-gen-st/XMC2GoDemoModel\ADimmer.c **** 		exitTo(self, getState(self), catching_state__et);
 803              		.loc 1 253 0
 804 00a6 FB68     		ldr	r3, [r7, #12]
 805 00a8 181C     		mov	r0, r3
 806 00aa FFF7FEFF 		bl	getState
 807 00ae 031C     		mov	r3, r0
 808 00b0 1A1C     		mov	r2, r3
 809 00b2 F968     		ldr	r1, [r7, #12]
 810 00b4 3B1C     		mov	r3, r7
 811 00b6 1A33     		add	r3, r3, #26
 812 00b8 0020     		mov	r0, #0
 813 00ba 1B5E     		ldrsh	r3, [r3, r0]
 814 00bc 081C     		mov	r0, r1
 815 00be 111C     		mov	r1, r2
 816 00c0 1A1C     		mov	r2, r3
 817 00c2 FFF7FEFF 		bl	exitTo
 818              	.LBB2:
 254:C:/data/workspaces/github/de.protos.demos/src/XMC2GoBlinky/etrice.XMC2GoBlinky.demo/src-gen-st/XMC2GoDemoModel\ADimmer.c **** 		{
 255:C:/data/workspaces/github/de.protos.demos/src/XMC2GoBlinky/etrice.XMC2GoBlinky.demo/src-gen-st/XMC2GoDemoModel\ADimmer.c **** 			etInt16 next__et = executeTransitionChain(self, chain__et, ifitem, generic_data__et);
 819              		.loc 1 255 0
 820 00c6 3C1C     		mov	r4, r7
 821 00c8 1234     		add	r4, r4, #18
 822 00ca F868     		ldr	r0, [r7, #12]
 823 00cc F969     		ldr	r1, [r7, #28]
 824 00ce BA68     		ldr	r2, [r7, #8]
 825 00d0 3B68     		ldr	r3, [r7]
 826 00d2 FFF7FEFF 		bl	executeTransitionChain
 827 00d6 031C     		mov	r3, r0
 828 00d8 2380     		strh	r3, [r4]
 256:C:/data/workspaces/github/de.protos.demos/src/XMC2GoBlinky/etrice.XMC2GoBlinky.demo/src-gen-st/XMC2GoDemoModel\ADimmer.c **** 			next__et = enterHistory(self, next__et);
 829              		.loc 1 256 0
 830 00da 3C1C     		mov	r4, r7
 831 00dc 1234     		add	r4, r4, #18
 832 00de FA68     		ldr	r2, [r7, #12]
 833 00e0 3B1C     		mov	r3, r7
 834 00e2 1233     		add	r3, r3, #18
 835 00e4 0021     		mov	r1, #0
 836 00e6 5B5E     		ldrsh	r3, [r3, r1]
 837 00e8 101C     		mov	r0, r2
 838 00ea 191C     		mov	r1, r3
 839 00ec FFF7FEFF 		bl	enterHistory
 840 00f0 031C     		mov	r3, r0
 841 00f2 2380     		strh	r3, [r4]
 257:C:/data/workspaces/github/de.protos.demos/src/XMC2GoBlinky/etrice.XMC2GoBlinky.demo/src-gen-st/XMC2GoDemoModel\ADimmer.c **** 			setState(self, next__et);
 842              		.loc 1 257 0
 843 00f4 FA68     		ldr	r2, [r7, #12]
 844 00f6 3B1C     		mov	r3, r7
 845 00f8 1233     		add	r3, r3, #18
 846 00fa 0020     		mov	r0, #0
 847 00fc 1B5E     		ldrsh	r3, [r3, r0]
 848 00fe 101C     		mov	r0, r2
 849 0100 191C     		mov	r1, r3
 850 0102 FFF7FEFF 		bl	setState
 851              	.L38:
 852              	.LBE2:
 258:C:/data/workspaces/github/de.protos.demos/src/XMC2GoBlinky/etrice.XMC2GoBlinky.demo/src-gen-st/XMC2GoDemoModel\ADimmer.c **** 		}
 259:C:/data/workspaces/github/de.protos.demos/src/XMC2GoBlinky/etrice.XMC2GoBlinky.demo/src-gen-st/XMC2GoDemoModel\ADimmer.c **** 	}
 260:C:/data/workspaces/github/de.protos.demos/src/XMC2GoBlinky/etrice.XMC2GoBlinky.demo/src-gen-st/XMC2GoDemoModel\ADimmer.c **** }
 853              		.loc 1 260 0
 854 0106 BD46     		mov	sp, r7
 855 0108 09B0     		add	sp, sp, #36
 856              		@ sp needed for prologue
 857 010a 90BD     		pop	{r4, r7, pc}
 858              		.cfi_endproc
 859              	.LFE43:
 861              		.section	.text.ADimmer_init,"ax",%progbits
 862              		.align	2
 863              		.global	ADimmer_init
 864              		.code	16
 865              		.thumb_func
 867              	ADimmer_init:
 868              	.LFB44:
 261:C:/data/workspaces/github/de.protos.demos/src/XMC2GoBlinky/etrice.XMC2GoBlinky.demo/src-gen-st/XMC2GoDemoModel\ADimmer.c **** 
 262:C:/data/workspaces/github/de.protos.demos/src/XMC2GoBlinky/etrice.XMC2GoBlinky.demo/src-gen-st/XMC2GoDemoModel\ADimmer.c **** void ADimmer_init(ADimmer* self){
 869              		.loc 1 262 0
 870              		.cfi_startproc
 871 0000 80B5     		push	{r7, lr}
 872              	.LCFI33:
 873              		.cfi_def_cfa_offset 8
 874              		.cfi_offset 7, -8
 875              		.cfi_offset 14, -4
 876 0002 84B0     		sub	sp, sp, #16
 877              	.LCFI34:
 878              		.cfi_def_cfa_offset 24
 879 0004 00AF     		add	r7, sp, #0
 880              	.LCFI35:
 881              		.cfi_def_cfa_register 7
 882 0006 7860     		str	r0, [r7, #4]
 263:C:/data/workspaces/github/de.protos.demos/src/XMC2GoBlinky/etrice.XMC2GoBlinky.demo/src-gen-st/XMC2GoDemoModel\ADimmer.c **** 	ET_MSC_LOGGER_SYNC_ENTRY("ADimmer", "init")
 264:C:/data/workspaces/github/de.protos.demos/src/XMC2GoBlinky/etrice.XMC2GoBlinky.demo/src-gen-st/XMC2GoDemoModel\ADimmer.c **** 	self->state = STATE_TOP;
 883              		.loc 1 264 0
 884 0008 7B68     		ldr	r3, [r7, #4]
 885 000a 0122     		mov	r2, #1
 886 000c 9A81     		strh	r2, [r3, #12]
 887              	.LBB3:
 265:C:/data/workspaces/github/de.protos.demos/src/XMC2GoBlinky/etrice.XMC2GoBlinky.demo/src-gen-st/XMC2GoDemoModel\ADimmer.c **** 	{
 266:C:/data/workspaces/github/de.protos.demos/src/XMC2GoBlinky/etrice.XMC2GoBlinky.demo/src-gen-st/XMC2GoDemoModel\ADimmer.c **** 		int i;
 267:C:/data/workspaces/github/de.protos.demos/src/XMC2GoBlinky/etrice.XMC2GoBlinky.demo/src-gen-st/XMC2GoDemoModel\ADimmer.c **** 		for (i=0; i<ADIMMER_HISTORY_SIZE; ++i)
 888              		.loc 1 267 0
 889 000e 0023     		mov	r3, #0
 890 0010 FB60     		str	r3, [r7, #12]
 891 0012 09E0     		b	.L59
 892              	.L60:
 268:C:/data/workspaces/github/de.protos.demos/src/XMC2GoBlinky/etrice.XMC2GoBlinky.demo/src-gen-st/XMC2GoDemoModel\ADimmer.c **** 			self->history[i] = NO_STATE;
 893              		.loc 1 268 0 discriminator 2
 894 0014 7A68     		ldr	r2, [r7, #4]
 895 0016 FB68     		ldr	r3, [r7, #12]
 896 0018 0433     		add	r3, r3, #4
 897 001a 5B00     		lsl	r3, r3, #1
 898 001c D318     		add	r3, r2, r3
 899 001e 0022     		mov	r2, #0
 900 0020 DA80     		strh	r2, [r3, #6]
 267:C:/data/workspaces/github/de.protos.demos/src/XMC2GoBlinky/etrice.XMC2GoBlinky.demo/src-gen-st/XMC2GoDemoModel\ADimmer.c **** 		for (i=0; i<ADIMMER_HISTORY_SIZE; ++i)
 901              		.loc 1 267 0 discriminator 2
 902 0022 FB68     		ldr	r3, [r7, #12]
 903 0024 0133     		add	r3, r3, #1
 904 0026 FB60     		str	r3, [r7, #12]
 905              	.L59:
 267:C:/data/workspaces/github/de.protos.demos/src/XMC2GoBlinky/etrice.XMC2GoBlinky.demo/src-gen-st/XMC2GoDemoModel\ADimmer.c **** 		for (i=0; i<ADIMMER_HISTORY_SIZE; ++i)
 906              		.loc 1 267 0 is_stmt 0 discriminator 1
 907 0028 FB68     		ldr	r3, [r7, #12]
 908 002a 012B     		cmp	r3, #1
 909 002c F2DD     		ble	.L60
 910              	.LBE3:
 269:C:/data/workspaces/github/de.protos.demos/src/XMC2GoBlinky/etrice.XMC2GoBlinky.demo/src-gen-st/XMC2GoDemoModel\ADimmer.c **** 	}
 270:C:/data/workspaces/github/de.protos.demos/src/XMC2GoBlinky/etrice.XMC2GoBlinky.demo/src-gen-st/XMC2GoDemoModel\ADimmer.c **** 	ADimmer_executeInitTransition(self);
 911              		.loc 1 270 0 is_stmt 1
 912 002e 7B68     		ldr	r3, [r7, #4]
 913 0030 181C     		mov	r0, r3
 914 0032 FFF7FEFF 		bl	ADimmer_executeInitTransition
 271:C:/data/workspaces/github/de.protos.demos/src/XMC2GoBlinky/etrice.XMC2GoBlinky.demo/src-gen-st/XMC2GoDemoModel\ADimmer.c **** 	ET_MSC_LOGGER_SYNC_EXIT
 272:C:/data/workspaces/github/de.protos.demos/src/XMC2GoBlinky/etrice.XMC2GoBlinky.demo/src-gen-st/XMC2GoDemoModel\ADimmer.c **** }
 915              		.loc 1 272 0
 916 0036 BD46     		mov	sp, r7
 917 0038 04B0     		add	sp, sp, #16
 918              		@ sp needed for prologue
 919 003a 80BD     		pop	{r7, pc}
 920              		.cfi_endproc
 921              	.LFE44:
 923              		.section	.text.ADimmer_receiveMessage,"ax",%progbits
 924              		.align	2
 925              		.global	ADimmer_receiveMessage
 926              		.code	16
 927              		.thumb_func
 929              	ADimmer_receiveMessage:
 930              	.LFB45:
 273:C:/data/workspaces/github/de.protos.demos/src/XMC2GoBlinky/etrice.XMC2GoBlinky.demo/src-gen-st/XMC2GoDemoModel\ADimmer.c **** 
 274:C:/data/workspaces/github/de.protos.demos/src/XMC2GoBlinky/etrice.XMC2GoBlinky.demo/src-gen-st/XMC2GoDemoModel\ADimmer.c **** 
 275:C:/data/workspaces/github/de.protos.demos/src/XMC2GoBlinky/etrice.XMC2GoBlinky.demo/src-gen-st/XMC2GoDemoModel\ADimmer.c **** void ADimmer_receiveMessage(void* self, const void* ifitem, const etMessage* msg){
 931              		.loc 1 275 0
 932              		.cfi_startproc
 933 0000 80B5     		push	{r7, lr}
 934              	.LCFI36:
 935              		.cfi_def_cfa_offset 8
 936              		.cfi_offset 7, -8
 937              		.cfi_offset 14, -4
 938 0002 84B0     		sub	sp, sp, #16
 939              	.LCFI37:
 940              		.cfi_def_cfa_offset 24
 941 0004 00AF     		add	r7, sp, #0
 942              	.LCFI38:
 943              		.cfi_def_cfa_register 7
 944 0006 F860     		str	r0, [r7, #12]
 945 0008 B960     		str	r1, [r7, #8]
 946 000a 7A60     		str	r2, [r7, #4]
 276:C:/data/workspaces/github/de.protos.demos/src/XMC2GoBlinky/etrice.XMC2GoBlinky.demo/src-gen-st/XMC2GoDemoModel\ADimmer.c **** 	ET_MSC_LOGGER_SYNC_ENTRY("ADimmer", "_receiveMessage")
 277:C:/data/workspaces/github/de.protos.demos/src/XMC2GoBlinky/etrice.XMC2GoBlinky.demo/src-gen-st/XMC2GoDemoModel\ADimmer.c **** 	
 278:C:/data/workspaces/github/de.protos.demos/src/XMC2GoBlinky/etrice.XMC2GoBlinky.demo/src-gen-st/XMC2GoDemoModel\ADimmer.c **** 	ADimmer_receiveEvent(self, (etPort*)ifitem, msg->evtID, (void*)(((char*)msg)+MEM_CEIL(sizeof(etMes
 947              		.loc 1 278 0
 948 000c 7B68     		ldr	r3, [r7, #4]
 949 000e DB88     		ldrh	r3, [r3, #6]
 950 0010 1AB2     		sxth	r2, r3
 951 0012 7B68     		ldr	r3, [r7, #4]
 952 0014 0833     		add	r3, r3, #8
 953 0016 F868     		ldr	r0, [r7, #12]
 954 0018 B968     		ldr	r1, [r7, #8]
 955 001a FFF7FEFF 		bl	ADimmer_receiveEvent
 279:C:/data/workspaces/github/de.protos.demos/src/XMC2GoBlinky/etrice.XMC2GoBlinky.demo/src-gen-st/XMC2GoDemoModel\ADimmer.c **** 	
 280:C:/data/workspaces/github/de.protos.demos/src/XMC2GoBlinky/etrice.XMC2GoBlinky.demo/src-gen-st/XMC2GoDemoModel\ADimmer.c **** 	ET_MSC_LOGGER_SYNC_EXIT
 281:C:/data/workspaces/github/de.protos.demos/src/XMC2GoBlinky/etrice.XMC2GoBlinky.demo/src-gen-st/XMC2GoDemoModel\ADimmer.c **** }
 956              		.loc 1 281 0
 957 001e BD46     		mov	sp, r7
 958 0020 04B0     		add	sp, sp, #16
 959              		@ sp needed for prologue
 960 0022 80BD     		pop	{r7, pc}
 961              		.cfi_endproc
 962              	.LFE45:
 964              		.text
 965              	.Letext0:
 966              		.file 2 "C:\\data\\workspaces\\github\\de.protos.demos\\src\\XMC2GoBlinky\\etrice.runtime.c\\eTric
 967              		.file 3 "C:\\data\\workspaces\\github\\de.protos.demos\\src\\XMC2GoBlinky\\etrice.runtime.c\\eTric
 968              		.file 4 "C:\\data\\workspaces\\github\\de.protos.demos\\src\\XMC2GoBlinky\\etrice.runtime.c\\eTric
 969              		.file 5 "C:\\data\\workspaces\\github\\de.protos.demos\\src\\XMC2GoBlinky\\etrice.runtime.c\\eTric
 970              		.file 6 "C:\\data\\workspaces\\github\\de.protos.demos\\src\\XMC2GoBlinky\\etrice.runtime.c\\eTric
 971              		.file 7 "C:\\data\\workspaces\\github\\de.protos.demos\\src\\XMC2GoBlinky\\etrice.runtime.c\\eTric
 972              		.file 8 "C:\\data\\workspaces\\github\\de.protos.demos\\src\\XMC2GoBlinky\\etrice.runtime.c\\eTric
 973              		.file 9 "C:\\data\\workspaces\\github\\de.protos.demos\\src\\XMC2GoBlinky\\etrice.runtime.c\\eTric
 974              		.file 10 "C:\\data\\workspaces\\github\\de.protos.demos\\src\\XMC2GoBlinky\\etrice.runtime.c\\eTri
 975              		.file 11 "C:\\data\\workspaces\\github\\de.protos.demos\\src\\XMC2GoBlinky\\etrice.runtime.c\\eTri
 976              		.file 12 "C:\\data\\workspaces\\github\\de.protos.demos\\src\\XMC2GoBlinky\\etrice.runtime.c\\eTri
 977              		.file 13 "C:\\data\\workspaces\\github\\de.protos.demos\\src\\XMC2GoBlinky\\etrice.XMC2GoBlinky.de
 978              		.file 14 "C:\\data\\workspaces\\github\\de.protos.demos\\src\\XMC2GoBlinky\\etrice.XMC2GoBlinky.de
 979              		.file 15 "C:/data/workspaces/github/de.protos.demos/src/XMC2GoBlinky/etrice.XMC2GoBlinky.demo/src-