   1              		.cpu cortex-m0
   2              		.fpu softvfp
   3              		.eabi_attribute 20, 1
   4              		.eabi_attribute 21, 1
   5              		.eabi_attribute 23, 3
   6              		.eabi_attribute 24, 1
   7              		.eabi_attribute 25, 1
   8              		.eabi_attribute 26, 1
   9              		.eabi_attribute 30, 6
  10              		.eabi_attribute 34, 0
  11              		.eabi_attribute 18, 4
  12              		.code	16
  13              		.file	"MrPing.c"
  14              		.text
  15              	.Ltext0:
  16              		.cfi_sections	.debug_frame
  17              		.section	.text.setState,"ax",%progbits
  18              		.align	2
  19              		.code	16
  20              		.thumb_func
  22              	setState:
  23              	.LFB33:
  24              		.file 1 "C:/data/workspaces/github/de.protos.demos/src/XMC2GoBlinky/etrice.XMC2GoBlinky.demo/src-g
   1:C:/data/workspaces/github/de.protos.demos/src/XMC2GoBlinky/etrice.XMC2GoBlinky.demo/src-gen-st/XMC2GoDemoModel\MrPing.c **** /**
   2:C:/data/workspaces/github/de.protos.demos/src/XMC2GoBlinky/etrice.XMC2GoBlinky.demo/src-gen-st/XMC2GoDemoModel\MrPing.c ****  * @author generated by eTrice
   3:C:/data/workspaces/github/de.protos.demos/src/XMC2GoBlinky/etrice.XMC2GoBlinky.demo/src-gen-st/XMC2GoDemoModel\MrPing.c ****  *
   4:C:/data/workspaces/github/de.protos.demos/src/XMC2GoBlinky/etrice.XMC2GoBlinky.demo/src-gen-st/XMC2GoDemoModel\MrPing.c ****  * Source File of ActorClass MrPing
   5:C:/data/workspaces/github/de.protos.demos/src/XMC2GoBlinky/etrice.XMC2GoBlinky.demo/src-gen-st/XMC2GoDemoModel\MrPing.c ****  * 
   6:C:/data/workspaces/github/de.protos.demos/src/XMC2GoBlinky/etrice.XMC2GoBlinky.demo/src-gen-st/XMC2GoDemoModel\MrPing.c ****  */
   7:C:/data/workspaces/github/de.protos.demos/src/XMC2GoBlinky/etrice.XMC2GoBlinky.demo/src-gen-st/XMC2GoDemoModel\MrPing.c **** 
   8:C:/data/workspaces/github/de.protos.demos/src/XMC2GoBlinky/etrice.XMC2GoBlinky.demo/src-gen-st/XMC2GoDemoModel\MrPing.c **** #include "MrPing.h"
   9:C:/data/workspaces/github/de.protos.demos/src/XMC2GoBlinky/etrice.XMC2GoBlinky.demo/src-gen-st/XMC2GoDemoModel\MrPing.c **** 
  10:C:/data/workspaces/github/de.protos.demos/src/XMC2GoBlinky/etrice.XMC2GoBlinky.demo/src-gen-st/XMC2GoDemoModel\MrPing.c **** #include "modelbase/etActor.h"
  11:C:/data/workspaces/github/de.protos.demos/src/XMC2GoBlinky/etrice.XMC2GoBlinky.demo/src-gen-st/XMC2GoDemoModel\MrPing.c **** #include "debugging/etLogger.h"
  12:C:/data/workspaces/github/de.protos.demos/src/XMC2GoBlinky/etrice.XMC2GoBlinky.demo/src-gen-st/XMC2GoDemoModel\MrPing.c **** #include "debugging/etMSCLogger.h"
  13:C:/data/workspaces/github/de.protos.demos/src/XMC2GoBlinky/etrice.XMC2GoBlinky.demo/src-gen-st/XMC2GoDemoModel\MrPing.c **** #include "etUnit/etUnit.h"
  14:C:/data/workspaces/github/de.protos.demos/src/XMC2GoBlinky/etrice.XMC2GoBlinky.demo/src-gen-st/XMC2GoDemoModel\MrPing.c **** #include "base/etMemory.h"
  15:C:/data/workspaces/github/de.protos.demos/src/XMC2GoBlinky/etrice.XMC2GoBlinky.demo/src-gen-st/XMC2GoDemoModel\MrPing.c **** 
  16:C:/data/workspaces/github/de.protos.demos/src/XMC2GoBlinky/etrice.XMC2GoBlinky.demo/src-gen-st/XMC2GoDemoModel\MrPing.c **** #include "DaveInterface/PIO004.h"
  17:C:/data/workspaces/github/de.protos.demos/src/XMC2GoBlinky/etrice.XMC2GoBlinky.demo/src-gen-st/XMC2GoDemoModel\MrPing.c **** #include "room/basic/service/timing/PTimer.h"
  18:C:/data/workspaces/github/de.protos.demos/src/XMC2GoBlinky/etrice.XMC2GoBlinky.demo/src-gen-st/XMC2GoDemoModel\MrPing.c **** #include "DaveInterface/PUART001.h"
  19:C:/data/workspaces/github/de.protos.demos/src/XMC2GoBlinky/etrice.XMC2GoBlinky.demo/src-gen-st/XMC2GoDemoModel\MrPing.c **** #include "XMC2GoDemoModel/PingPongProtocol.h"
  20:C:/data/workspaces/github/de.protos.demos/src/XMC2GoBlinky/etrice.XMC2GoBlinky.demo/src-gen-st/XMC2GoDemoModel\MrPing.c **** 
  21:C:/data/workspaces/github/de.protos.demos/src/XMC2GoBlinky/etrice.XMC2GoBlinky.demo/src-gen-st/XMC2GoDemoModel\MrPing.c **** #include "MrPing_Utils.h"
  22:C:/data/workspaces/github/de.protos.demos/src/XMC2GoBlinky/etrice.XMC2GoBlinky.demo/src-gen-st/XMC2GoDemoModel\MrPing.c **** 
  23:C:/data/workspaces/github/de.protos.demos/src/XMC2GoBlinky/etrice.XMC2GoBlinky.demo/src-gen-st/XMC2GoDemoModel\MrPing.c **** 
  24:C:/data/workspaces/github/de.protos.demos/src/XMC2GoBlinky/etrice.XMC2GoBlinky.demo/src-gen-st/XMC2GoDemoModel\MrPing.c **** /* interface item IDs */
  25:C:/data/workspaces/github/de.protos.demos/src/XMC2GoBlinky/etrice.XMC2GoBlinky.demo/src-gen-st/XMC2GoDemoModel\MrPing.c **** enum interface_items {
  26:C:/data/workspaces/github/de.protos.demos/src/XMC2GoBlinky/etrice.XMC2GoBlinky.demo/src-gen-st/XMC2GoDemoModel\MrPing.c **** 	IFITEM_p0 = 4,
  27:C:/data/workspaces/github/de.protos.demos/src/XMC2GoBlinky/etrice.XMC2GoBlinky.demo/src-gen-st/XMC2GoDemoModel\MrPing.c **** 	IFITEM_Led0 = 1,
  28:C:/data/workspaces/github/de.protos.demos/src/XMC2GoBlinky/etrice.XMC2GoBlinky.demo/src-gen-st/XMC2GoDemoModel\MrPing.c **** 	IFITEM_Led1 = 2,
  29:C:/data/workspaces/github/de.protos.demos/src/XMC2GoBlinky/etrice.XMC2GoBlinky.demo/src-gen-st/XMC2GoDemoModel\MrPing.c **** 	IFITEM_uart = 3,
  30:C:/data/workspaces/github/de.protos.demos/src/XMC2GoBlinky/etrice.XMC2GoBlinky.demo/src-gen-st/XMC2GoDemoModel\MrPing.c **** 	IFITEM_timer = 5
  31:C:/data/workspaces/github/de.protos.demos/src/XMC2GoBlinky/etrice.XMC2GoBlinky.demo/src-gen-st/XMC2GoDemoModel\MrPing.c **** };
  32:C:/data/workspaces/github/de.protos.demos/src/XMC2GoBlinky/etrice.XMC2GoBlinky.demo/src-gen-st/XMC2GoDemoModel\MrPing.c **** 
  33:C:/data/workspaces/github/de.protos.demos/src/XMC2GoBlinky/etrice.XMC2GoBlinky.demo/src-gen-st/XMC2GoDemoModel\MrPing.c **** /* state IDs */
  34:C:/data/workspaces/github/de.protos.demos/src/XMC2GoBlinky/etrice.XMC2GoBlinky.demo/src-gen-st/XMC2GoDemoModel\MrPing.c **** enum state_ids {
  35:C:/data/workspaces/github/de.protos.demos/src/XMC2GoBlinky/etrice.XMC2GoBlinky.demo/src-gen-st/XMC2GoDemoModel\MrPing.c **** 	NO_STATE = 0,
  36:C:/data/workspaces/github/de.protos.demos/src/XMC2GoBlinky/etrice.XMC2GoBlinky.demo/src-gen-st/XMC2GoDemoModel\MrPing.c **** 	STATE_TOP = 1,
  37:C:/data/workspaces/github/de.protos.demos/src/XMC2GoBlinky/etrice.XMC2GoBlinky.demo/src-gen-st/XMC2GoDemoModel\MrPing.c **** 	STATE_running = 2,
  38:C:/data/workspaces/github/de.protos.demos/src/XMC2GoBlinky/etrice.XMC2GoBlinky.demo/src-gen-st/XMC2GoDemoModel\MrPing.c **** 	STATE_MAX = 3
  39:C:/data/workspaces/github/de.protos.demos/src/XMC2GoBlinky/etrice.XMC2GoBlinky.demo/src-gen-st/XMC2GoDemoModel\MrPing.c **** };
  40:C:/data/workspaces/github/de.protos.demos/src/XMC2GoBlinky/etrice.XMC2GoBlinky.demo/src-gen-st/XMC2GoDemoModel\MrPing.c **** 
  41:C:/data/workspaces/github/de.protos.demos/src/XMC2GoBlinky/etrice.XMC2GoBlinky.demo/src-gen-st/XMC2GoDemoModel\MrPing.c **** /* transition chains */
  42:C:/data/workspaces/github/de.protos.demos/src/XMC2GoBlinky/etrice.XMC2GoBlinky.demo/src-gen-st/XMC2GoDemoModel\MrPing.c **** enum chain_ids {
  43:C:/data/workspaces/github/de.protos.demos/src/XMC2GoBlinky/etrice.XMC2GoBlinky.demo/src-gen-st/XMC2GoDemoModel\MrPing.c **** 	CHAIN_TRANS_INITIAL_TO__running = 1,
  44:C:/data/workspaces/github/de.protos.demos/src/XMC2GoBlinky/etrice.XMC2GoBlinky.demo/src-gen-st/XMC2GoDemoModel\MrPing.c **** 	CHAIN_TRANS_tr0_FROM_running_TO_running_BY_pongp0_tr0 = 2,
  45:C:/data/workspaces/github/de.protos.demos/src/XMC2GoBlinky/etrice.XMC2GoBlinky.demo/src-gen-st/XMC2GoDemoModel\MrPing.c **** 	CHAIN_TRANS_tr1_FROM_running_TO_running_BY_timeouttimer_tr1 = 3
  46:C:/data/workspaces/github/de.protos.demos/src/XMC2GoBlinky/etrice.XMC2GoBlinky.demo/src-gen-st/XMC2GoDemoModel\MrPing.c **** };
  47:C:/data/workspaces/github/de.protos.demos/src/XMC2GoBlinky/etrice.XMC2GoBlinky.demo/src-gen-st/XMC2GoDemoModel\MrPing.c **** 
  48:C:/data/workspaces/github/de.protos.demos/src/XMC2GoBlinky/etrice.XMC2GoBlinky.demo/src-gen-st/XMC2GoDemoModel\MrPing.c **** /* triggers */
  49:C:/data/workspaces/github/de.protos.demos/src/XMC2GoBlinky/etrice.XMC2GoBlinky.demo/src-gen-st/XMC2GoDemoModel\MrPing.c **** enum triggers {
  50:C:/data/workspaces/github/de.protos.demos/src/XMC2GoBlinky/etrice.XMC2GoBlinky.demo/src-gen-st/XMC2GoDemoModel\MrPing.c **** 	POLLING = 0,
  51:C:/data/workspaces/github/de.protos.demos/src/XMC2GoBlinky/etrice.XMC2GoBlinky.demo/src-gen-st/XMC2GoDemoModel\MrPing.c **** 	TRIG_p0__pong = IFITEM_p0 + EVT_SHIFT*PingPongProtocol_OUT_pong,
  52:C:/data/workspaces/github/de.protos.demos/src/XMC2GoBlinky/etrice.XMC2GoBlinky.demo/src-gen-st/XMC2GoDemoModel\MrPing.c **** 	TRIG_timer__timeout = IFITEM_timer + EVT_SHIFT*PTimer_OUT_timeout
  53:C:/data/workspaces/github/de.protos.demos/src/XMC2GoBlinky/etrice.XMC2GoBlinky.demo/src-gen-st/XMC2GoDemoModel\MrPing.c **** };
  54:C:/data/workspaces/github/de.protos.demos/src/XMC2GoBlinky/etrice.XMC2GoBlinky.demo/src-gen-st/XMC2GoDemoModel\MrPing.c **** 
  55:C:/data/workspaces/github/de.protos.demos/src/XMC2GoBlinky/etrice.XMC2GoBlinky.demo/src-gen-st/XMC2GoDemoModel\MrPing.c **** 
  56:C:/data/workspaces/github/de.protos.demos/src/XMC2GoBlinky/etrice.XMC2GoBlinky.demo/src-gen-st/XMC2GoDemoModel\MrPing.c **** static void setState(MrPing* self, etInt16 new_state) {
  25              		.loc 1 56 0
  26              		.cfi_startproc
  27 0000 80B5     		push	{r7, lr}
  28              	.LCFI0:
  29              		.cfi_def_cfa_offset 8
  30              		.cfi_offset 7, -8
  31              		.cfi_offset 14, -4
  32 0002 82B0     		sub	sp, sp, #8
  33              	.LCFI1:
  34              		.cfi_def_cfa_offset 16
  35 0004 00AF     		add	r7, sp, #0
  36              	.LCFI2:
  37              		.cfi_def_cfa_register 7
  38 0006 7860     		str	r0, [r7, #4]
  39 0008 0A1C     		mov	r2, r1
  40 000a BB1C     		add	r3, r7, #2
  41 000c 1A80     		strh	r2, [r3]
  57:C:/data/workspaces/github/de.protos.demos/src/XMC2GoBlinky/etrice.XMC2GoBlinky.demo/src-gen-st/XMC2GoDemoModel\MrPing.c **** 	self->state = new_state;
  42              		.loc 1 57 0
  43 000e 7B68     		ldr	r3, [r7, #4]
  44 0010 BA1C     		add	r2, r7, #2
  45 0012 1288     		ldrh	r2, [r2]
  46 0014 1A84     		strh	r2, [r3, #32]
  58:C:/data/workspaces/github/de.protos.demos/src/XMC2GoBlinky/etrice.XMC2GoBlinky.demo/src-gen-st/XMC2GoDemoModel\MrPing.c **** }
  47              		.loc 1 58 0
  48 0016 BD46     		mov	sp, r7
  49 0018 02B0     		add	sp, sp, #8
  50              		@ sp needed for prologue
  51 001a 80BD     		pop	{r7, pc}
  52              		.cfi_endproc
  53              	.LFE33:
  55              		.section	.text.getState,"ax",%progbits
  56              		.align	2
  57              		.code	16
  58              		.thumb_func
  60              	getState:
  61              	.LFB34:
  59:C:/data/workspaces/github/de.protos.demos/src/XMC2GoBlinky/etrice.XMC2GoBlinky.demo/src-gen-st/XMC2GoDemoModel\MrPing.c **** 
  60:C:/data/workspaces/github/de.protos.demos/src/XMC2GoBlinky/etrice.XMC2GoBlinky.demo/src-gen-st/XMC2GoDemoModel\MrPing.c **** static etInt16 getState(MrPing* self) {
  62              		.loc 1 60 0
  63              		.cfi_startproc
  64 0000 80B5     		push	{r7, lr}
  65              	.LCFI3:
  66              		.cfi_def_cfa_offset 8
  67              		.cfi_offset 7, -8
  68              		.cfi_offset 14, -4
  69 0002 82B0     		sub	sp, sp, #8
  70              	.LCFI4:
  71              		.cfi_def_cfa_offset 16
  72 0004 00AF     		add	r7, sp, #0
  73              	.LCFI5:
  74              		.cfi_def_cfa_register 7
  75 0006 7860     		str	r0, [r7, #4]
  61:C:/data/workspaces/github/de.protos.demos/src/XMC2GoBlinky/etrice.XMC2GoBlinky.demo/src-gen-st/XMC2GoDemoModel\MrPing.c **** 	return self->state;
  76              		.loc 1 61 0
  77 0008 7B68     		ldr	r3, [r7, #4]
  78 000a 1B8C     		ldrh	r3, [r3, #32]
  79 000c 1BB2     		sxth	r3, r3
  62:C:/data/workspaces/github/de.protos.demos/src/XMC2GoBlinky/etrice.XMC2GoBlinky.demo/src-gen-st/XMC2GoDemoModel\MrPing.c **** }
  80              		.loc 1 62 0
  81 000e 181C     		mov	r0, r3
  82 0010 BD46     		mov	sp, r7
  83 0012 02B0     		add	sp, sp, #8
  84              		@ sp needed for prologue
  85 0014 80BD     		pop	{r7, pc}
  86              		.cfi_endproc
  87              	.LFE34:
  89 0016 C046     		.section	.text.action_TRANS_INITIAL_TO__running,"ax",%progbits
  90              		.align	2
  91              		.code	16
  92              		.thumb_func
  94              	action_TRANS_INITIAL_TO__running:
  95              	.LFB35:
  63:C:/data/workspaces/github/de.protos.demos/src/XMC2GoBlinky/etrice.XMC2GoBlinky.demo/src-gen-st/XMC2GoDemoModel\MrPing.c **** 
  64:C:/data/workspaces/github/de.protos.demos/src/XMC2GoBlinky/etrice.XMC2GoBlinky.demo/src-gen-st/XMC2GoDemoModel\MrPing.c **** /* Entry and Exit Codes */
  65:C:/data/workspaces/github/de.protos.demos/src/XMC2GoBlinky/etrice.XMC2GoBlinky.demo/src-gen-st/XMC2GoDemoModel\MrPing.c **** 
  66:C:/data/workspaces/github/de.protos.demos/src/XMC2GoBlinky/etrice.XMC2GoBlinky.demo/src-gen-st/XMC2GoDemoModel\MrPing.c **** /* Action Codes */
  67:C:/data/workspaces/github/de.protos.demos/src/XMC2GoBlinky/etrice.XMC2GoBlinky.demo/src-gen-st/XMC2GoDemoModel\MrPing.c **** static void action_TRANS_INITIAL_TO__running(MrPing* self) {
  96              		.loc 1 67 0
  97              		.cfi_startproc
  98 0000 80B5     		push	{r7, lr}
  99              	.LCFI6:
 100              		.cfi_def_cfa_offset 8
 101              		.cfi_offset 7, -8
 102              		.cfi_offset 14, -4
 103 0002 82B0     		sub	sp, sp, #8
 104              	.LCFI7:
 105              		.cfi_def_cfa_offset 16
 106 0004 00AF     		add	r7, sp, #0
 107              	.LCFI8:
 108              		.cfi_def_cfa_register 7
 109 0006 7860     		str	r0, [r7, #4]
  68:C:/data/workspaces/github/de.protos.demos/src/XMC2GoBlinky/etrice.XMC2GoBlinky.demo/src-gen-st/XMC2GoDemoModel\MrPing.c **** 	counter=0;
 110              		.loc 1 68 0
 111 0008 7B68     		ldr	r3, [r7, #4]
 112 000a 0022     		mov	r2, #0
 113 000c 5A60     		str	r2, [r3, #4]
  69:C:/data/workspaces/github/de.protos.demos/src/XMC2GoBlinky/etrice.XMC2GoBlinky.demo/src-gen-st/XMC2GoDemoModel\MrPing.c **** 	PingPongData_initData(&myData);
 114              		.loc 1 69 0
 115 000e 7B68     		ldr	r3, [r7, #4]
 116 0010 0833     		add	r3, r3, #8
 117 0012 181C     		mov	r0, r3
 118 0014 FFF7FEFF 		bl	PingPongData_initData
  70:C:/data/workspaces/github/de.protos.demos/src/XMC2GoBlinky/etrice.XMC2GoBlinky.demo/src-gen-st/XMC2GoDemoModel\MrPing.c **** 	
  71:C:/data/workspaces/github/de.protos.demos/src/XMC2GoBlinky/etrice.XMC2GoBlinky.demo/src-gen-st/XMC2GoDemoModel\MrPing.c **** 	timer_startTimeout(500);
 119              		.loc 1 71 0
 120 0018 7B68     		ldr	r3, [r7, #4]
 121 001a 1B68     		ldr	r3, [r3]
 122 001c 1A1C     		mov	r2, r3
 123 001e 3032     		add	r2, r2, #48
 124 0020 FA23     		mov	r3, #250
 125 0022 5B00     		lsl	r3, r3, #1
 126 0024 101C     		mov	r0, r2
 127 0026 191C     		mov	r1, r3
 128 0028 FFF7FEFF 		bl	PTimerConjPort_startTimeout
  72:C:/data/workspaces/github/de.protos.demos/src/XMC2GoBlinky/etrice.XMC2GoBlinky.demo/src-gen-st/XMC2GoDemoModel\MrPing.c **** 	
  73:C:/data/workspaces/github/de.protos.demos/src/XMC2GoBlinky/etrice.XMC2GoBlinky.demo/src-gen-st/XMC2GoDemoModel\MrPing.c **** 	//uart.setInstance(0);
  74:C:/data/workspaces/github/de.protos.demos/src/XMC2GoBlinky/etrice.XMC2GoBlinky.demo/src-gen-st/XMC2GoDemoModel\MrPing.c **** 	PUART001ConjPort_setInstance(&self->constData->uart,0);
 129              		.loc 1 74 0
 130 002c 7B68     		ldr	r3, [r7, #4]
 131 002e 1B68     		ldr	r3, [r3]
 132 0030 2433     		add	r3, r3, #36
 133 0032 181C     		mov	r0, r3
 134 0034 0021     		mov	r1, #0
 135 0036 FFF7FEFF 		bl	PUART001ConjPort_setInstance
  75:C:/data/workspaces/github/de.protos.demos/src/XMC2GoBlinky/etrice.XMC2GoBlinky.demo/src-gen-st/XMC2GoDemoModel\MrPing.c **** 	
  76:C:/data/workspaces/github/de.protos.demos/src/XMC2GoBlinky/etrice.XMC2GoBlinky.demo/src-gen-st/XMC2GoDemoModel\MrPing.c **** 	// Led0.setInstance(0);
  77:C:/data/workspaces/github/de.protos.demos/src/XMC2GoBlinky/etrice.XMC2GoBlinky.demo/src-gen-st/XMC2GoDemoModel\MrPing.c **** 	PIO004ConjPort_setInstance(&self->constData->Led0,0);  
 136              		.loc 1 77 0
 137 003a 7B68     		ldr	r3, [r7, #4]
 138 003c 1B68     		ldr	r3, [r3]
 139 003e 0C33     		add	r3, r3, #12
 140 0040 181C     		mov	r0, r3
 141 0042 0021     		mov	r1, #0
 142 0044 FFF7FEFF 		bl	PIO004ConjPort_setInstance
  78:C:/data/workspaces/github/de.protos.demos/src/XMC2GoBlinky/etrice.XMC2GoBlinky.demo/src-gen-st/XMC2GoDemoModel\MrPing.c **** 	
  79:C:/data/workspaces/github/de.protos.demos/src/XMC2GoBlinky/etrice.XMC2GoBlinky.demo/src-gen-st/XMC2GoDemoModel\MrPing.c **** 	// Led1.setInstance(1);
  80:C:/data/workspaces/github/de.protos.demos/src/XMC2GoBlinky/etrice.XMC2GoBlinky.demo/src-gen-st/XMC2GoDemoModel\MrPing.c **** 	PIO004ConjPort_setInstance(&self->constData->Led1,1);  
 143              		.loc 1 80 0
 144 0048 7B68     		ldr	r3, [r7, #4]
 145 004a 1B68     		ldr	r3, [r3]
 146 004c 1833     		add	r3, r3, #24
 147 004e 181C     		mov	r0, r3
 148 0050 0121     		mov	r1, #1
 149 0052 FFF7FEFF 		bl	PIO004ConjPort_setInstance
  81:C:/data/workspaces/github/de.protos.demos/src/XMC2GoBlinky/etrice.XMC2GoBlinky.demo/src-gen-st/XMC2GoDemoModel\MrPing.c **** 	
  82:C:/data/workspaces/github/de.protos.demos/src/XMC2GoBlinky/etrice.XMC2GoBlinky.demo/src-gen-st/XMC2GoDemoModel\MrPing.c **** 	// Led0.setPin();
  83:C:/data/workspaces/github/de.protos.demos/src/XMC2GoBlinky/etrice.XMC2GoBlinky.demo/src-gen-st/XMC2GoDemoModel\MrPing.c **** 	PIO004ConjPort_setPin(&self->constData->Led0);  
 150              		.loc 1 83 0
 151 0056 7B68     		ldr	r3, [r7, #4]
 152 0058 1B68     		ldr	r3, [r3]
 153 005a 0C33     		add	r3, r3, #12
 154 005c 181C     		mov	r0, r3
 155 005e FFF7FEFF 		bl	PIO004ConjPort_setPin
  84:C:/data/workspaces/github/de.protos.demos/src/XMC2GoBlinky/etrice.XMC2GoBlinky.demo/src-gen-st/XMC2GoDemoModel\MrPing.c **** 	
  85:C:/data/workspaces/github/de.protos.demos/src/XMC2GoBlinky/etrice.XMC2GoBlinky.demo/src-gen-st/XMC2GoDemoModel\MrPing.c **** 	// Led1.resetPin();
  86:C:/data/workspaces/github/de.protos.demos/src/XMC2GoBlinky/etrice.XMC2GoBlinky.demo/src-gen-st/XMC2GoDemoModel\MrPing.c **** 	PIO004ConjPort_resetPin(&self->constData->Led1);  
 156              		.loc 1 86 0
 157 0062 7B68     		ldr	r3, [r7, #4]
 158 0064 1B68     		ldr	r3, [r3]
 159 0066 1833     		add	r3, r3, #24
 160 0068 181C     		mov	r0, r3
 161 006a FFF7FEFF 		bl	PIO004ConjPort_resetPin
  87:C:/data/workspaces/github/de.protos.demos/src/XMC2GoBlinky/etrice.XMC2GoBlinky.demo/src-gen-st/XMC2GoDemoModel\MrPing.c **** }
 162              		.loc 1 87 0
 163 006e BD46     		mov	sp, r7
 164 0070 02B0     		add	sp, sp, #8
 165              		@ sp needed for prologue
 166 0072 80BD     		pop	{r7, pc}
 167              		.cfi_endproc
 168              	.LFE35:
 170              		.section	.rodata
 171              		.align	2
 172              	.LC0:
 173 0000 44617320 		.ascii	"Das ist ein Test!\012\000"
 173      69737420 
 173      65696E20 
 173      54657374 
 173      210A00
 174 0013 00       		.section	.text.action_TRANS_tr0_FROM_running_TO_running_BY_pongp0_tr0,"ax",%progbits
 175              		.align	2
 176              		.code	16
 177              		.thumb_func
 179              	action_TRANS_tr0_FROM_running_TO_running_BY_pongp0_tr0:
 180              	.LFB36:
  88:C:/data/workspaces/github/de.protos.demos/src/XMC2GoBlinky/etrice.XMC2GoBlinky.demo/src-gen-st/XMC2GoDemoModel\MrPing.c **** static void action_TRANS_tr0_FROM_running_TO_running_BY_pongp0_tr0(MrPing* self, const InterfaceIte
 181              		.loc 1 88 0
 182              		.cfi_startproc
 183 0000 80B5     		push	{r7, lr}
 184              	.LCFI9:
 185              		.cfi_def_cfa_offset 8
 186              		.cfi_offset 7, -8
 187              		.cfi_offset 14, -4
 188 0002 84B0     		sub	sp, sp, #16
 189              	.LCFI10:
 190              		.cfi_def_cfa_offset 24
 191 0004 00AF     		add	r7, sp, #0
 192              	.LCFI11:
 193              		.cfi_def_cfa_register 7
 194 0006 F860     		str	r0, [r7, #12]
 195 0008 B960     		str	r1, [r7, #8]
 196 000a 7A60     		str	r2, [r7, #4]
  89:C:/data/workspaces/github/de.protos.demos/src/XMC2GoBlinky/etrice.XMC2GoBlinky.demo/src-gen-st/XMC2GoDemoModel\MrPing.c **** 	timer_startTimeout(200);
 197              		.loc 1 89 0
 198 000c FB68     		ldr	r3, [r7, #12]
 199 000e 1B68     		ldr	r3, [r3]
 200 0010 3033     		add	r3, r3, #48
 201 0012 181C     		mov	r0, r3
 202 0014 C821     		mov	r1, #200
 203 0016 FFF7FEFF 		bl	PTimerConjPort_startTimeout
  90:C:/data/workspaces/github/de.protos.demos/src/XMC2GoBlinky/etrice.XMC2GoBlinky.demo/src-gen-st/XMC2GoDemoModel\MrPing.c **** 	
  91:C:/data/workspaces/github/de.protos.demos/src/XMC2GoBlinky/etrice.XMC2GoBlinky.demo/src-gen-st/XMC2GoDemoModel\MrPing.c **** 	counter++;
 204              		.loc 1 91 0
 205 001a FB68     		ldr	r3, [r7, #12]
 206 001c 5B68     		ldr	r3, [r3, #4]
 207 001e 5A1C     		add	r2, r3, #1
 208 0020 FB68     		ldr	r3, [r7, #12]
 209 0022 5A60     		str	r2, [r3, #4]
  92:C:/data/workspaces/github/de.protos.demos/src/XMC2GoBlinky/etrice.XMC2GoBlinky.demo/src-gen-st/XMC2GoDemoModel\MrPing.c **** 	//toggleLED0();
  93:C:/data/workspaces/github/de.protos.demos/src/XMC2GoBlinky/etrice.XMC2GoBlinky.demo/src-gen-st/XMC2GoDemoModel\MrPing.c **** 	
  94:C:/data/workspaces/github/de.protos.demos/src/XMC2GoBlinky/etrice.XMC2GoBlinky.demo/src-gen-st/XMC2GoDemoModel\MrPing.c **** 	// Led1.togglePin();
  95:C:/data/workspaces/github/de.protos.demos/src/XMC2GoBlinky/etrice.XMC2GoBlinky.demo/src-gen-st/XMC2GoDemoModel\MrPing.c **** 	PIO004ConjPort_togglePin(&self->constData->Led1);
 210              		.loc 1 95 0
 211 0024 FB68     		ldr	r3, [r7, #12]
 212 0026 1B68     		ldr	r3, [r3]
 213 0028 1833     		add	r3, r3, #24
 214 002a 181C     		mov	r0, r3
 215 002c FFF7FEFF 		bl	PIO004ConjPort_togglePin
  96:C:/data/workspaces/github/de.protos.demos/src/XMC2GoBlinky/etrice.XMC2GoBlinky.demo/src-gen-st/XMC2GoDemoModel\MrPing.c **** 	
  97:C:/data/workspaces/github/de.protos.demos/src/XMC2GoBlinky/etrice.XMC2GoBlinky.demo/src-gen-st/XMC2GoDemoModel\MrPing.c **** 	// Led0.togglePin();
  98:C:/data/workspaces/github/de.protos.demos/src/XMC2GoBlinky/etrice.XMC2GoBlinky.demo/src-gen-st/XMC2GoDemoModel\MrPing.c **** 	PIO004ConjPort_togglePin(&self->constData->Led0);   
 216              		.loc 1 98 0
 217 0030 FB68     		ldr	r3, [r7, #12]
 218 0032 1B68     		ldr	r3, [r3]
 219 0034 0C33     		add	r3, r3, #12
 220 0036 181C     		mov	r0, r3
 221 0038 FFF7FEFF 		bl	PIO004ConjPort_togglePin
  99:C:/data/workspaces/github/de.protos.demos/src/XMC2GoBlinky/etrice.XMC2GoBlinky.demo/src-gen-st/XMC2GoDemoModel\MrPing.c **** 	
 100:C:/data/workspaces/github/de.protos.demos/src/XMC2GoBlinky/etrice.XMC2GoBlinky.demo/src-gen-st/XMC2GoDemoModel\MrPing.c **** 	//uart.writeDataBytes("Das ist ein Test\n", 17);
 101:C:/data/workspaces/github/de.protos.demos/src/XMC2GoBlinky/etrice.XMC2GoBlinky.demo/src-gen-st/XMC2GoDemoModel\MrPing.c **** 	PUART001ConjPort_writeDataBytes(&self->constData->uart,"Das ist ein Test!\n",18);
 222              		.loc 1 101 0
 223 003c FB68     		ldr	r3, [r7, #12]
 224 003e 1B68     		ldr	r3, [r3]
 225 0040 1A1C     		mov	r2, r3
 226 0042 2432     		add	r2, r2, #36
 227 0044 044B     		ldr	r3, .L6
 228 0046 101C     		mov	r0, r2
 229 0048 191C     		mov	r1, r3
 230 004a 1222     		mov	r2, #18
 231 004c FFF7FEFF 		bl	PUART001ConjPort_writeDataBytes
 102:C:/data/workspaces/github/de.protos.demos/src/XMC2GoBlinky/etrice.XMC2GoBlinky.demo/src-gen-st/XMC2GoDemoModel\MrPing.c **** }
 232              		.loc 1 102 0
 233 0050 BD46     		mov	sp, r7
 234 0052 04B0     		add	sp, sp, #16
 235              		@ sp needed for prologue
 236 0054 80BD     		pop	{r7, pc}
 237              	.L7:
 238 0056 C046     		.align	2
 239              	.L6:
 240 0058 00000000 		.word	.LC0
 241              		.cfi_endproc
 242              	.LFE36:
 244              		.section	.text.action_TRANS_tr1_FROM_running_TO_running_BY_timeouttimer_tr1,"ax",%progbits
 245              		.align	2
 246              		.code	16
 247              		.thumb_func
 249              	action_TRANS_tr1_FROM_running_TO_running_BY_timeouttimer_tr1:
 250              	.LFB37:
 103:C:/data/workspaces/github/de.protos.demos/src/XMC2GoBlinky/etrice.XMC2GoBlinky.demo/src-gen-st/XMC2GoDemoModel\MrPing.c **** static void action_TRANS_tr1_FROM_running_TO_running_BY_timeouttimer_tr1(MrPing* self, const Interf
 251              		.loc 1 103 0
 252              		.cfi_startproc
 253 0000 80B5     		push	{r7, lr}
 254              	.LCFI12:
 255              		.cfi_def_cfa_offset 8
 256              		.cfi_offset 7, -8
 257              		.cfi_offset 14, -4
 258 0002 82B0     		sub	sp, sp, #8
 259              	.LCFI13:
 260              		.cfi_def_cfa_offset 16
 261 0004 00AF     		add	r7, sp, #0
 262              	.LCFI14:
 263              		.cfi_def_cfa_register 7
 264 0006 7860     		str	r0, [r7, #4]
 265 0008 3960     		str	r1, [r7]
 104:C:/data/workspaces/github/de.protos.demos/src/XMC2GoBlinky/etrice.XMC2GoBlinky.demo/src-gen-st/XMC2GoDemoModel\MrPing.c **** 	p0_ping(&myData);
 266              		.loc 1 104 0
 267 000a 7B68     		ldr	r3, [r7, #4]
 268 000c 1B68     		ldr	r3, [r3]
 269 000e 1A1C     		mov	r2, r3
 270 0010 7B68     		ldr	r3, [r7, #4]
 271 0012 0833     		add	r3, r3, #8
 272 0014 101C     		mov	r0, r2
 273 0016 191C     		mov	r1, r3
 274 0018 FFF7FEFF 		bl	PingPongProtocolConjPort_ping
 105:C:/data/workspaces/github/de.protos.demos/src/XMC2GoBlinky/etrice.XMC2GoBlinky.demo/src-gen-st/XMC2GoDemoModel\MrPing.c **** }
 275              		.loc 1 105 0
 276 001c BD46     		mov	sp, r7
 277 001e 02B0     		add	sp, sp, #8
 278              		@ sp needed for prologue
 279 0020 80BD     		pop	{r7, pc}
 280              		.cfi_endproc
 281              	.LFE37:
 283 0022 C046     		.section	.text.exitTo,"ax",%progbits
 284              		.align	2
 285              		.code	16
 286              		.thumb_func
 288              	exitTo:
 289              	.LFB38:
 106:C:/data/workspaces/github/de.protos.demos/src/XMC2GoBlinky/etrice.XMC2GoBlinky.demo/src-gen-st/XMC2GoDemoModel\MrPing.c **** 
 107:C:/data/workspaces/github/de.protos.demos/src/XMC2GoBlinky/etrice.XMC2GoBlinky.demo/src-gen-st/XMC2GoDemoModel\MrPing.c **** /**
 108:C:/data/workspaces/github/de.protos.demos/src/XMC2GoBlinky/etrice.XMC2GoBlinky.demo/src-gen-st/XMC2GoDemoModel\MrPing.c ****  * calls exit codes while exiting from the current state to one of its
 109:C:/data/workspaces/github/de.protos.demos/src/XMC2GoBlinky/etrice.XMC2GoBlinky.demo/src-gen-st/XMC2GoDemoModel\MrPing.c ****  * parent states while remembering the history
 110:C:/data/workspaces/github/de.protos.demos/src/XMC2GoBlinky/etrice.XMC2GoBlinky.demo/src-gen-st/XMC2GoDemoModel\MrPing.c ****  * @param current__et - the current state
 111:C:/data/workspaces/github/de.protos.demos/src/XMC2GoBlinky/etrice.XMC2GoBlinky.demo/src-gen-st/XMC2GoDemoModel\MrPing.c ****  * @param to - the final parent state
 112:C:/data/workspaces/github/de.protos.demos/src/XMC2GoBlinky/etrice.XMC2GoBlinky.demo/src-gen-st/XMC2GoDemoModel\MrPing.c ****  */
 113:C:/data/workspaces/github/de.protos.demos/src/XMC2GoBlinky/etrice.XMC2GoBlinky.demo/src-gen-st/XMC2GoDemoModel\MrPing.c **** static void exitTo(MrPing* self, etInt16 current__et, etInt16 to) {
 290              		.loc 1 113 0
 291              		.cfi_startproc
 292 0000 80B5     		push	{r7, lr}
 293              	.LCFI15:
 294              		.cfi_def_cfa_offset 8
 295              		.cfi_offset 7, -8
 296              		.cfi_offset 14, -4
 297 0002 82B0     		sub	sp, sp, #8
 298              	.LCFI16:
 299              		.cfi_def_cfa_offset 16
 300 0004 00AF     		add	r7, sp, #0
 301              	.LCFI17:
 302              		.cfi_def_cfa_register 7
 303 0006 7860     		str	r0, [r7, #4]
 304 0008 BB1C     		add	r3, r7, #2
 305 000a 1980     		strh	r1, [r3]
 306 000c 3B1C     		mov	r3, r7
 307 000e 1A80     		strh	r2, [r3]
 114:C:/data/workspaces/github/de.protos.demos/src/XMC2GoBlinky/etrice.XMC2GoBlinky.demo/src-gen-st/XMC2GoDemoModel\MrPing.c **** 	while (current__et!=to) {
 308              		.loc 1 114 0
 309 0010 10E0     		b	.L10
 310              	.L13:
 115:C:/data/workspaces/github/de.protos.demos/src/XMC2GoBlinky/etrice.XMC2GoBlinky.demo/src-gen-st/XMC2GoDemoModel\MrPing.c **** 		switch (current__et) {
 311              		.loc 1 115 0
 312 0012 BB1C     		add	r3, r7, #2
 313 0014 0021     		mov	r1, #0
 314 0016 5B5E     		ldrsh	r3, [r3, r1]
 315 0018 022B     		cmp	r3, #2
 316 001a 06D1     		bne	.L14
 317              	.L12:
 116:C:/data/workspaces/github/de.protos.demos/src/XMC2GoBlinky/etrice.XMC2GoBlinky.demo/src-gen-st/XMC2GoDemoModel\MrPing.c **** 			case STATE_running:
 117:C:/data/workspaces/github/de.protos.demos/src/XMC2GoBlinky/etrice.XMC2GoBlinky.demo/src-gen-st/XMC2GoDemoModel\MrPing.c **** 				self->history[STATE_TOP] = STATE_running;
 318              		.loc 1 117 0
 319 001c 7B68     		ldr	r3, [r7, #4]
 320 001e 0222     		mov	r2, #2
 321 0020 9A84     		strh	r2, [r3, #36]
 118:C:/data/workspaces/github/de.protos.demos/src/XMC2GoBlinky/etrice.XMC2GoBlinky.demo/src-gen-st/XMC2GoDemoModel\MrPing.c **** 				current__et = STATE_TOP;
 322              		.loc 1 118 0
 323 0022 BB1C     		add	r3, r7, #2
 324 0024 0122     		mov	r2, #1
 325 0026 1A80     		strh	r2, [r3]
 119:C:/data/workspaces/github/de.protos.demos/src/XMC2GoBlinky/etrice.XMC2GoBlinky.demo/src-gen-st/XMC2GoDemoModel\MrPing.c **** 				break;
 326              		.loc 1 119 0
 327 0028 04E0     		b	.L10
 328              	.L14:
 329 002a BB1C     		add	r3, r7, #2
 330 002c BA1C     		add	r2, r7, #2
 331 002e 1288     		ldrh	r2, [r2]
 332 0030 1A80     		strh	r2, [r3]
 120:C:/data/workspaces/github/de.protos.demos/src/XMC2GoBlinky/etrice.XMC2GoBlinky.demo/src-gen-st/XMC2GoDemoModel\MrPing.c **** 			default:
 121:C:/data/workspaces/github/de.protos.demos/src/XMC2GoBlinky/etrice.XMC2GoBlinky.demo/src-gen-st/XMC2GoDemoModel\MrPing.c **** 				/* should not occur */
 122:C:/data/workspaces/github/de.protos.demos/src/XMC2GoBlinky/etrice.XMC2GoBlinky.demo/src-gen-st/XMC2GoDemoModel\MrPing.c **** 				break;
 333              		.loc 1 122 0
 334 0032 C046     		mov	r8, r8
 335              	.L10:
 114:C:/data/workspaces/github/de.protos.demos/src/XMC2GoBlinky/etrice.XMC2GoBlinky.demo/src-gen-st/XMC2GoDemoModel\MrPing.c **** 	while (current__et!=to) {
 336              		.loc 1 114 0 discriminator 1
 337 0034 BA1C     		add	r2, r7, #2
 338 0036 3B1C     		mov	r3, r7
 339 0038 0021     		mov	r1, #0
 340 003a 525E     		ldrsh	r2, [r2, r1]
 341 003c 0021     		mov	r1, #0
 342 003e 5B5E     		ldrsh	r3, [r3, r1]
 343 0040 9A42     		cmp	r2, r3
 344 0042 E6D1     		bne	.L13
 123:C:/data/workspaces/github/de.protos.demos/src/XMC2GoBlinky/etrice.XMC2GoBlinky.demo/src-gen-st/XMC2GoDemoModel\MrPing.c **** 		}
 124:C:/data/workspaces/github/de.protos.demos/src/XMC2GoBlinky/etrice.XMC2GoBlinky.demo/src-gen-st/XMC2GoDemoModel\MrPing.c **** 	}
 125:C:/data/workspaces/github/de.protos.demos/src/XMC2GoBlinky/etrice.XMC2GoBlinky.demo/src-gen-st/XMC2GoDemoModel\MrPing.c **** }
 345              		.loc 1 125 0
 346 0044 BD46     		mov	sp, r7
 347 0046 02B0     		add	sp, sp, #8
 348              		@ sp needed for prologue
 349 0048 80BD     		pop	{r7, pc}
 350              		.cfi_endproc
 351              	.LFE38:
 353 004a C046     		.section	.text.executeTransitionChain,"ax",%progbits
 354              		.align	2
 355              		.code	16
 356              		.thumb_func
 358              	executeTransitionChain:
 359              	.LFB39:
 126:C:/data/workspaces/github/de.protos.demos/src/XMC2GoBlinky/etrice.XMC2GoBlinky.demo/src-gen-st/XMC2GoDemoModel\MrPing.c **** 
 127:C:/data/workspaces/github/de.protos.demos/src/XMC2GoBlinky/etrice.XMC2GoBlinky.demo/src-gen-st/XMC2GoDemoModel\MrPing.c **** /**
 128:C:/data/workspaces/github/de.protos.demos/src/XMC2GoBlinky/etrice.XMC2GoBlinky.demo/src-gen-st/XMC2GoDemoModel\MrPing.c ****  * calls action, entry and exit codes along a transition chain. The generic data are cast to typed 
 129:C:/data/workspaces/github/de.protos.demos/src/XMC2GoBlinky/etrice.XMC2GoBlinky.demo/src-gen-st/XMC2GoDemoModel\MrPing.c ****  * matching the trigger of this chain. The ID of the final state is returned
 130:C:/data/workspaces/github/de.protos.demos/src/XMC2GoBlinky/etrice.XMC2GoBlinky.demo/src-gen-st/XMC2GoDemoModel\MrPing.c ****  * @param chain__et - the chain ID
 131:C:/data/workspaces/github/de.protos.demos/src/XMC2GoBlinky/etrice.XMC2GoBlinky.demo/src-gen-st/XMC2GoDemoModel\MrPing.c ****  * @param generic_data__et - the generic data pointer
 132:C:/data/workspaces/github/de.protos.demos/src/XMC2GoBlinky/etrice.XMC2GoBlinky.demo/src-gen-st/XMC2GoDemoModel\MrPing.c ****  * @return the +/- ID of the final state either with a positive sign, that indicates to execute the
 133:C:/data/workspaces/github/de.protos.demos/src/XMC2GoBlinky/etrice.XMC2GoBlinky.demo/src-gen-st/XMC2GoDemoModel\MrPing.c ****  */
 134:C:/data/workspaces/github/de.protos.demos/src/XMC2GoBlinky/etrice.XMC2GoBlinky.demo/src-gen-st/XMC2GoDemoModel\MrPing.c **** static etInt16 executeTransitionChain(MrPing* self, int chain__et, const InterfaceItemBase* ifitem,
 360              		.loc 1 134 0
 361              		.cfi_startproc
 362 0000 80B5     		push	{r7, lr}
 363              	.LCFI18:
 364              		.cfi_def_cfa_offset 8
 365              		.cfi_offset 7, -8
 366              		.cfi_offset 14, -4
 367 0002 86B0     		sub	sp, sp, #24
 368              	.LCFI19:
 369              		.cfi_def_cfa_offset 32
 370 0004 00AF     		add	r7, sp, #0
 371              	.LCFI20:
 372              		.cfi_def_cfa_register 7
 373 0006 F860     		str	r0, [r7, #12]
 374 0008 B960     		str	r1, [r7, #8]
 375 000a 7A60     		str	r2, [r7, #4]
 376 000c 3B60     		str	r3, [r7]
 135:C:/data/workspaces/github/de.protos.demos/src/XMC2GoBlinky/etrice.XMC2GoBlinky.demo/src-gen-st/XMC2GoDemoModel\MrPing.c **** 	switch (chain__et) {
 377              		.loc 1 135 0
 378 000e BB68     		ldr	r3, [r7, #8]
 379 0010 022B     		cmp	r3, #2
 380 0012 09D0     		beq	.L18
 381 0014 032B     		cmp	r3, #3
 382 0016 13D0     		beq	.L19
 383 0018 012B     		cmp	r3, #1
 384 001a 19D1     		bne	.L21
 385              	.L17:
 136:C:/data/workspaces/github/de.protos.demos/src/XMC2GoBlinky/etrice.XMC2GoBlinky.demo/src-gen-st/XMC2GoDemoModel\MrPing.c **** 		case CHAIN_TRANS_INITIAL_TO__running:
 137:C:/data/workspaces/github/de.protos.demos/src/XMC2GoBlinky/etrice.XMC2GoBlinky.demo/src-gen-st/XMC2GoDemoModel\MrPing.c **** 		{
 138:C:/data/workspaces/github/de.protos.demos/src/XMC2GoBlinky/etrice.XMC2GoBlinky.demo/src-gen-st/XMC2GoDemoModel\MrPing.c **** 			action_TRANS_INITIAL_TO__running(self);
 386              		.loc 1 138 0
 387 001c FB68     		ldr	r3, [r7, #12]
 388 001e 181C     		mov	r0, r3
 389 0020 FFF7FEFF 		bl	action_TRANS_INITIAL_TO__running
 139:C:/data/workspaces/github/de.protos.demos/src/XMC2GoBlinky/etrice.XMC2GoBlinky.demo/src-gen-st/XMC2GoDemoModel\MrPing.c **** 			return STATE_running;
 390              		.loc 1 139 0
 391 0024 0223     		mov	r3, #2
 392 0026 15E0     		b	.L20
 393              	.L18:
 394              	.LBB2:
 140:C:/data/workspaces/github/de.protos.demos/src/XMC2GoBlinky/etrice.XMC2GoBlinky.demo/src-gen-st/XMC2GoDemoModel\MrPing.c **** 		}
 141:C:/data/workspaces/github/de.protos.demos/src/XMC2GoBlinky/etrice.XMC2GoBlinky.demo/src-gen-st/XMC2GoDemoModel\MrPing.c **** 		case CHAIN_TRANS_tr0_FROM_running_TO_running_BY_pongp0_tr0:
 142:C:/data/workspaces/github/de.protos.demos/src/XMC2GoBlinky/etrice.XMC2GoBlinky.demo/src-gen-st/XMC2GoDemoModel\MrPing.c **** 		{
 143:C:/data/workspaces/github/de.protos.demos/src/XMC2GoBlinky/etrice.XMC2GoBlinky.demo/src-gen-st/XMC2GoDemoModel\MrPing.c **** 			PingPongData* data = ((PingPongData*) generic_data__et);
 395              		.loc 1 143 0
 396 0028 3B68     		ldr	r3, [r7]
 397 002a 7B61     		str	r3, [r7, #20]
 144:C:/data/workspaces/github/de.protos.demos/src/XMC2GoBlinky/etrice.XMC2GoBlinky.demo/src-gen-st/XMC2GoDemoModel\MrPing.c **** 			action_TRANS_tr0_FROM_running_TO_running_BY_pongp0_tr0(self, ifitem, data);
 398              		.loc 1 144 0
 399 002c F968     		ldr	r1, [r7, #12]
 400 002e 7A68     		ldr	r2, [r7, #4]
 401 0030 7B69     		ldr	r3, [r7, #20]
 402 0032 081C     		mov	r0, r1
 403 0034 111C     		mov	r1, r2
 404 0036 1A1C     		mov	r2, r3
 405 0038 FFF7FEFF 		bl	action_TRANS_tr0_FROM_running_TO_running_BY_pongp0_tr0
 145:C:/data/workspaces/github/de.protos.demos/src/XMC2GoBlinky/etrice.XMC2GoBlinky.demo/src-gen-st/XMC2GoDemoModel\MrPing.c **** 			return STATE_running;
 406              		.loc 1 145 0
 407 003c 0223     		mov	r3, #2
 408 003e 09E0     		b	.L20
 409              	.L19:
 410              	.LBE2:
 146:C:/data/workspaces/github/de.protos.demos/src/XMC2GoBlinky/etrice.XMC2GoBlinky.demo/src-gen-st/XMC2GoDemoModel\MrPing.c **** 		}
 147:C:/data/workspaces/github/de.protos.demos/src/XMC2GoBlinky/etrice.XMC2GoBlinky.demo/src-gen-st/XMC2GoDemoModel\MrPing.c **** 		case CHAIN_TRANS_tr1_FROM_running_TO_running_BY_timeouttimer_tr1:
 148:C:/data/workspaces/github/de.protos.demos/src/XMC2GoBlinky/etrice.XMC2GoBlinky.demo/src-gen-st/XMC2GoDemoModel\MrPing.c **** 		{
 149:C:/data/workspaces/github/de.protos.demos/src/XMC2GoBlinky/etrice.XMC2GoBlinky.demo/src-gen-st/XMC2GoDemoModel\MrPing.c **** 			action_TRANS_tr1_FROM_running_TO_running_BY_timeouttimer_tr1(self, ifitem);
 411              		.loc 1 149 0
 412 0040 FA68     		ldr	r2, [r7, #12]
 413 0042 7B68     		ldr	r3, [r7, #4]
 414 0044 101C     		mov	r0, r2
 415 0046 191C     		mov	r1, r3
 416 0048 FFF7FEFF 		bl	action_TRANS_tr1_FROM_running_TO_running_BY_timeouttimer_tr1
 150:C:/data/workspaces/github/de.protos.demos/src/XMC2GoBlinky/etrice.XMC2GoBlinky.demo/src-gen-st/XMC2GoDemoModel\MrPing.c **** 			return STATE_running;
 417              		.loc 1 150 0
 418 004c 0223     		mov	r3, #2
 419 004e 01E0     		b	.L20
 420              	.L21:
 151:C:/data/workspaces/github/de.protos.demos/src/XMC2GoBlinky/etrice.XMC2GoBlinky.demo/src-gen-st/XMC2GoDemoModel\MrPing.c **** 		}
 152:C:/data/workspaces/github/de.protos.demos/src/XMC2GoBlinky/etrice.XMC2GoBlinky.demo/src-gen-st/XMC2GoDemoModel\MrPing.c **** 			default:
 153:C:/data/workspaces/github/de.protos.demos/src/XMC2GoBlinky/etrice.XMC2GoBlinky.demo/src-gen-st/XMC2GoDemoModel\MrPing.c **** 				/* should not occur */
 154:C:/data/workspaces/github/de.protos.demos/src/XMC2GoBlinky/etrice.XMC2GoBlinky.demo/src-gen-st/XMC2GoDemoModel\MrPing.c **** 				break;
 421              		.loc 1 154 0
 422 0050 C046     		mov	r8, r8
 155:C:/data/workspaces/github/de.protos.demos/src/XMC2GoBlinky/etrice.XMC2GoBlinky.demo/src-gen-st/XMC2GoDemoModel\MrPing.c **** 	}
 156:C:/data/workspaces/github/de.protos.demos/src/XMC2GoBlinky/etrice.XMC2GoBlinky.demo/src-gen-st/XMC2GoDemoModel\MrPing.c **** 	return NO_STATE;
 423              		.loc 1 156 0
 424 0052 0023     		mov	r3, #0
 425              	.L20:
 426 0054 1BB2     		sxth	r3, r3
 157:C:/data/workspaces/github/de.protos.demos/src/XMC2GoBlinky/etrice.XMC2GoBlinky.demo/src-gen-st/XMC2GoDemoModel\MrPing.c **** }
 427              		.loc 1 157 0
 428 0056 181C     		mov	r0, r3
 429 0058 BD46     		mov	sp, r7
 430 005a 06B0     		add	sp, sp, #24
 431              		@ sp needed for prologue
 432 005c 80BD     		pop	{r7, pc}
 433              		.cfi_endproc
 434              	.LFE39:
 436 005e C046     		.section	.text.enterHistory,"ax",%progbits
 437              		.align	2
 438              		.code	16
 439              		.thumb_func
 441              	enterHistory:
 442              	.LFB40:
 158:C:/data/workspaces/github/de.protos.demos/src/XMC2GoBlinky/etrice.XMC2GoBlinky.demo/src-gen-st/XMC2GoDemoModel\MrPing.c **** 
 159:C:/data/workspaces/github/de.protos.demos/src/XMC2GoBlinky/etrice.XMC2GoBlinky.demo/src-gen-st/XMC2GoDemoModel\MrPing.c **** /**
 160:C:/data/workspaces/github/de.protos.demos/src/XMC2GoBlinky/etrice.XMC2GoBlinky.demo/src-gen-st/XMC2GoDemoModel\MrPing.c ****  * calls entry codes while entering a state's history. The ID of the final leaf state is returned
 161:C:/data/workspaces/github/de.protos.demos/src/XMC2GoBlinky/etrice.XMC2GoBlinky.demo/src-gen-st/XMC2GoDemoModel\MrPing.c ****  * @param state__et - the state which is entered
 162:C:/data/workspaces/github/de.protos.demos/src/XMC2GoBlinky/etrice.XMC2GoBlinky.demo/src-gen-st/XMC2GoDemoModel\MrPing.c ****  * @return - the ID of the final leaf state
 163:C:/data/workspaces/github/de.protos.demos/src/XMC2GoBlinky/etrice.XMC2GoBlinky.demo/src-gen-st/XMC2GoDemoModel\MrPing.c ****  */
 164:C:/data/workspaces/github/de.protos.demos/src/XMC2GoBlinky/etrice.XMC2GoBlinky.demo/src-gen-st/XMC2GoDemoModel\MrPing.c **** static etInt16 enterHistory(MrPing* self, etInt16 state__et) {
 443              		.loc 1 164 0
 444              		.cfi_startproc
 445 0000 80B5     		push	{r7, lr}
 446              	.LCFI21:
 447              		.cfi_def_cfa_offset 8
 448              		.cfi_offset 7, -8
 449              		.cfi_offset 14, -4
 450 0002 84B0     		sub	sp, sp, #16
 451              	.LCFI22:
 452              		.cfi_def_cfa_offset 24
 453 0004 00AF     		add	r7, sp, #0
 454              	.LCFI23:
 455              		.cfi_def_cfa_register 7
 456 0006 7860     		str	r0, [r7, #4]
 457 0008 0A1C     		mov	r2, r1
 458 000a BB1C     		add	r3, r7, #2
 459 000c 1A80     		strh	r2, [r3]
 165:C:/data/workspaces/github/de.protos.demos/src/XMC2GoBlinky/etrice.XMC2GoBlinky.demo/src-gen-st/XMC2GoDemoModel\MrPing.c **** 	boolean skip_entry__et = ET_FALSE;
 460              		.loc 1 165 0
 461 000e 3B1C     		mov	r3, r7
 462 0010 0F33     		add	r3, r3, #15
 463 0012 0022     		mov	r2, #0
 464 0014 1A70     		strb	r2, [r3]
 166:C:/data/workspaces/github/de.protos.demos/src/XMC2GoBlinky/etrice.XMC2GoBlinky.demo/src-gen-st/XMC2GoDemoModel\MrPing.c **** 	if (state__et >= STATE_MAX) {
 465              		.loc 1 166 0
 466 0016 BB1C     		add	r3, r7, #2
 467 0018 0022     		mov	r2, #0
 468 001a 9B5E     		ldrsh	r3, [r3, r2]
 469 001c 022B     		cmp	r3, #2
 470 001e 09DD     		ble	.L23
 167:C:/data/workspaces/github/de.protos.demos/src/XMC2GoBlinky/etrice.XMC2GoBlinky.demo/src-gen-st/XMC2GoDemoModel\MrPing.c **** 		state__et = (etInt16) (state__et - STATE_MAX);
 471              		.loc 1 167 0
 472 0020 BB1C     		add	r3, r7, #2
 473 0022 1B88     		ldrh	r3, [r3]
 474 0024 033B     		sub	r3, r3, #3
 475 0026 9AB2     		uxth	r2, r3
 476 0028 BB1C     		add	r3, r7, #2
 477 002a 1A80     		strh	r2, [r3]
 168:C:/data/workspaces/github/de.protos.demos/src/XMC2GoBlinky/etrice.XMC2GoBlinky.demo/src-gen-st/XMC2GoDemoModel\MrPing.c **** 		skip_entry__et = ET_TRUE;
 478              		.loc 1 168 0
 479 002c 3B1C     		mov	r3, r7
 480 002e 0F33     		add	r3, r3, #15
 481 0030 0122     		mov	r2, #1
 482 0032 1A70     		strb	r2, [r3]
 483              	.L23:
 169:C:/data/workspaces/github/de.protos.demos/src/XMC2GoBlinky/etrice.XMC2GoBlinky.demo/src-gen-st/XMC2GoDemoModel\MrPing.c **** 	}
 170:C:/data/workspaces/github/de.protos.demos/src/XMC2GoBlinky/etrice.XMC2GoBlinky.demo/src-gen-st/XMC2GoDemoModel\MrPing.c **** 	while (ET_TRUE) {
 171:C:/data/workspaces/github/de.protos.demos/src/XMC2GoBlinky/etrice.XMC2GoBlinky.demo/src-gen-st/XMC2GoDemoModel\MrPing.c **** 		switch (state__et) {
 484              		.loc 1 171 0
 485 0034 BB1C     		add	r3, r7, #2
 486 0036 0022     		mov	r2, #0
 487 0038 9B5E     		ldrsh	r3, [r3, r2]
 488 003a 012B     		cmp	r3, #1
 489 003c 04D0     		beq	.L25
 490 003e 022B     		cmp	r3, #2
 491 0040 07D1     		bne	.L29
 492              	.L26:
 172:C:/data/workspaces/github/de.protos.demos/src/XMC2GoBlinky/etrice.XMC2GoBlinky.demo/src-gen-st/XMC2GoDemoModel\MrPing.c **** 			case STATE_running:
 173:C:/data/workspaces/github/de.protos.demos/src/XMC2GoBlinky/etrice.XMC2GoBlinky.demo/src-gen-st/XMC2GoDemoModel\MrPing.c **** 				/* in leaf state: return state id */
 174:C:/data/workspaces/github/de.protos.demos/src/XMC2GoBlinky/etrice.XMC2GoBlinky.demo/src-gen-st/XMC2GoDemoModel\MrPing.c **** 				return STATE_running;
 493              		.loc 1 174 0
 494 0042 0223     		mov	r3, #2
 495 0044 1BB2     		sxth	r3, r3
 496 0046 0AE0     		b	.L30
 497              	.L25:
 175:C:/data/workspaces/github/de.protos.demos/src/XMC2GoBlinky/etrice.XMC2GoBlinky.demo/src-gen-st/XMC2GoDemoModel\MrPing.c **** 			case STATE_TOP:
 176:C:/data/workspaces/github/de.protos.demos/src/XMC2GoBlinky/etrice.XMC2GoBlinky.demo/src-gen-st/XMC2GoDemoModel\MrPing.c **** 				state__et = self->history[STATE_TOP];
 498              		.loc 1 176 0
 499 0048 BB1C     		add	r3, r7, #2
 500 004a 7A68     		ldr	r2, [r7, #4]
 501 004c 928C     		ldrh	r2, [r2, #36]
 502 004e 1A80     		strh	r2, [r3]
 177:C:/data/workspaces/github/de.protos.demos/src/XMC2GoBlinky/etrice.XMC2GoBlinky.demo/src-gen-st/XMC2GoDemoModel\MrPing.c **** 				break;
 503              		.loc 1 177 0
 504 0050 00E0     		b	.L28
 505              	.L29:
 178:C:/data/workspaces/github/de.protos.demos/src/XMC2GoBlinky/etrice.XMC2GoBlinky.demo/src-gen-st/XMC2GoDemoModel\MrPing.c **** 			default:
 179:C:/data/workspaces/github/de.protos.demos/src/XMC2GoBlinky/etrice.XMC2GoBlinky.demo/src-gen-st/XMC2GoDemoModel\MrPing.c **** 				/* should not occur */
 180:C:/data/workspaces/github/de.protos.demos/src/XMC2GoBlinky/etrice.XMC2GoBlinky.demo/src-gen-st/XMC2GoDemoModel\MrPing.c **** 				break;
 506              		.loc 1 180 0
 507 0052 C046     		mov	r8, r8
 508              	.L28:
 181:C:/data/workspaces/github/de.protos.demos/src/XMC2GoBlinky/etrice.XMC2GoBlinky.demo/src-gen-st/XMC2GoDemoModel\MrPing.c **** 		}
 182:C:/data/workspaces/github/de.protos.demos/src/XMC2GoBlinky/etrice.XMC2GoBlinky.demo/src-gen-st/XMC2GoDemoModel\MrPing.c **** 		skip_entry__et = ET_FALSE;
 509              		.loc 1 182 0
 510 0054 3B1C     		mov	r3, r7
 511 0056 0F33     		add	r3, r3, #15
 512 0058 0022     		mov	r2, #0
 513 005a 1A70     		strb	r2, [r3]
 183:C:/data/workspaces/github/de.protos.demos/src/XMC2GoBlinky/etrice.XMC2GoBlinky.demo/src-gen-st/XMC2GoDemoModel\MrPing.c **** 	}
 514              		.loc 1 183 0
 515 005c EAE7     		b	.L23
 516              	.L30:
 184:C:/data/workspaces/github/de.protos.demos/src/XMC2GoBlinky/etrice.XMC2GoBlinky.demo/src-gen-st/XMC2GoDemoModel\MrPing.c **** 	/* return NO_STATE; // required by CDT but detected as unreachable by JDT because of while (true) 
 185:C:/data/workspaces/github/de.protos.demos/src/XMC2GoBlinky/etrice.XMC2GoBlinky.demo/src-gen-st/XMC2GoDemoModel\MrPing.c **** }
 517              		.loc 1 185 0
 518 005e 181C     		mov	r0, r3
 519 0060 BD46     		mov	sp, r7
 520 0062 04B0     		add	sp, sp, #16
 521              		@ sp needed for prologue
 522 0064 80BD     		pop	{r7, pc}
 523              		.cfi_endproc
 524              	.LFE40:
 526 0066 C046     		.section	.text.MrPing_executeInitTransition,"ax",%progbits
 527              		.align	2
 528              		.code	16
 529              		.thumb_func
 531              	MrPing_executeInitTransition:
 532              	.LFB41:
 186:C:/data/workspaces/github/de.protos.demos/src/XMC2GoBlinky/etrice.XMC2GoBlinky.demo/src-gen-st/XMC2GoDemoModel\MrPing.c **** 
 187:C:/data/workspaces/github/de.protos.demos/src/XMC2GoBlinky/etrice.XMC2GoBlinky.demo/src-gen-st/XMC2GoDemoModel\MrPing.c **** static void MrPing_executeInitTransition(MrPing* self) {
 533              		.loc 1 187 0
 534              		.cfi_startproc
 535 0000 90B5     		push	{r4, r7, lr}
 536              	.LCFI24:
 537              		.cfi_def_cfa_offset 12
 538              		.cfi_offset 4, -12
 539              		.cfi_offset 7, -8
 540              		.cfi_offset 14, -4
 541 0002 85B0     		sub	sp, sp, #20
 542              	.LCFI25:
 543              		.cfi_def_cfa_offset 32
 544 0004 00AF     		add	r7, sp, #0
 545              	.LCFI26:
 546              		.cfi_def_cfa_register 7
 547 0006 7860     		str	r0, [r7, #4]
 188:C:/data/workspaces/github/de.protos.demos/src/XMC2GoBlinky/etrice.XMC2GoBlinky.demo/src-gen-st/XMC2GoDemoModel\MrPing.c **** 	int chain__et = CHAIN_TRANS_INITIAL_TO__running;
 548              		.loc 1 188 0
 549 0008 0123     		mov	r3, #1
 550 000a FB60     		str	r3, [r7, #12]
 189:C:/data/workspaces/github/de.protos.demos/src/XMC2GoBlinky/etrice.XMC2GoBlinky.demo/src-gen-st/XMC2GoDemoModel\MrPing.c **** 	etInt16 next__et = executeTransitionChain(self, chain__et, NULL, NULL);
 551              		.loc 1 189 0
 552 000c 3C1C     		mov	r4, r7
 553 000e 0A34     		add	r4, r4, #10
 554 0010 7A68     		ldr	r2, [r7, #4]
 555 0012 FB68     		ldr	r3, [r7, #12]
 556 0014 101C     		mov	r0, r2
 557 0016 191C     		mov	r1, r3
 558 0018 0022     		mov	r2, #0
 559 001a 0023     		mov	r3, #0
 560 001c FFF7FEFF 		bl	executeTransitionChain
 561 0020 031C     		mov	r3, r0
 562 0022 2380     		strh	r3, [r4]
 190:C:/data/workspaces/github/de.protos.demos/src/XMC2GoBlinky/etrice.XMC2GoBlinky.demo/src-gen-st/XMC2GoDemoModel\MrPing.c **** 	next__et = enterHistory(self, next__et);
 563              		.loc 1 190 0
 564 0024 3C1C     		mov	r4, r7
 565 0026 0A34     		add	r4, r4, #10
 566 0028 7A68     		ldr	r2, [r7, #4]
 567 002a 3B1C     		mov	r3, r7
 568 002c 0A33     		add	r3, r3, #10
 569 002e 0021     		mov	r1, #0
 570 0030 5B5E     		ldrsh	r3, [r3, r1]
 571 0032 101C     		mov	r0, r2
 572 0034 191C     		mov	r1, r3
 573 0036 FFF7FEFF 		bl	enterHistory
 574 003a 031C     		mov	r3, r0
 575 003c 2380     		strh	r3, [r4]
 191:C:/data/workspaces/github/de.protos.demos/src/XMC2GoBlinky/etrice.XMC2GoBlinky.demo/src-gen-st/XMC2GoDemoModel\MrPing.c **** 	setState(self, next__et);
 576              		.loc 1 191 0
 577 003e 7A68     		ldr	r2, [r7, #4]
 578 0040 3B1C     		mov	r3, r7
 579 0042 0A33     		add	r3, r3, #10
 580 0044 0021     		mov	r1, #0
 581 0046 5B5E     		ldrsh	r3, [r3, r1]
 582 0048 101C     		mov	r0, r2
 583 004a 191C     		mov	r1, r3
 584 004c FFF7FEFF 		bl	setState
 192:C:/data/workspaces/github/de.protos.demos/src/XMC2GoBlinky/etrice.XMC2GoBlinky.demo/src-gen-st/XMC2GoDemoModel\MrPing.c **** }
 585              		.loc 1 192 0
 586 0050 BD46     		mov	sp, r7
 587 0052 05B0     		add	sp, sp, #20
 588              		@ sp needed for prologue
 589 0054 90BD     		pop	{r4, r7, pc}
 590              		.cfi_endproc
 591              	.LFE41:
 593 0056 C046     		.section	.text.MrPing_receiveEvent,"ax",%progbits
 594              		.align	2
 595              		.code	16
 596              		.thumb_func
 598              	MrPing_receiveEvent:
 599              	.LFB42:
 193:C:/data/workspaces/github/de.protos.demos/src/XMC2GoBlinky/etrice.XMC2GoBlinky.demo/src-gen-st/XMC2GoDemoModel\MrPing.c **** 
 194:C:/data/workspaces/github/de.protos.demos/src/XMC2GoBlinky/etrice.XMC2GoBlinky.demo/src-gen-st/XMC2GoDemoModel\MrPing.c **** /* receiveEvent contains the main implementation of the FSM */
 195:C:/data/workspaces/github/de.protos.demos/src/XMC2GoBlinky/etrice.XMC2GoBlinky.demo/src-gen-st/XMC2GoDemoModel\MrPing.c **** static void MrPing_receiveEvent(MrPing* self, InterfaceItemBase* ifitem, int evt, void* generic_dat
 600              		.loc 1 195 0
 601              		.cfi_startproc
 602 0000 90B5     		push	{r4, r7, lr}
 603              	.LCFI27:
 604              		.cfi_def_cfa_offset 12
 605              		.cfi_offset 4, -12
 606              		.cfi_offset 7, -8
 607              		.cfi_offset 14, -4
 608 0002 89B0     		sub	sp, sp, #36
 609              	.LCFI28:
 610              		.cfi_def_cfa_offset 48
 611 0004 00AF     		add	r7, sp, #0
 612              	.LCFI29:
 613              		.cfi_def_cfa_register 7
 614 0006 F860     		str	r0, [r7, #12]
 615 0008 B960     		str	r1, [r7, #8]
 616 000a 7A60     		str	r2, [r7, #4]
 617 000c 3B60     		str	r3, [r7]
 196:C:/data/workspaces/github/de.protos.demos/src/XMC2GoBlinky/etrice.XMC2GoBlinky.demo/src-gen-st/XMC2GoDemoModel\MrPing.c **** 	int trigger__et = ifitem->localId + EVT_SHIFT*evt;
 618              		.loc 1 196 0
 619 000e BB68     		ldr	r3, [r7, #8]
 620 0010 5B7A     		ldrb	r3, [r3, #9]
 621 0012 1A1C     		mov	r2, r3
 622 0014 7B68     		ldr	r3, [r7, #4]
 623 0016 6421     		mov	r1, #100
 624 0018 4B43     		mul	r3, r1
 625 001a D318     		add	r3, r2, r3
 626 001c 7B61     		str	r3, [r7, #20]
 197:C:/data/workspaces/github/de.protos.demos/src/XMC2GoBlinky/etrice.XMC2GoBlinky.demo/src-gen-st/XMC2GoDemoModel\MrPing.c **** 	int chain__et = NOT_CAUGHT;
 627              		.loc 1 197 0
 628 001e 0023     		mov	r3, #0
 629 0020 FB61     		str	r3, [r7, #28]
 198:C:/data/workspaces/github/de.protos.demos/src/XMC2GoBlinky/etrice.XMC2GoBlinky.demo/src-gen-st/XMC2GoDemoModel\MrPing.c **** 	etInt16 catching_state__et = NO_STATE;
 630              		.loc 1 198 0
 631 0022 3B1C     		mov	r3, r7
 632 0024 1A33     		add	r3, r3, #26
 633 0026 0022     		mov	r2, #0
 634 0028 1A80     		strh	r2, [r3]
 199:C:/data/workspaces/github/de.protos.demos/src/XMC2GoBlinky/etrice.XMC2GoBlinky.demo/src-gen-st/XMC2GoDemoModel\MrPing.c **** 	((void)trigger__et);	/* avoids unused warning */
 200:C:/data/workspaces/github/de.protos.demos/src/XMC2GoBlinky/etrice.XMC2GoBlinky.demo/src-gen-st/XMC2GoDemoModel\MrPing.c **** 	
 201:C:/data/workspaces/github/de.protos.demos/src/XMC2GoBlinky/etrice.XMC2GoBlinky.demo/src-gen-st/XMC2GoDemoModel\MrPing.c **** 	if (!handleSystemEvent(ifitem, evt, generic_data__et)) {
 635              		.loc 1 201 0
 636 002a B968     		ldr	r1, [r7, #8]
 637 002c 7A68     		ldr	r2, [r7, #4]
 638 002e 3B68     		ldr	r3, [r7]
 639 0030 081C     		mov	r0, r1
 640 0032 111C     		mov	r1, r2
 641 0034 1A1C     		mov	r2, r3
 642 0036 FFF7FEFF 		bl	handleSystemEvent
 643 003a 031C     		mov	r3, r0
 644 003c 002B     		cmp	r3, #0
 645 003e 1DD1     		bne	.L33
 202:C:/data/workspaces/github/de.protos.demos/src/XMC2GoBlinky/etrice.XMC2GoBlinky.demo/src-gen-st/XMC2GoDemoModel\MrPing.c **** 		switch (getState(self)) {
 646              		.loc 1 202 0
 647 0040 FB68     		ldr	r3, [r7, #12]
 648 0042 181C     		mov	r0, r3
 649 0044 FFF7FEFF 		bl	getState
 650 0048 031C     		mov	r3, r0
 651 004a 022B     		cmp	r3, #2
 652 004c 15D1     		bne	.L41
 653              	.L35:
 203:C:/data/workspaces/github/de.protos.demos/src/XMC2GoBlinky/etrice.XMC2GoBlinky.demo/src-gen-st/XMC2GoDemoModel\MrPing.c **** 			case STATE_running:
 204:C:/data/workspaces/github/de.protos.demos/src/XMC2GoBlinky/etrice.XMC2GoBlinky.demo/src-gen-st/XMC2GoDemoModel\MrPing.c **** 				switch(trigger__et) {
 654              		.loc 1 204 0
 655 004e 7B69     		ldr	r3, [r7, #20]
 656 0050 682B     		cmp	r3, #104
 657 0052 02D0     		beq	.L37
 658 0054 692B     		cmp	r3, #105
 659 0056 07D0     		beq	.L38
 660 0058 0DE0     		b	.L42
 661              	.L37:
 205:C:/data/workspaces/github/de.protos.demos/src/XMC2GoBlinky/etrice.XMC2GoBlinky.demo/src-gen-st/XMC2GoDemoModel\MrPing.c **** 						case TRIG_p0__pong:
 206:C:/data/workspaces/github/de.protos.demos/src/XMC2GoBlinky/etrice.XMC2GoBlinky.demo/src-gen-st/XMC2GoDemoModel\MrPing.c **** 							{
 207:C:/data/workspaces/github/de.protos.demos/src/XMC2GoBlinky/etrice.XMC2GoBlinky.demo/src-gen-st/XMC2GoDemoModel\MrPing.c **** 								chain__et = CHAIN_TRANS_tr0_FROM_running_TO_running_BY_pongp0_tr0;
 662              		.loc 1 207 0
 663 005a 0223     		mov	r3, #2
 664 005c FB61     		str	r3, [r7, #28]
 208:C:/data/workspaces/github/de.protos.demos/src/XMC2GoBlinky/etrice.XMC2GoBlinky.demo/src-gen-st/XMC2GoDemoModel\MrPing.c **** 								catching_state__et = STATE_TOP;
 665              		.loc 1 208 0
 666 005e 3B1C     		mov	r3, r7
 667 0060 1A33     		add	r3, r3, #26
 668 0062 0122     		mov	r2, #1
 669 0064 1A80     		strh	r2, [r3]
 209:C:/data/workspaces/github/de.protos.demos/src/XMC2GoBlinky/etrice.XMC2GoBlinky.demo/src-gen-st/XMC2GoDemoModel\MrPing.c **** 							}
 210:C:/data/workspaces/github/de.protos.demos/src/XMC2GoBlinky/etrice.XMC2GoBlinky.demo/src-gen-st/XMC2GoDemoModel\MrPing.c **** 						break;
 670              		.loc 1 210 0
 671 0066 07E0     		b	.L39
 672              	.L38:
 211:C:/data/workspaces/github/de.protos.demos/src/XMC2GoBlinky/etrice.XMC2GoBlinky.demo/src-gen-st/XMC2GoDemoModel\MrPing.c **** 						case TRIG_timer__timeout:
 212:C:/data/workspaces/github/de.protos.demos/src/XMC2GoBlinky/etrice.XMC2GoBlinky.demo/src-gen-st/XMC2GoDemoModel\MrPing.c **** 							{
 213:C:/data/workspaces/github/de.protos.demos/src/XMC2GoBlinky/etrice.XMC2GoBlinky.demo/src-gen-st/XMC2GoDemoModel\MrPing.c **** 								chain__et = CHAIN_TRANS_tr1_FROM_running_TO_running_BY_timeouttimer_tr1;
 673              		.loc 1 213 0
 674 0068 0323     		mov	r3, #3
 675 006a FB61     		str	r3, [r7, #28]
 214:C:/data/workspaces/github/de.protos.demos/src/XMC2GoBlinky/etrice.XMC2GoBlinky.demo/src-gen-st/XMC2GoDemoModel\MrPing.c **** 								catching_state__et = STATE_TOP;
 676              		.loc 1 214 0
 677 006c 3B1C     		mov	r3, r7
 678 006e 1A33     		add	r3, r3, #26
 679 0070 0122     		mov	r2, #1
 680 0072 1A80     		strh	r2, [r3]
 215:C:/data/workspaces/github/de.protos.demos/src/XMC2GoBlinky/etrice.XMC2GoBlinky.demo/src-gen-st/XMC2GoDemoModel\MrPing.c **** 							}
 216:C:/data/workspaces/github/de.protos.demos/src/XMC2GoBlinky/etrice.XMC2GoBlinky.demo/src-gen-st/XMC2GoDemoModel\MrPing.c **** 						break;
 681              		.loc 1 216 0
 682 0074 00E0     		b	.L39
 683              	.L42:
 217:C:/data/workspaces/github/de.protos.demos/src/XMC2GoBlinky/etrice.XMC2GoBlinky.demo/src-gen-st/XMC2GoDemoModel\MrPing.c **** 						default:
 218:C:/data/workspaces/github/de.protos.demos/src/XMC2GoBlinky/etrice.XMC2GoBlinky.demo/src-gen-st/XMC2GoDemoModel\MrPing.c **** 							/* should not occur */
 219:C:/data/workspaces/github/de.protos.demos/src/XMC2GoBlinky/etrice.XMC2GoBlinky.demo/src-gen-st/XMC2GoDemoModel\MrPing.c **** 							break;
 684              		.loc 1 219 0
 685 0076 C046     		mov	r8, r8
 686              	.L39:
 220:C:/data/workspaces/github/de.protos.demos/src/XMC2GoBlinky/etrice.XMC2GoBlinky.demo/src-gen-st/XMC2GoDemoModel\MrPing.c **** 				}
 221:C:/data/workspaces/github/de.protos.demos/src/XMC2GoBlinky/etrice.XMC2GoBlinky.demo/src-gen-st/XMC2GoDemoModel\MrPing.c **** 				break;
 687              		.loc 1 221 0
 688 0078 00E0     		b	.L33
 689              	.L41:
 222:C:/data/workspaces/github/de.protos.demos/src/XMC2GoBlinky/etrice.XMC2GoBlinky.demo/src-gen-st/XMC2GoDemoModel\MrPing.c **** 			default:
 223:C:/data/workspaces/github/de.protos.demos/src/XMC2GoBlinky/etrice.XMC2GoBlinky.demo/src-gen-st/XMC2GoDemoModel\MrPing.c **** 				/* should not occur */
 224:C:/data/workspaces/github/de.protos.demos/src/XMC2GoBlinky/etrice.XMC2GoBlinky.demo/src-gen-st/XMC2GoDemoModel\MrPing.c **** 				break;
 690              		.loc 1 224 0
 691 007a C046     		mov	r8, r8
 692              	.L33:
 225:C:/data/workspaces/github/de.protos.demos/src/XMC2GoBlinky/etrice.XMC2GoBlinky.demo/src-gen-st/XMC2GoDemoModel\MrPing.c **** 		}
 226:C:/data/workspaces/github/de.protos.demos/src/XMC2GoBlinky/etrice.XMC2GoBlinky.demo/src-gen-st/XMC2GoDemoModel\MrPing.c **** 	}
 227:C:/data/workspaces/github/de.protos.demos/src/XMC2GoBlinky/etrice.XMC2GoBlinky.demo/src-gen-st/XMC2GoDemoModel\MrPing.c **** 	if (chain__et != NOT_CAUGHT) {
 693              		.loc 1 227 0
 694 007c FB69     		ldr	r3, [r7, #28]
 695 007e 002B     		cmp	r3, #0
 696 0080 2FD0     		beq	.L32
 228:C:/data/workspaces/github/de.protos.demos/src/XMC2GoBlinky/etrice.XMC2GoBlinky.demo/src-gen-st/XMC2GoDemoModel\MrPing.c **** 		exitTo(self, getState(self), catching_state__et);
 697              		.loc 1 228 0
 698 0082 FB68     		ldr	r3, [r7, #12]
 699 0084 181C     		mov	r0, r3
 700 0086 FFF7FEFF 		bl	getState
 701 008a 031C     		mov	r3, r0
 702 008c 1A1C     		mov	r2, r3
 703 008e F968     		ldr	r1, [r7, #12]
 704 0090 3B1C     		mov	r3, r7
 705 0092 1A33     		add	r3, r3, #26
 706 0094 0020     		mov	r0, #0
 707 0096 1B5E     		ldrsh	r3, [r3, r0]
 708 0098 081C     		mov	r0, r1
 709 009a 111C     		mov	r1, r2
 710 009c 1A1C     		mov	r2, r3
 711 009e FFF7FEFF 		bl	exitTo
 712              	.LBB3:
 229:C:/data/workspaces/github/de.protos.demos/src/XMC2GoBlinky/etrice.XMC2GoBlinky.demo/src-gen-st/XMC2GoDemoModel\MrPing.c **** 		{
 230:C:/data/workspaces/github/de.protos.demos/src/XMC2GoBlinky/etrice.XMC2GoBlinky.demo/src-gen-st/XMC2GoDemoModel\MrPing.c **** 			etInt16 next__et = executeTransitionChain(self, chain__et, ifitem, generic_data__et);
 713              		.loc 1 230 0
 714 00a2 3C1C     		mov	r4, r7
 715 00a4 1234     		add	r4, r4, #18
 716 00a6 F868     		ldr	r0, [r7, #12]
 717 00a8 F969     		ldr	r1, [r7, #28]
 718 00aa BA68     		ldr	r2, [r7, #8]
 719 00ac 3B68     		ldr	r3, [r7]
 720 00ae FFF7FEFF 		bl	executeTransitionChain
 721 00b2 031C     		mov	r3, r0
 722 00b4 2380     		strh	r3, [r4]
 231:C:/data/workspaces/github/de.protos.demos/src/XMC2GoBlinky/etrice.XMC2GoBlinky.demo/src-gen-st/XMC2GoDemoModel\MrPing.c **** 			next__et = enterHistory(self, next__et);
 723              		.loc 1 231 0
 724 00b6 3C1C     		mov	r4, r7
 725 00b8 1234     		add	r4, r4, #18
 726 00ba FA68     		ldr	r2, [r7, #12]
 727 00bc 3B1C     		mov	r3, r7
 728 00be 1233     		add	r3, r3, #18
 729 00c0 0021     		mov	r1, #0
 730 00c2 5B5E     		ldrsh	r3, [r3, r1]
 731 00c4 101C     		mov	r0, r2
 732 00c6 191C     		mov	r1, r3
 733 00c8 FFF7FEFF 		bl	enterHistory
 734 00cc 031C     		mov	r3, r0
 735 00ce 2380     		strh	r3, [r4]
 232:C:/data/workspaces/github/de.protos.demos/src/XMC2GoBlinky/etrice.XMC2GoBlinky.demo/src-gen-st/XMC2GoDemoModel\MrPing.c **** 			setState(self, next__et);
 736              		.loc 1 232 0
 737 00d0 FA68     		ldr	r2, [r7, #12]
 738 00d2 3B1C     		mov	r3, r7
 739 00d4 1233     		add	r3, r3, #18
 740 00d6 0020     		mov	r0, #0
 741 00d8 1B5E     		ldrsh	r3, [r3, r0]
 742 00da 101C     		mov	r0, r2
 743 00dc 191C     		mov	r1, r3
 744 00de FFF7FEFF 		bl	setState
 745              	.L32:
 746              	.LBE3:
 233:C:/data/workspaces/github/de.protos.demos/src/XMC2GoBlinky/etrice.XMC2GoBlinky.demo/src-gen-st/XMC2GoDemoModel\MrPing.c **** 		}
 234:C:/data/workspaces/github/de.protos.demos/src/XMC2GoBlinky/etrice.XMC2GoBlinky.demo/src-gen-st/XMC2GoDemoModel\MrPing.c **** 	}
 235:C:/data/workspaces/github/de.protos.demos/src/XMC2GoBlinky/etrice.XMC2GoBlinky.demo/src-gen-st/XMC2GoDemoModel\MrPing.c **** }
 747              		.loc 1 235 0
 748 00e2 BD46     		mov	sp, r7
 749 00e4 09B0     		add	sp, sp, #36
 750              		@ sp needed for prologue
 751 00e6 90BD     		pop	{r4, r7, pc}
 752              		.cfi_endproc
 753              	.LFE42:
 755              		.section	.text.MrPing_init,"ax",%progbits
 756              		.align	2
 757              		.global	MrPing_init
 758              		.code	16
 759              		.thumb_func
 761              	MrPing_init:
 762              	.LFB43:
 236:C:/data/workspaces/github/de.protos.demos/src/XMC2GoBlinky/etrice.XMC2GoBlinky.demo/src-gen-st/XMC2GoDemoModel\MrPing.c **** 
 237:C:/data/workspaces/github/de.protos.demos/src/XMC2GoBlinky/etrice.XMC2GoBlinky.demo/src-gen-st/XMC2GoDemoModel\MrPing.c **** void MrPing_init(MrPing* self){
 763              		.loc 1 237 0
 764              		.cfi_startproc
 765 0000 80B5     		push	{r7, lr}
 766              	.LCFI30:
 767              		.cfi_def_cfa_offset 8
 768              		.cfi_offset 7, -8
 769              		.cfi_offset 14, -4
 770 0002 84B0     		sub	sp, sp, #16
 771              	.LCFI31:
 772              		.cfi_def_cfa_offset 24
 773 0004 00AF     		add	r7, sp, #0
 774              	.LCFI32:
 775              		.cfi_def_cfa_register 7
 776 0006 7860     		str	r0, [r7, #4]
 238:C:/data/workspaces/github/de.protos.demos/src/XMC2GoBlinky/etrice.XMC2GoBlinky.demo/src-gen-st/XMC2GoDemoModel\MrPing.c **** 	ET_MSC_LOGGER_SYNC_ENTRY("MrPing", "init")
 239:C:/data/workspaces/github/de.protos.demos/src/XMC2GoBlinky/etrice.XMC2GoBlinky.demo/src-gen-st/XMC2GoDemoModel\MrPing.c **** 	self->state = STATE_TOP;
 777              		.loc 1 239 0
 778 0008 7B68     		ldr	r3, [r7, #4]
 779 000a 0122     		mov	r2, #1
 780 000c 1A84     		strh	r2, [r3, #32]
 781              	.LBB4:
 240:C:/data/workspaces/github/de.protos.demos/src/XMC2GoBlinky/etrice.XMC2GoBlinky.demo/src-gen-st/XMC2GoDemoModel\MrPing.c **** 	{
 241:C:/data/workspaces/github/de.protos.demos/src/XMC2GoBlinky/etrice.XMC2GoBlinky.demo/src-gen-st/XMC2GoDemoModel\MrPing.c **** 		int i;
 242:C:/data/workspaces/github/de.protos.demos/src/XMC2GoBlinky/etrice.XMC2GoBlinky.demo/src-gen-st/XMC2GoDemoModel\MrPing.c **** 		for (i=0; i<MRPING_HISTORY_SIZE; ++i)
 782              		.loc 1 242 0
 783 000e 0023     		mov	r3, #0
 784 0010 FB60     		str	r3, [r7, #12]
 785 0012 09E0     		b	.L44
 786              	.L45:
 243:C:/data/workspaces/github/de.protos.demos/src/XMC2GoBlinky/etrice.XMC2GoBlinky.demo/src-gen-st/XMC2GoDemoModel\MrPing.c **** 			self->history[i] = NO_STATE;
 787              		.loc 1 243 0 discriminator 2
 788 0014 7A68     		ldr	r2, [r7, #4]
 789 0016 FB68     		ldr	r3, [r7, #12]
 790 0018 1033     		add	r3, r3, #16
 791 001a 5B00     		lsl	r3, r3, #1
 792 001c D318     		add	r3, r2, r3
 793 001e 0022     		mov	r2, #0
 794 0020 5A80     		strh	r2, [r3, #2]
 242:C:/data/workspaces/github/de.protos.demos/src/XMC2GoBlinky/etrice.XMC2GoBlinky.demo/src-gen-st/XMC2GoDemoModel\MrPing.c **** 		for (i=0; i<MRPING_HISTORY_SIZE; ++i)
 795              		.loc 1 242 0 discriminator 2
 796 0022 FB68     		ldr	r3, [r7, #12]
 797 0024 0133     		add	r3, r3, #1
 798 0026 FB60     		str	r3, [r7, #12]
 799              	.L44:
 242:C:/data/workspaces/github/de.protos.demos/src/XMC2GoBlinky/etrice.XMC2GoBlinky.demo/src-gen-st/XMC2GoDemoModel\MrPing.c **** 		for (i=0; i<MRPING_HISTORY_SIZE; ++i)
 800              		.loc 1 242 0 is_stmt 0 discriminator 1
 801 0028 FB68     		ldr	r3, [r7, #12]
 802 002a 012B     		cmp	r3, #1
 803 002c F2DD     		ble	.L45
 804              	.LBE4:
 244:C:/data/workspaces/github/de.protos.demos/src/XMC2GoBlinky/etrice.XMC2GoBlinky.demo/src-gen-st/XMC2GoDemoModel\MrPing.c **** 	}
 245:C:/data/workspaces/github/de.protos.demos/src/XMC2GoBlinky/etrice.XMC2GoBlinky.demo/src-gen-st/XMC2GoDemoModel\MrPing.c **** 	MrPing_executeInitTransition(self);
 805              		.loc 1 245 0 is_stmt 1
 806 002e 7B68     		ldr	r3, [r7, #4]
 807 0030 181C     		mov	r0, r3
 808 0032 FFF7FEFF 		bl	MrPing_executeInitTransition
 246:C:/data/workspaces/github/de.protos.demos/src/XMC2GoBlinky/etrice.XMC2GoBlinky.demo/src-gen-st/XMC2GoDemoModel\MrPing.c **** 	ET_MSC_LOGGER_SYNC_EXIT
 247:C:/data/workspaces/github/de.protos.demos/src/XMC2GoBlinky/etrice.XMC2GoBlinky.demo/src-gen-st/XMC2GoDemoModel\MrPing.c **** }
 809              		.loc 1 247 0
 810 0036 BD46     		mov	sp, r7
 811 0038 04B0     		add	sp, sp, #16
 812              		@ sp needed for prologue
 813 003a 80BD     		pop	{r7, pc}
 814              		.cfi_endproc
 815              	.LFE43:
 817              		.section	.text.MrPing_receiveMessage,"ax",%progbits
 818              		.align	2
 819              		.global	MrPing_receiveMessage
 820              		.code	16
 821              		.thumb_func
 823              	MrPing_receiveMessage:
 824              	.LFB44:
 248:C:/data/workspaces/github/de.protos.demos/src/XMC2GoBlinky/etrice.XMC2GoBlinky.demo/src-gen-st/XMC2GoDemoModel\MrPing.c **** 
 249:C:/data/workspaces/github/de.protos.demos/src/XMC2GoBlinky/etrice.XMC2GoBlinky.demo/src-gen-st/XMC2GoDemoModel\MrPing.c **** 
 250:C:/data/workspaces/github/de.protos.demos/src/XMC2GoBlinky/etrice.XMC2GoBlinky.demo/src-gen-st/XMC2GoDemoModel\MrPing.c **** void MrPing_receiveMessage(void* self, const void* ifitem, const etMessage* msg){
 825              		.loc 1 250 0
 826              		.cfi_startproc
 827 0000 80B5     		push	{r7, lr}
 828              	.LCFI33:
 829              		.cfi_def_cfa_offset 8
 830              		.cfi_offset 7, -8
 831              		.cfi_offset 14, -4
 832 0002 84B0     		sub	sp, sp, #16
 833              	.LCFI34:
 834              		.cfi_def_cfa_offset 24
 835 0004 00AF     		add	r7, sp, #0
 836              	.LCFI35:
 837              		.cfi_def_cfa_register 7
 838 0006 F860     		str	r0, [r7, #12]
 839 0008 B960     		str	r1, [r7, #8]
 840 000a 7A60     		str	r2, [r7, #4]
 251:C:/data/workspaces/github/de.protos.demos/src/XMC2GoBlinky/etrice.XMC2GoBlinky.demo/src-gen-st/XMC2GoDemoModel\MrPing.c **** 	ET_MSC_LOGGER_SYNC_ENTRY("MrPing", "_receiveMessage")
 252:C:/data/workspaces/github/de.protos.demos/src/XMC2GoBlinky/etrice.XMC2GoBlinky.demo/src-gen-st/XMC2GoDemoModel\MrPing.c **** 	
 253:C:/data/workspaces/github/de.protos.demos/src/XMC2GoBlinky/etrice.XMC2GoBlinky.demo/src-gen-st/XMC2GoDemoModel\MrPing.c **** 	MrPing_receiveEvent(self, (etPort*)ifitem, msg->evtID, (void*)(((char*)msg)+MEM_CEIL(sizeof(etMess
 841              		.loc 1 253 0
 842 000c 7B68     		ldr	r3, [r7, #4]
 843 000e DB88     		ldrh	r3, [r3, #6]
 844 0010 1AB2     		sxth	r2, r3
 845 0012 7B68     		ldr	r3, [r7, #4]
 846 0014 0833     		add	r3, r3, #8
 847 0016 F868     		ldr	r0, [r7, #12]
 848 0018 B968     		ldr	r1, [r7, #8]
 849 001a FFF7FEFF 		bl	MrPing_receiveEvent
 254:C:/data/workspaces/github/de.protos.demos/src/XMC2GoBlinky/etrice.XMC2GoBlinky.demo/src-gen-st/XMC2GoDemoModel\MrPing.c **** 	
 255:C:/data/workspaces/github/de.protos.demos/src/XMC2GoBlinky/etrice.XMC2GoBlinky.demo/src-gen-st/XMC2GoDemoModel\MrPing.c **** 	ET_MSC_LOGGER_SYNC_EXIT
 256:C:/data/workspaces/github/de.protos.demos/src/XMC2GoBlinky/etrice.XMC2GoBlinky.demo/src-gen-st/XMC2GoDemoModel\MrPing.c **** }
 850              		.loc 1 256 0
 851 001e BD46     		mov	sp, r7
 852 0020 04B0     		add	sp, sp, #16
 853              		@ sp needed for prologue
 854 0022 80BD     		pop	{r7, pc}
 855              		.cfi_endproc
 856              	.LFE44:
 858              		.text
 859              	.Letext0:
 860              		.file 2 "C:\\data\\workspaces\\github\\de.protos.demos\\src\\XMC2GoBlinky\\etrice.runtime.c\\eTric
 861              		.file 3 "C:\\data\\workspaces\\github\\de.protos.demos\\src\\XMC2GoBlinky\\etrice.runtime.c\\eTric
 862              		.file 4 "C:\\data\\workspaces\\github\\de.protos.demos\\src\\XMC2GoBlinky\\etrice.XMC2GoBlinky.dem
 863              		.file 5 "C:\\data\\workspaces\\github\\de.protos.demos\\src\\XMC2GoBlinky\\etrice.runtime.c\\eTric
 864              		.file 6 "C:\\data\\workspaces\\github\\de.protos.demos\\src\\XMC2GoBlinky\\etrice.runtime.c\\eTric
 865              		.file 7 "C:\\data\\workspaces\\github\\de.protos.demos\\src\\XMC2GoBlinky\\etrice.runtime.c\\eTric
 866              		.file 8 "C:\\data\\workspaces\\github\\de.protos.demos\\src\\XMC2GoBlinky\\etrice.runtime.c\\eTric
 867              		.file 9 "C:\\data\\workspaces\\github\\de.protos.demos\\src\\XMC2GoBlinky\\etrice.runtime.c\\eTric
 868              		.file 10 "C:\\data\\workspaces\\github\\de.protos.demos\\src\\XMC2GoBlinky\\etrice.runtime.c\\eTri
 869              		.file 11 "C:\\data\\workspaces\\github\\de.protos.demos\\src\\XMC2GoBlinky\\etrice.runtime.c\\eTri
 870              		.file 12 "C:\\data\\workspaces\\github\\de.protos.demos\\src\\XMC2GoBlinky\\etrice.runtime.c\\eTri
 871              		.file 13 "C:\\data\\workspaces\\github\\de.protos.demos\\src\\XMC2GoBlinky\\etrice.runtime.c\\eTri
 872              		.file 14 "C:\\data\\workspaces\\github\\de.protos.demos\\src\\XMC2GoBlinky\\etrice.XMC2GoBlinky.de
 873              		.file 15 "C:\\data\\workspaces\\github\\de.protos.demos\\src\\XMC2GoBlinky\\etrice.XMC2GoBlinky.de
 874              		.file 16 "C:\\data\\workspaces\\github\\de.protos.demos\\src\\XMC2GoBlinky\\etrice.XMC2GoBlinky.de
 875              		.file 17 "C:\\data\\workspaces\\github\\de.protos.demos\\src\\XMC2GoBlinky\\etrice.XMC2GoBlinky.de
 876              		.file 18 "C:/data/workspaces/github/de.protos.demos/src/XMC2GoBlinky/etrice.XMC2GoBlinky.demo/src-