   1              		.cpu cortex-m0
   2              		.fpu softvfp
   3              		.eabi_attribute 20, 1
   4              		.eabi_attribute 21, 1
   5              		.eabi_attribute 23, 3
   6              		.eabi_attribute 24, 1
   7              		.eabi_attribute 25, 1
   8              		.eabi_attribute 26, 1
   9              		.eabi_attribute 30, 6
  10              		.eabi_attribute 34, 0
  11              		.eabi_attribute 18, 4
  12              		.code	16
  13              		.file	"PingPongData.c"
  14              		.text
  15              	.Ltext0:
  16              		.cfi_sections	.debug_frame
  17              		.section	.text.PingPongData_getData,"ax",%progbits
  18              		.align	2
  19              		.global	PingPongData_getData
  20              		.code	16
  21              		.thumb_func
  23              	PingPongData_getData:
  24              	.LFB0:
  25              		.file 1 "C:/data/workspaces/github/de.protos.demos/src/XMC2GoBlinky/etrice.XMC2GoBlinky.demo/src-g
   1:C:/data/workspaces/github/de.protos.demos/src/XMC2GoBlinky/etrice.XMC2GoBlinky.demo/src-gen-st/XMC2GoDemoModel\PingPongData.c **** /**
   2:C:/data/workspaces/github/de.protos.demos/src/XMC2GoBlinky/etrice.XMC2GoBlinky.demo/src-gen-st/XMC2GoDemoModel\PingPongData.c ****  * @author generated by eTrice
   3:C:/data/workspaces/github/de.protos.demos/src/XMC2GoBlinky/etrice.XMC2GoBlinky.demo/src-gen-st/XMC2GoDemoModel\PingPongData.c ****  *
   4:C:/data/workspaces/github/de.protos.demos/src/XMC2GoBlinky/etrice.XMC2GoBlinky.demo/src-gen-st/XMC2GoDemoModel\PingPongData.c ****  * Source File of DataClass PingPongData
   5:C:/data/workspaces/github/de.protos.demos/src/XMC2GoBlinky/etrice.XMC2GoBlinky.demo/src-gen-st/XMC2GoDemoModel\PingPongData.c ****  * 
   6:C:/data/workspaces/github/de.protos.demos/src/XMC2GoBlinky/etrice.XMC2GoBlinky.demo/src-gen-st/XMC2GoDemoModel\PingPongData.c ****  */
   7:C:/data/workspaces/github/de.protos.demos/src/XMC2GoBlinky/etrice.XMC2GoBlinky.demo/src-gen-st/XMC2GoDemoModel\PingPongData.c **** 
   8:C:/data/workspaces/github/de.protos.demos/src/XMC2GoBlinky/etrice.XMC2GoBlinky.demo/src-gen-st/XMC2GoDemoModel\PingPongData.c **** #include <string.h>
   9:C:/data/workspaces/github/de.protos.demos/src/XMC2GoBlinky/etrice.XMC2GoBlinky.demo/src-gen-st/XMC2GoDemoModel\PingPongData.c **** 
  10:C:/data/workspaces/github/de.protos.demos/src/XMC2GoBlinky/etrice.XMC2GoBlinky.demo/src-gen-st/XMC2GoDemoModel\PingPongData.c **** #include "PingPongData.h"
  11:C:/data/workspaces/github/de.protos.demos/src/XMC2GoBlinky/etrice.XMC2GoBlinky.demo/src-gen-st/XMC2GoDemoModel\PingPongData.c **** #include "PingPongData_Utils.h"
  12:C:/data/workspaces/github/de.protos.demos/src/XMC2GoBlinky/etrice.XMC2GoBlinky.demo/src-gen-st/XMC2GoDemoModel\PingPongData.c **** 
  13:C:/data/workspaces/github/de.protos.demos/src/XMC2GoBlinky/etrice.XMC2GoBlinky.demo/src-gen-st/XMC2GoDemoModel\PingPongData.c **** 
  14:C:/data/workspaces/github/de.protos.demos/src/XMC2GoBlinky/etrice.XMC2GoBlinky.demo/src-gen-st/XMC2GoDemoModel\PingPongData.c **** 
  15:C:/data/workspaces/github/de.protos.demos/src/XMC2GoBlinky/etrice.XMC2GoBlinky.demo/src-gen-st/XMC2GoDemoModel\PingPongData.c **** /*--------------------- operations ---------------------*/
  16:C:/data/workspaces/github/de.protos.demos/src/XMC2GoBlinky/etrice.XMC2GoBlinky.demo/src-gen-st/XMC2GoDemoModel\PingPongData.c **** void PingPongData_getData(PingPongData* self, uint8* p) {
  26              		.loc 1 16 0
  27              		.cfi_startproc
  28 0000 80B5     		push	{r7, lr}
  29              	.LCFI0:
  30              		.cfi_def_cfa_offset 8
  31              		.cfi_offset 7, -8
  32              		.cfi_offset 14, -4
  33 0002 84B0     		sub	sp, sp, #16
  34              	.LCFI1:
  35              		.cfi_def_cfa_offset 24
  36 0004 00AF     		add	r7, sp, #0
  37              	.LCFI2:
  38              		.cfi_def_cfa_register 7
  39 0006 7860     		str	r0, [r7, #4]
  40 0008 3960     		str	r1, [r7]
  17:C:/data/workspaces/github/de.protos.demos/src/XMC2GoBlinky/etrice.XMC2GoBlinky.demo/src-gen-st/XMC2GoDemoModel\PingPongData.c **** 	uint8 i;
  18:C:/data/workspaces/github/de.protos.demos/src/XMC2GoBlinky/etrice.XMC2GoBlinky.demo/src-gen-st/XMC2GoDemoModel\PingPongData.c **** 	for(i=0;i<10;i++){*p++=data[i];};
  41              		.loc 1 18 0
  42 000a 3B1C     		mov	r3, r7
  43 000c 0F33     		add	r3, r3, #15
  44 000e 0022     		mov	r2, #0
  45 0010 1A70     		strb	r2, [r3]
  46 0012 10E0     		b	.L2
  47              	.L3:
  48              		.loc 1 18 0 is_stmt 0 discriminator 2
  49 0014 3B1C     		mov	r3, r7
  50 0016 0F33     		add	r3, r3, #15
  51 0018 1B78     		ldrb	r3, [r3]
  52 001a 7A68     		ldr	r2, [r7, #4]
  53 001c D25C     		ldrb	r2, [r2, r3]
  54 001e 3B68     		ldr	r3, [r7]
  55 0020 1A70     		strb	r2, [r3]
  56 0022 3B68     		ldr	r3, [r7]
  57 0024 0133     		add	r3, r3, #1
  58 0026 3B60     		str	r3, [r7]
  59 0028 3B1C     		mov	r3, r7
  60 002a 0F33     		add	r3, r3, #15
  61 002c 3A1C     		mov	r2, r7
  62 002e 0F32     		add	r2, r2, #15
  63 0030 1278     		ldrb	r2, [r2]
  64 0032 0132     		add	r2, r2, #1
  65 0034 1A70     		strb	r2, [r3]
  66              	.L2:
  67              		.loc 1 18 0 discriminator 1
  68 0036 3B1C     		mov	r3, r7
  69 0038 0F33     		add	r3, r3, #15
  70 003a 1B78     		ldrb	r3, [r3]
  71 003c 092B     		cmp	r3, #9
  72 003e E9D9     		bls	.L3
  19:C:/data/workspaces/github/de.protos.demos/src/XMC2GoBlinky/etrice.XMC2GoBlinky.demo/src-gen-st/XMC2GoDemoModel\PingPongData.c **** }
  73              		.loc 1 19 0 is_stmt 1
  74 0040 BD46     		mov	sp, r7
  75 0042 04B0     		add	sp, sp, #16
  76              		@ sp needed for prologue
  77 0044 80BD     		pop	{r7, pc}
  78              		.cfi_endproc
  79              	.LFE0:
  81 0046 C046     		.section	.text.PingPongData_initData,"ax",%progbits
  82              		.align	2
  83              		.global	PingPongData_initData
  84              		.code	16
  85              		.thumb_func
  87              	PingPongData_initData:
  88              	.LFB1:
  20:C:/data/workspaces/github/de.protos.demos/src/XMC2GoBlinky/etrice.XMC2GoBlinky.demo/src-gen-st/XMC2GoDemoModel\PingPongData.c **** void PingPongData_initData(PingPongData* self) {
  89              		.loc 1 20 0
  90              		.cfi_startproc
  91 0000 80B5     		push	{r7, lr}
  92              	.LCFI3:
  93              		.cfi_def_cfa_offset 8
  94              		.cfi_offset 7, -8
  95              		.cfi_offset 14, -4
  96 0002 84B0     		sub	sp, sp, #16
  97              	.LCFI4:
  98              		.cfi_def_cfa_offset 24
  99 0004 00AF     		add	r7, sp, #0
 100              	.LCFI5:
 101              		.cfi_def_cfa_register 7
 102 0006 7860     		str	r0, [r7, #4]
  21:C:/data/workspaces/github/de.protos.demos/src/XMC2GoBlinky/etrice.XMC2GoBlinky.demo/src-gen-st/XMC2GoDemoModel\PingPongData.c **** 	int i;
  22:C:/data/workspaces/github/de.protos.demos/src/XMC2GoBlinky/etrice.XMC2GoBlinky.demo/src-gen-st/XMC2GoDemoModel\PingPongData.c **** 	for(i=0;i<10;i++){data[i]=i;};
 103              		.loc 1 22 0
 104 0008 0023     		mov	r3, #0
 105 000a FB60     		str	r3, [r7, #12]
 106 000c 08E0     		b	.L5
 107              	.L6:
 108              		.loc 1 22 0 is_stmt 0 discriminator 2
 109 000e FB68     		ldr	r3, [r7, #12]
 110 0010 DAB2     		uxtb	r2, r3
 111 0012 7968     		ldr	r1, [r7, #4]
 112 0014 FB68     		ldr	r3, [r7, #12]
 113 0016 CB18     		add	r3, r1, r3
 114 0018 1A70     		strb	r2, [r3]
 115 001a FB68     		ldr	r3, [r7, #12]
 116 001c 0133     		add	r3, r3, #1
 117 001e FB60     		str	r3, [r7, #12]
 118              	.L5:
 119              		.loc 1 22 0 discriminator 1
 120 0020 FB68     		ldr	r3, [r7, #12]
 121 0022 092B     		cmp	r3, #9
 122 0024 F3DD     		ble	.L6
  23:C:/data/workspaces/github/de.protos.demos/src/XMC2GoBlinky/etrice.XMC2GoBlinky.demo/src-gen-st/XMC2GoDemoModel\PingPongData.c **** }
 123              		.loc 1 23 0 is_stmt 1
 124 0026 BD46     		mov	sp, r7
 125 0028 04B0     		add	sp, sp, #16
 126              		@ sp needed for prologue
 127 002a 80BD     		pop	{r7, pc}
 128              		.cfi_endproc
 129              	.LFE1:
 131              		.section	.text.PingPongData_deepCopy,"ax",%progbits
 132              		.align	2
 133              		.global	PingPongData_deepCopy
 134              		.code	16
 135              		.thumb_func
 137              	PingPongData_deepCopy:
 138              	.LFB2:
  24:C:/data/workspaces/github/de.protos.demos/src/XMC2GoBlinky/etrice.XMC2GoBlinky.demo/src-gen-st/XMC2GoDemoModel\PingPongData.c **** 
  25:C:/data/workspaces/github/de.protos.demos/src/XMC2GoBlinky/etrice.XMC2GoBlinky.demo/src-gen-st/XMC2GoDemoModel\PingPongData.c **** void PingPongData_deepCopy(PingPongData* source, PingPongData* target) {
 139              		.loc 1 25 0
 140              		.cfi_startproc
 141 0000 80B5     		push	{r7, lr}
 142              	.LCFI6:
 143              		.cfi_def_cfa_offset 8
 144              		.cfi_offset 7, -8
 145              		.cfi_offset 14, -4
 146 0002 82B0     		sub	sp, sp, #8
 147              	.LCFI7:
 148              		.cfi_def_cfa_offset 16
 149 0004 00AF     		add	r7, sp, #0
 150              	.LCFI8:
 151              		.cfi_def_cfa_register 7
 152 0006 7860     		str	r0, [r7, #4]
 153 0008 3960     		str	r1, [r7]
  26:C:/data/workspaces/github/de.protos.demos/src/XMC2GoBlinky/etrice.XMC2GoBlinky.demo/src-gen-st/XMC2GoDemoModel\PingPongData.c **** 	memcpy(target, source, sizeof(PingPongData));
 154              		.loc 1 26 0
 155 000a 3A68     		ldr	r2, [r7]
 156 000c 7B68     		ldr	r3, [r7, #4]
 157 000e 101C     		mov	r0, r2
 158 0010 191C     		mov	r1, r3
 159 0012 0A22     		mov	r2, #10
 160 0014 FFF7FEFF 		bl	memcpy
  27:C:/data/workspaces/github/de.protos.demos/src/XMC2GoBlinky/etrice.XMC2GoBlinky.demo/src-gen-st/XMC2GoDemoModel\PingPongData.c **** }
 161              		.loc 1 27 0
 162 0018 BD46     		mov	sp, r7
 163 001a 02B0     		add	sp, sp, #8
 164              		@ sp needed for prologue
 165 001c 80BD     		pop	{r7, pc}
 166              		.cfi_endproc
 167              	.LFE2:
 169 001e C046     		.text
 170              	.Letext0:
 171              		.file 2 "C:\\data\\workspaces\\github\\de.protos.demos\\src\\XMC2GoBlinky\\etrice.runtime.c\\eTric
 172              		.file 3 "C:/data/workspaces/github/de.protos.demos/src/XMC2GoBlinky/etrice.XMC2GoBlinky.demo/src-g