   1              		.cpu cortex-m0
   2              		.fpu softvfp
   3              		.eabi_attribute 20, 1
   4              		.eabi_attribute 21, 1
   5              		.eabi_attribute 23, 3
   6              		.eabi_attribute 24, 1
   7              		.eabi_attribute 25, 1
   8              		.eabi_attribute 26, 1
   9              		.eabi_attribute 30, 6
  10              		.eabi_attribute 34, 0
  11              		.eabi_attribute 18, 4
  12              		.code	16
  13              		.file	"XMC2Go_PingPong_subSysRef_Runner.c"
  14              		.text
  15              	.Ltext0:
  16              		.cfi_sections	.debug_frame
  17              		.section	.rodata
  18              		.align	2
  19              	.LC0:
  20 0000 2D686561 		.ascii	"-headless\000"
  20      646C6573 
  20      7300
  21 000a 0000     		.align	2
  22              	.LC2:
  23 000c 2D72756E 		.ascii	"-run_as_test\000"
  23      5F61735F 
  23      74657374 
  23      00
  24 0019 000000   		.align	2
  25              	.LC4:
  26 001c 2A2A2A20 		.ascii	"***   T H E   B E G I N   ***\000"
  26      20205420 
  26      48204520 
  26      20204220 
  26      45204720 
  27 003a 0000     		.align	2
  28              	.LC6:
  29 003c 2A2A2A20 		.ascii	"***   T H E   E N D   ***\000"
  29      20205420 
  29      48204520 
  29      20204520 
  29      4E204420 
  30 0056 0000     		.section	.text.main,"ax",%progbits
  31              		.align	2
  32              		.global	main
  33              		.code	16
  34              		.thumb_func
  36              	main:
  37              	.LFB0:
  38              		.file 1 "C:/data/workspaces/github/de.protos.demos/src/XMC2GoBlinky/etrice.XMC2GoBlinky.demo/src-g
   1:C:/data/workspaces/github/de.protos.demos/src/XMC2GoBlinky/etrice.XMC2GoBlinky.demo/src-gen-st/XMC2GoDemoModel\XMC2Go_PingPong_subSysRef_Runner.c **** /**
   2:C:/data/workspaces/github/de.protos.demos/src/XMC2GoBlinky/etrice.XMC2GoBlinky.demo/src-gen-st/XMC2GoDemoModel\XMC2Go_PingPong_subSysRef_Runner.c ****  * @author generated by eTrice
   3:C:/data/workspaces/github/de.protos.demos/src/XMC2GoBlinky/etrice.XMC2GoBlinky.demo/src-gen-st/XMC2GoDemoModel\XMC2Go_PingPong_subSysRef_Runner.c ****  *
   4:C:/data/workspaces/github/de.protos.demos/src/XMC2GoBlinky/etrice.XMC2GoBlinky.demo/src-gen-st/XMC2GoDemoModel\XMC2Go_PingPong_subSysRef_Runner.c ****  * this class contains the main function running Node XMC2Go with SubSystem PingPong_subSysRef
   5:C:/data/workspaces/github/de.protos.demos/src/XMC2GoBlinky/etrice.XMC2GoBlinky.demo/src-gen-st/XMC2GoDemoModel\XMC2Go_PingPong_subSysRef_Runner.c ****  * it instantiates Node XMC2Go with SubSystem PingPong_subSysRef and starts and ends the lifecycle
   6:C:/data/workspaces/github/de.protos.demos/src/XMC2GoBlinky/etrice.XMC2GoBlinky.demo/src-gen-st/XMC2GoDemoModel\XMC2Go_PingPong_subSysRef_Runner.c ****  */
   7:C:/data/workspaces/github/de.protos.demos/src/XMC2GoBlinky/etrice.XMC2GoBlinky.demo/src-gen-st/XMC2GoDemoModel\XMC2Go_PingPong_subSysRef_Runner.c **** 
   8:C:/data/workspaces/github/de.protos.demos/src/XMC2GoBlinky/etrice.XMC2GoBlinky.demo/src-gen-st/XMC2GoDemoModel\XMC2Go_PingPong_subSysRef_Runner.c **** #include <string.h>
   9:C:/data/workspaces/github/de.protos.demos/src/XMC2GoBlinky/etrice.XMC2GoBlinky.demo/src-gen-st/XMC2GoDemoModel\XMC2Go_PingPong_subSysRef_Runner.c **** 
  10:C:/data/workspaces/github/de.protos.demos/src/XMC2GoBlinky/etrice.XMC2GoBlinky.demo/src-gen-st/XMC2GoDemoModel\XMC2Go_PingPong_subSysRef_Runner.c **** #include "XMC2Go_PingPong_subSysRef.h"
  11:C:/data/workspaces/github/de.protos.demos/src/XMC2GoBlinky/etrice.XMC2GoBlinky.demo/src-gen-st/XMC2GoDemoModel\XMC2Go_PingPong_subSysRef_Runner.c **** 
  12:C:/data/workspaces/github/de.protos.demos/src/XMC2GoBlinky/etrice.XMC2GoBlinky.demo/src-gen-st/XMC2GoDemoModel\XMC2Go_PingPong_subSysRef_Runner.c **** #include "debugging/etLogger.h"
  13:C:/data/workspaces/github/de.protos.demos/src/XMC2GoBlinky/etrice.XMC2GoBlinky.demo/src-gen-st/XMC2GoDemoModel\XMC2Go_PingPong_subSysRef_Runner.c **** #include "debugging/etMSCLogger.h"
  14:C:/data/workspaces/github/de.protos.demos/src/XMC2GoBlinky/etrice.XMC2GoBlinky.demo/src-gen-st/XMC2GoDemoModel\XMC2Go_PingPong_subSysRef_Runner.c **** #include "debugging/etDataLogger.h"
  15:C:/data/workspaces/github/de.protos.demos/src/XMC2GoBlinky/etrice.XMC2GoBlinky.demo/src-gen-st/XMC2GoDemoModel\XMC2Go_PingPong_subSysRef_Runner.c **** 
  16:C:/data/workspaces/github/de.protos.demos/src/XMC2GoBlinky/etrice.XMC2GoBlinky.demo/src-gen-st/XMC2GoDemoModel\XMC2Go_PingPong_subSysRef_Runner.c **** #include "osal/etPlatformLifecycle.h"
  17:C:/data/workspaces/github/de.protos.demos/src/XMC2GoBlinky/etrice.XMC2GoBlinky.demo/src-gen-st/XMC2GoDemoModel\XMC2Go_PingPong_subSysRef_Runner.c **** 
  18:C:/data/workspaces/github/de.protos.demos/src/XMC2GoBlinky/etrice.XMC2GoBlinky.demo/src-gen-st/XMC2GoDemoModel\XMC2Go_PingPong_subSysRef_Runner.c **** /**
  19:C:/data/workspaces/github/de.protos.demos/src/XMC2GoBlinky/etrice.XMC2GoBlinky.demo/src-gen-st/XMC2GoDemoModel\XMC2Go_PingPong_subSysRef_Runner.c ****  * main function
  20:C:/data/workspaces/github/de.protos.demos/src/XMC2GoBlinky/etrice.XMC2GoBlinky.demo/src-gen-st/XMC2GoDemoModel\XMC2Go_PingPong_subSysRef_Runner.c ****  * creates component and starts and stops the lifecycle
  21:C:/data/workspaces/github/de.protos.demos/src/XMC2GoBlinky/etrice.XMC2GoBlinky.demo/src-gen-st/XMC2GoDemoModel\XMC2Go_PingPong_subSysRef_Runner.c ****  */
  22:C:/data/workspaces/github/de.protos.demos/src/XMC2GoBlinky/etrice.XMC2GoBlinky.demo/src-gen-st/XMC2GoDemoModel\XMC2Go_PingPong_subSysRef_Runner.c **** 
  23:C:/data/workspaces/github/de.protos.demos/src/XMC2GoBlinky/etrice.XMC2GoBlinky.demo/src-gen-st/XMC2GoDemoModel\XMC2Go_PingPong_subSysRef_Runner.c **** int main(int argc, char** argv) {
  39              		.loc 1 23 0
  40              		.cfi_startproc
  41 0000 80B5     		push	{r7, lr}
  42              	.LCFI0:
  43              		.cfi_def_cfa_offset 8
  44              		.cfi_offset 7, -8
  45              		.cfi_offset 14, -4
  46 0002 84B0     		sub	sp, sp, #16
  47              	.LCFI1:
  48              		.cfi_def_cfa_offset 24
  49 0004 00AF     		add	r7, sp, #0
  50              	.LCFI2:
  51              		.cfi_def_cfa_register 7
  52 0006 7860     		str	r0, [r7, #4]
  53 0008 3960     		str	r1, [r7]
  24:C:/data/workspaces/github/de.protos.demos/src/XMC2GoBlinky/etrice.XMC2GoBlinky.demo/src-gen-st/XMC2GoDemoModel\XMC2Go_PingPong_subSysRef_Runner.c **** 	etBool runAsTest = ET_FALSE;
  54              		.loc 1 24 0
  55 000a 3B1C     		mov	r3, r7
  56 000c 0F33     		add	r3, r3, #15
  57 000e 0022     		mov	r2, #0
  58 0010 1A70     		strb	r2, [r3]
  25:C:/data/workspaces/github/de.protos.demos/src/XMC2GoBlinky/etrice.XMC2GoBlinky.demo/src-gen-st/XMC2GoDemoModel\XMC2Go_PingPong_subSysRef_Runner.c **** 
  26:C:/data/workspaces/github/de.protos.demos/src/XMC2GoBlinky/etrice.XMC2GoBlinky.demo/src-gen-st/XMC2GoDemoModel\XMC2Go_PingPong_subSysRef_Runner.c **** 	if (argc>1 && strcmp(argv[1], "-headless")==0)
  59              		.loc 1 26 0
  60 0012 7B68     		ldr	r3, [r7, #4]
  61 0014 012B     		cmp	r3, #1
  62 0016 0EDD     		ble	.L2
  63              		.loc 1 26 0 is_stmt 0 discriminator 1
  64 0018 3B68     		ldr	r3, [r7]
  65 001a 0433     		add	r3, r3, #4
  66 001c 1A68     		ldr	r2, [r3]
  67 001e 204B     		ldr	r3, .L5
  68 0020 101C     		mov	r0, r2
  69 0022 191C     		mov	r1, r3
  70 0024 FFF7FEFF 		bl	strcmp
  71 0028 031C     		mov	r3, r0
  72 002a 002B     		cmp	r3, #0
  73 002c 03D1     		bne	.L2
  27:C:/data/workspaces/github/de.protos.demos/src/XMC2GoBlinky/etrice.XMC2GoBlinky.demo/src-gen-st/XMC2GoDemoModel\XMC2Go_PingPong_subSysRef_Runner.c **** 		runAsTest = ET_TRUE;
  74              		.loc 1 27 0 is_stmt 1
  75 002e 3B1C     		mov	r3, r7
  76 0030 0F33     		add	r3, r3, #15
  77 0032 0122     		mov	r2, #1
  78 0034 1A70     		strb	r2, [r3]
  79              	.L2:
  28:C:/data/workspaces/github/de.protos.demos/src/XMC2GoBlinky/etrice.XMC2GoBlinky.demo/src-gen-st/XMC2GoDemoModel\XMC2Go_PingPong_subSysRef_Runner.c **** 	if (argc>1 && strcmp(argv[1], "-run_as_test")==0)
  80              		.loc 1 28 0
  81 0036 7B68     		ldr	r3, [r7, #4]
  82 0038 012B     		cmp	r3, #1
  83 003a 0EDD     		ble	.L3
  84              		.loc 1 28 0 is_stmt 0 discriminator 1
  85 003c 3B68     		ldr	r3, [r7]
  86 003e 0433     		add	r3, r3, #4
  87 0040 1A68     		ldr	r2, [r3]
  88 0042 184B     		ldr	r3, .L5+4
  89 0044 101C     		mov	r0, r2
  90 0046 191C     		mov	r1, r3
  91 0048 FFF7FEFF 		bl	strcmp
  92 004c 031C     		mov	r3, r0
  93 004e 002B     		cmp	r3, #0
  94 0050 03D1     		bne	.L3
  29:C:/data/workspaces/github/de.protos.demos/src/XMC2GoBlinky/etrice.XMC2GoBlinky.demo/src-gen-st/XMC2GoDemoModel\XMC2Go_PingPong_subSysRef_Runner.c **** 		runAsTest = ET_TRUE;
  95              		.loc 1 29 0 is_stmt 1
  96 0052 3B1C     		mov	r3, r7
  97 0054 0F33     		add	r3, r3, #15
  98 0056 0122     		mov	r2, #1
  99 0058 1A70     		strb	r2, [r3]
 100              	.L3:
  30:C:/data/workspaces/github/de.protos.demos/src/XMC2GoBlinky/etrice.XMC2GoBlinky.demo/src-gen-st/XMC2GoDemoModel\XMC2Go_PingPong_subSysRef_Runner.c **** 
  31:C:/data/workspaces/github/de.protos.demos/src/XMC2GoBlinky/etrice.XMC2GoBlinky.demo/src-gen-st/XMC2GoDemoModel\XMC2Go_PingPong_subSysRef_Runner.c **** 	etUserEntry(); /* platform specific */
 101              		.loc 1 31 0
 102 005a FFF7FEFF 		bl	etUserEntry
  32:C:/data/workspaces/github/de.protos.demos/src/XMC2GoBlinky/etrice.XMC2GoBlinky.demo/src-gen-st/XMC2GoDemoModel\XMC2Go_PingPong_subSysRef_Runner.c **** 	
  33:C:/data/workspaces/github/de.protos.demos/src/XMC2GoBlinky/etrice.XMC2GoBlinky.demo/src-gen-st/XMC2GoDemoModel\XMC2Go_PingPong_subSysRef_Runner.c **** 	etLogger_logInfo("***   T H E   B E G I N   ***");
 103              		.loc 1 33 0
 104 005e 124B     		ldr	r3, .L5+8
 105 0060 181C     		mov	r0, r3
 106 0062 FFF7FEFF 		bl	etLogger_logInfo
  34:C:/data/workspaces/github/de.protos.demos/src/XMC2GoBlinky/etrice.XMC2GoBlinky.demo/src-gen-st/XMC2GoDemoModel\XMC2Go_PingPong_subSysRef_Runner.c **** 	ET_MSC_LOGGER_OPEN("main");
  35:C:/data/workspaces/github/de.protos.demos/src/XMC2GoBlinky/etrice.XMC2GoBlinky.demo/src-gen-st/XMC2GoDemoModel\XMC2Go_PingPong_subSysRef_Runner.c **** 
  36:C:/data/workspaces/github/de.protos.demos/src/XMC2GoBlinky/etrice.XMC2GoBlinky.demo/src-gen-st/XMC2GoDemoModel\XMC2Go_PingPong_subSysRef_Runner.c **** 	/* startup sequence  of lifecycle */
  37:C:/data/workspaces/github/de.protos.demos/src/XMC2GoBlinky/etrice.XMC2GoBlinky.demo/src-gen-st/XMC2GoDemoModel\XMC2Go_PingPong_subSysRef_Runner.c **** 	XMC2Go_PingPong_subSysRef_init(); 		/* lifecycle init */
 107              		.loc 1 37 0
 108 0066 FFF7FEFF 		bl	XMC2Go_PingPong_subSysRef_init
  38:C:/data/workspaces/github/de.protos.demos/src/XMC2GoBlinky/etrice.XMC2GoBlinky.demo/src-gen-st/XMC2GoDemoModel\XMC2Go_PingPong_subSysRef_Runner.c **** 	XMC2Go_PingPong_subSysRef_start(); 	/* lifecycle start */
 109              		.loc 1 38 0
 110 006a FFF7FEFF 		bl	XMC2Go_PingPong_subSysRef_start
  39:C:/data/workspaces/github/de.protos.demos/src/XMC2GoBlinky/etrice.XMC2GoBlinky.demo/src-gen-st/XMC2GoDemoModel\XMC2Go_PingPong_subSysRef_Runner.c **** 
  40:C:/data/workspaces/github/de.protos.demos/src/XMC2GoBlinky/etrice.XMC2GoBlinky.demo/src-gen-st/XMC2GoDemoModel\XMC2Go_PingPong_subSysRef_Runner.c **** 	etUserPreRun(); /* platform specific */
 111              		.loc 1 40 0
 112 006e FFF7FEFF 		bl	etUserPreRun
  41:C:/data/workspaces/github/de.protos.demos/src/XMC2GoBlinky/etrice.XMC2GoBlinky.demo/src-gen-st/XMC2GoDemoModel\XMC2Go_PingPong_subSysRef_Runner.c **** 
  42:C:/data/workspaces/github/de.protos.demos/src/XMC2GoBlinky/etrice.XMC2GoBlinky.demo/src-gen-st/XMC2GoDemoModel\XMC2Go_PingPong_subSysRef_Runner.c **** 	/* run Scheduler */
  43:C:/data/workspaces/github/de.protos.demos/src/XMC2GoBlinky/etrice.XMC2GoBlinky.demo/src-gen-st/XMC2GoDemoModel\XMC2Go_PingPong_subSysRef_Runner.c **** 	XMC2Go_PingPong_subSysRef_run(runAsTest);
 113              		.loc 1 43 0
 114 0072 3B1C     		mov	r3, r7
 115 0074 0F33     		add	r3, r3, #15
 116 0076 1B78     		ldrb	r3, [r3]
 117 0078 181C     		mov	r0, r3
 118 007a FFF7FEFF 		bl	XMC2Go_PingPong_subSysRef_run
  44:C:/data/workspaces/github/de.protos.demos/src/XMC2GoBlinky/etrice.XMC2GoBlinky.demo/src-gen-st/XMC2GoDemoModel\XMC2Go_PingPong_subSysRef_Runner.c **** 
  45:C:/data/workspaces/github/de.protos.demos/src/XMC2GoBlinky/etrice.XMC2GoBlinky.demo/src-gen-st/XMC2GoDemoModel\XMC2Go_PingPong_subSysRef_Runner.c **** 	etUserPostRun(); /* platform specific */
 119              		.loc 1 45 0
 120 007e FFF7FEFF 		bl	etUserPostRun
  46:C:/data/workspaces/github/de.protos.demos/src/XMC2GoBlinky/etrice.XMC2GoBlinky.demo/src-gen-st/XMC2GoDemoModel\XMC2Go_PingPong_subSysRef_Runner.c **** 
  47:C:/data/workspaces/github/de.protos.demos/src/XMC2GoBlinky/etrice.XMC2GoBlinky.demo/src-gen-st/XMC2GoDemoModel\XMC2Go_PingPong_subSysRef_Runner.c **** 	/* shutdown sequence of lifecycle */
  48:C:/data/workspaces/github/de.protos.demos/src/XMC2GoBlinky/etrice.XMC2GoBlinky.demo/src-gen-st/XMC2GoDemoModel\XMC2Go_PingPong_subSysRef_Runner.c **** 	XMC2Go_PingPong_subSysRef_stop(); 		/* lifecycle stop */
 121              		.loc 1 48 0
 122 0082 FFF7FEFF 		bl	XMC2Go_PingPong_subSysRef_stop
  49:C:/data/workspaces/github/de.protos.demos/src/XMC2GoBlinky/etrice.XMC2GoBlinky.demo/src-gen-st/XMC2GoDemoModel\XMC2Go_PingPong_subSysRef_Runner.c **** 	XMC2Go_PingPong_subSysRef_destroy(); 	/* lifecycle destroy */
 123              		.loc 1 49 0
 124 0086 FFF7FEFF 		bl	XMC2Go_PingPong_subSysRef_destroy
  50:C:/data/workspaces/github/de.protos.demos/src/XMC2GoBlinky/etrice.XMC2GoBlinky.demo/src-gen-st/XMC2GoDemoModel\XMC2Go_PingPong_subSysRef_Runner.c **** 
  51:C:/data/workspaces/github/de.protos.demos/src/XMC2GoBlinky/etrice.XMC2GoBlinky.demo/src-gen-st/XMC2GoDemoModel\XMC2Go_PingPong_subSysRef_Runner.c **** 	ET_MSC_LOGGER_CLOSE
  52:C:/data/workspaces/github/de.protos.demos/src/XMC2GoBlinky/etrice.XMC2GoBlinky.demo/src-gen-st/XMC2GoDemoModel\XMC2Go_PingPong_subSysRef_Runner.c **** 	etLogger_logInfo("***   T H E   E N D   ***");
 125              		.loc 1 52 0
 126 008a 084B     		ldr	r3, .L5+12
 127 008c 181C     		mov	r0, r3
 128 008e FFF7FEFF 		bl	etLogger_logInfo
  53:C:/data/workspaces/github/de.protos.demos/src/XMC2GoBlinky/etrice.XMC2GoBlinky.demo/src-gen-st/XMC2GoDemoModel\XMC2Go_PingPong_subSysRef_Runner.c **** 
  54:C:/data/workspaces/github/de.protos.demos/src/XMC2GoBlinky/etrice.XMC2GoBlinky.demo/src-gen-st/XMC2GoDemoModel\XMC2Go_PingPong_subSysRef_Runner.c **** 	etUserExit(); /* platform specific */
 129              		.loc 1 54 0
 130 0092 FFF7FEFF 		bl	etUserExit
  55:C:/data/workspaces/github/de.protos.demos/src/XMC2GoBlinky/etrice.XMC2GoBlinky.demo/src-gen-st/XMC2GoDemoModel\XMC2Go_PingPong_subSysRef_Runner.c **** 
  56:C:/data/workspaces/github/de.protos.demos/src/XMC2GoBlinky/etrice.XMC2GoBlinky.demo/src-gen-st/XMC2GoDemoModel\XMC2Go_PingPong_subSysRef_Runner.c **** 	return 0;
 131              		.loc 1 56 0
 132 0096 0023     		mov	r3, #0
  57:C:/data/workspaces/github/de.protos.demos/src/XMC2GoBlinky/etrice.XMC2GoBlinky.demo/src-gen-st/XMC2GoDemoModel\XMC2Go_PingPong_subSysRef_Runner.c **** }
 133              		.loc 1 57 0
 134 0098 181C     		mov	r0, r3
 135 009a BD46     		mov	sp, r7
 136 009c 04B0     		add	sp, sp, #16
 137              		@ sp needed for prologue
 138 009e 80BD     		pop	{r7, pc}
 139              	.L6:
 140              		.align	2
 141              	.L5:
 142 00a0 00000000 		.word	.LC0
 143 00a4 0C000000 		.word	.LC2
 144 00a8 1C000000 		.word	.LC4
 145 00ac 3C000000 		.word	.LC6
 146              		.cfi_endproc
 147              	.LFE0:
 149              		.text
 150              	.Letext0:
 151              		.file 2 "C:\\data\\workspaces\\github\\de.protos.demos\\src\\XMC2GoBlinky\\etrice.runtime.c\\eTric