   1              		.cpu cortex-m0
   2              		.fpu softvfp
   3              		.eabi_attribute 20, 1
   4              		.eabi_attribute 21, 1
   5              		.eabi_attribute 23, 3
   6              		.eabi_attribute 24, 1
   7              		.eabi_attribute 25, 1
   8              		.eabi_attribute 26, 1
   9              		.eabi_attribute 30, 6
  10              		.eabi_attribute 34, 0
  11              		.eabi_attribute 18, 4
  12              		.code	16
  13              		.file	"PTimer.c"
  14              		.text
  15              	.Ltext0:
  16              		.cfi_sections	.debug_frame
  17              		.section	.text.PTimerPort_timeout,"ax",%progbits
  18              		.align	2
  19              		.global	PTimerPort_timeout
  20              		.code	16
  21              		.thumb_func
  23              	PTimerPort_timeout:
  24              	.LFB0:
  25              		.file 1 "C:/data/workspaces/github/de.protos.demos/src/XMC2GoBlinky/etrice.XMC2GoBlinky.demo/src-g
   1:C:/data/workspaces/github/de.protos.demos/src/XMC2GoBlinky/etrice.XMC2GoBlinky.demo/src-gen-mt/room/basic/service/timing\PTimer.c **** /**
   2:C:/data/workspaces/github/de.protos.demos/src/XMC2GoBlinky/etrice.XMC2GoBlinky.demo/src-gen-mt/room/basic/service/timing\PTimer.c ****  * @author generated by eTrice
   3:C:/data/workspaces/github/de.protos.demos/src/XMC2GoBlinky/etrice.XMC2GoBlinky.demo/src-gen-mt/room/basic/service/timing\PTimer.c ****  *
   4:C:/data/workspaces/github/de.protos.demos/src/XMC2GoBlinky/etrice.XMC2GoBlinky.demo/src-gen-mt/room/basic/service/timing\PTimer.c ****  * Source File of ProtocolClass PTimer
   5:C:/data/workspaces/github/de.protos.demos/src/XMC2GoBlinky/etrice.XMC2GoBlinky.demo/src-gen-mt/room/basic/service/timing\PTimer.c ****  * 
   6:C:/data/workspaces/github/de.protos.demos/src/XMC2GoBlinky/etrice.XMC2GoBlinky.demo/src-gen-mt/room/basic/service/timing\PTimer.c ****  */
   7:C:/data/workspaces/github/de.protos.demos/src/XMC2GoBlinky/etrice.XMC2GoBlinky.demo/src-gen-mt/room/basic/service/timing\PTimer.c **** 
   8:C:/data/workspaces/github/de.protos.demos/src/XMC2GoBlinky/etrice.XMC2GoBlinky.demo/src-gen-mt/room/basic/service/timing\PTimer.c **** #include "PTimer.h"
   9:C:/data/workspaces/github/de.protos.demos/src/XMC2GoBlinky/etrice.XMC2GoBlinky.demo/src-gen-mt/room/basic/service/timing\PTimer.c **** #include "debugging/etMSCLogger.h"
  10:C:/data/workspaces/github/de.protos.demos/src/XMC2GoBlinky/etrice.XMC2GoBlinky.demo/src-gen-mt/room/basic/service/timing\PTimer.c **** #include "PTimer_Utils.h"
  11:C:/data/workspaces/github/de.protos.demos/src/XMC2GoBlinky/etrice.XMC2GoBlinky.demo/src-gen-mt/room/basic/service/timing\PTimer.c **** 
  12:C:/data/workspaces/github/de.protos.demos/src/XMC2GoBlinky/etrice.XMC2GoBlinky.demo/src-gen-mt/room/basic/service/timing\PTimer.c **** 
  13:C:/data/workspaces/github/de.protos.demos/src/XMC2GoBlinky/etrice.XMC2GoBlinky.demo/src-gen-mt/room/basic/service/timing\PTimer.c **** /*--------------------- port methods */
  14:C:/data/workspaces/github/de.protos.demos/src/XMC2GoBlinky/etrice.XMC2GoBlinky.demo/src-gen-mt/room/basic/service/timing\PTimer.c **** 
  15:C:/data/workspaces/github/de.protos.demos/src/XMC2GoBlinky/etrice.XMC2GoBlinky.demo/src-gen-mt/room/basic/service/timing\PTimer.c **** void PTimerPort_timeout(const PTimerPort* self) {
  26              		.loc 1 15 0
  27              		.cfi_startproc
  28 0000 80B5     		push	{r7, lr}
  29              	.LCFI0:
  30              		.cfi_def_cfa_offset 8
  31              		.cfi_offset 7, -8
  32              		.cfi_offset 14, -4
  33 0002 82B0     		sub	sp, sp, #8
  34              	.LCFI1:
  35              		.cfi_def_cfa_offset 16
  36 0004 00AF     		add	r7, sp, #0
  37              	.LCFI2:
  38              		.cfi_def_cfa_register 7
  39 0006 7860     		str	r0, [r7, #4]
  16:C:/data/workspaces/github/de.protos.demos/src/XMC2GoBlinky/etrice.XMC2GoBlinky.demo/src-gen-mt/room/basic/service/timing\PTimer.c **** 	ET_MSC_LOGGER_SYNC_ENTRY("PTimerPort", "timeout")
  17:C:/data/workspaces/github/de.protos.demos/src/XMC2GoBlinky/etrice.XMC2GoBlinky.demo/src-gen-mt/room/basic/service/timing\PTimer.c **** 		etPort_sendMessage(self, PTimer_OUT_timeout, 0, NULL);
  40              		.loc 1 17 0
  41 0008 7B68     		ldr	r3, [r7, #4]
  42 000a 181C     		mov	r0, r3
  43 000c 0121     		mov	r1, #1
  44 000e 0022     		mov	r2, #0
  45 0010 0023     		mov	r3, #0
  46 0012 FFF7FEFF 		bl	etPort_sendMessage
  18:C:/data/workspaces/github/de.protos.demos/src/XMC2GoBlinky/etrice.XMC2GoBlinky.demo/src-gen-mt/room/basic/service/timing\PTimer.c **** 	ET_MSC_LOGGER_SYNC_EXIT
  19:C:/data/workspaces/github/de.protos.demos/src/XMC2GoBlinky/etrice.XMC2GoBlinky.demo/src-gen-mt/room/basic/service/timing\PTimer.c **** }
  47              		.loc 1 19 0
  48 0016 BD46     		mov	sp, r7
  49 0018 02B0     		add	sp, sp, #8
  50              		@ sp needed for prologue
  51 001a 80BD     		pop	{r7, pc}
  52              		.cfi_endproc
  53              	.LFE0:
  55              		.section	.text.PTimerReplPort_timeout_broadcast,"ax",%progbits
  56              		.align	2
  57              		.global	PTimerReplPort_timeout_broadcast
  58              		.code	16
  59              		.thumb_func
  61              	PTimerReplPort_timeout_broadcast:
  62              	.LFB1:
  20:C:/data/workspaces/github/de.protos.demos/src/XMC2GoBlinky/etrice.XMC2GoBlinky.demo/src-gen-mt/room/basic/service/timing\PTimer.c **** 
  21:C:/data/workspaces/github/de.protos.demos/src/XMC2GoBlinky/etrice.XMC2GoBlinky.demo/src-gen-mt/room/basic/service/timing\PTimer.c **** void PTimerReplPort_timeout_broadcast(const PTimerReplPort* self) {
  63              		.loc 1 21 0
  64              		.cfi_startproc
  65 0000 80B5     		push	{r7, lr}
  66              	.LCFI3:
  67              		.cfi_def_cfa_offset 8
  68              		.cfi_offset 7, -8
  69              		.cfi_offset 14, -4
  70 0002 84B0     		sub	sp, sp, #16
  71              	.LCFI4:
  72              		.cfi_def_cfa_offset 24
  73 0004 00AF     		add	r7, sp, #0
  74              	.LCFI5:
  75              		.cfi_def_cfa_register 7
  76 0006 7860     		str	r0, [r7, #4]
  22:C:/data/workspaces/github/de.protos.demos/src/XMC2GoBlinky/etrice.XMC2GoBlinky.demo/src-gen-mt/room/basic/service/timing\PTimer.c **** 	int i;
  23:C:/data/workspaces/github/de.protos.demos/src/XMC2GoBlinky/etrice.XMC2GoBlinky.demo/src-gen-mt/room/basic/service/timing\PTimer.c **** 	ET_MSC_LOGGER_SYNC_ENTRY("PTimerReplPort", "timeout")
  24:C:/data/workspaces/github/de.protos.demos/src/XMC2GoBlinky/etrice.XMC2GoBlinky.demo/src-gen-mt/room/basic/service/timing\PTimer.c **** 	for (i=0; i<((etReplPort*)self)->size; ++i) {
  77              		.loc 1 24 0
  78 0008 0023     		mov	r3, #0
  79 000a FB60     		str	r3, [r7, #12]
  80 000c 0DE0     		b	.L3
  81              	.L4:
  25:C:/data/workspaces/github/de.protos.demos/src/XMC2GoBlinky/etrice.XMC2GoBlinky.demo/src-gen-mt/room/basic/service/timing\PTimer.c **** 		etPort_sendMessage((&((etReplPort*)self)->ports[i].port), PTimer_OUT_timeout, 0, NULL);
  82              		.loc 1 25 0 discriminator 2
  83 000e 7B68     		ldr	r3, [r7, #4]
  84 0010 5A68     		ldr	r2, [r3, #4]
  85 0012 FB68     		ldr	r3, [r7, #12]
  86 0014 1B01     		lsl	r3, r3, #4
  87 0016 D318     		add	r3, r2, r3
  88 0018 181C     		mov	r0, r3
  89 001a 0121     		mov	r1, #1
  90 001c 0022     		mov	r2, #0
  91 001e 0023     		mov	r3, #0
  92 0020 FFF7FEFF 		bl	etPort_sendMessage
  24:C:/data/workspaces/github/de.protos.demos/src/XMC2GoBlinky/etrice.XMC2GoBlinky.demo/src-gen-mt/room/basic/service/timing\PTimer.c **** 	for (i=0; i<((etReplPort*)self)->size; ++i) {
  93              		.loc 1 24 0 discriminator 2
  94 0024 FB68     		ldr	r3, [r7, #12]
  95 0026 0133     		add	r3, r3, #1
  96 0028 FB60     		str	r3, [r7, #12]
  97              	.L3:
  24:C:/data/workspaces/github/de.protos.demos/src/XMC2GoBlinky/etrice.XMC2GoBlinky.demo/src-gen-mt/room/basic/service/timing\PTimer.c **** 	for (i=0; i<((etReplPort*)self)->size; ++i) {
  98              		.loc 1 24 0 is_stmt 0 discriminator 1
  99 002a 7B68     		ldr	r3, [r7, #4]
 100 002c 1B88     		ldrh	r3, [r3]
 101 002e 1AB2     		sxth	r2, r3
 102 0030 FB68     		ldr	r3, [r7, #12]
 103 0032 9A42     		cmp	r2, r3
 104 0034 EBDC     		bgt	.L4
  26:C:/data/workspaces/github/de.protos.demos/src/XMC2GoBlinky/etrice.XMC2GoBlinky.demo/src-gen-mt/room/basic/service/timing\PTimer.c **** 	}
  27:C:/data/workspaces/github/de.protos.demos/src/XMC2GoBlinky/etrice.XMC2GoBlinky.demo/src-gen-mt/room/basic/service/timing\PTimer.c **** 	ET_MSC_LOGGER_SYNC_EXIT
  28:C:/data/workspaces/github/de.protos.demos/src/XMC2GoBlinky/etrice.XMC2GoBlinky.demo/src-gen-mt/room/basic/service/timing\PTimer.c **** }
 105              		.loc 1 28 0 is_stmt 1
 106 0036 BD46     		mov	sp, r7
 107 0038 04B0     		add	sp, sp, #16
 108              		@ sp needed for prologue
 109 003a 80BD     		pop	{r7, pc}
 110              		.cfi_endproc
 111              	.LFE1:
 113              		.section	.text.PTimerReplPort_timeout,"ax",%progbits
 114              		.align	2
 115              		.global	PTimerReplPort_timeout
 116              		.code	16
 117              		.thumb_func
 119              	PTimerReplPort_timeout:
 120              	.LFB2:
  29:C:/data/workspaces/github/de.protos.demos/src/XMC2GoBlinky/etrice.XMC2GoBlinky.demo/src-gen-mt/room/basic/service/timing\PTimer.c **** 
  30:C:/data/workspaces/github/de.protos.demos/src/XMC2GoBlinky/etrice.XMC2GoBlinky.demo/src-gen-mt/room/basic/service/timing\PTimer.c **** void PTimerReplPort_timeout(const PTimerReplPort* self, int idx__et) {
 121              		.loc 1 30 0
 122              		.cfi_startproc
 123 0000 80B5     		push	{r7, lr}
 124              	.LCFI6:
 125              		.cfi_def_cfa_offset 8
 126              		.cfi_offset 7, -8
 127              		.cfi_offset 14, -4
 128 0002 82B0     		sub	sp, sp, #8
 129              	.LCFI7:
 130              		.cfi_def_cfa_offset 16
 131 0004 00AF     		add	r7, sp, #0
 132              	.LCFI8:
 133              		.cfi_def_cfa_register 7
 134 0006 7860     		str	r0, [r7, #4]
 135 0008 3960     		str	r1, [r7]
  31:C:/data/workspaces/github/de.protos.demos/src/XMC2GoBlinky/etrice.XMC2GoBlinky.demo/src-gen-mt/room/basic/service/timing\PTimer.c **** 	ET_MSC_LOGGER_SYNC_ENTRY("PTimerReplPort", "timeout")
  32:C:/data/workspaces/github/de.protos.demos/src/XMC2GoBlinky/etrice.XMC2GoBlinky.demo/src-gen-mt/room/basic/service/timing\PTimer.c **** 	if (0<=idx__et && idx__et<((etReplPort*)self)->size) {
 136              		.loc 1 32 0
 137 000a 3B68     		ldr	r3, [r7]
 138 000c 002B     		cmp	r3, #0
 139 000e 10DB     		blt	.L5
 140              		.loc 1 32 0 is_stmt 0 discriminator 1
 141 0010 7B68     		ldr	r3, [r7, #4]
 142 0012 1B88     		ldrh	r3, [r3]
 143 0014 1AB2     		sxth	r2, r3
 144 0016 3B68     		ldr	r3, [r7]
 145 0018 9A42     		cmp	r2, r3
 146 001a 0ADD     		ble	.L5
  33:C:/data/workspaces/github/de.protos.demos/src/XMC2GoBlinky/etrice.XMC2GoBlinky.demo/src-gen-mt/room/basic/service/timing\PTimer.c **** 		etPort_sendMessage((&((etReplPort*)self)->ports[idx__et].port), PTimer_OUT_timeout, 0, NULL);
 147              		.loc 1 33 0 is_stmt 1
 148 001c 7B68     		ldr	r3, [r7, #4]
 149 001e 5A68     		ldr	r2, [r3, #4]
 150 0020 3B68     		ldr	r3, [r7]
 151 0022 1B01     		lsl	r3, r3, #4
 152 0024 D318     		add	r3, r2, r3
 153 0026 181C     		mov	r0, r3
 154 0028 0121     		mov	r1, #1
 155 002a 0022     		mov	r2, #0
 156 002c 0023     		mov	r3, #0
 157 002e FFF7FEFF 		bl	etPort_sendMessage
 158              	.L5:
  34:C:/data/workspaces/github/de.protos.demos/src/XMC2GoBlinky/etrice.XMC2GoBlinky.demo/src-gen-mt/room/basic/service/timing\PTimer.c **** 	}
  35:C:/data/workspaces/github/de.protos.demos/src/XMC2GoBlinky/etrice.XMC2GoBlinky.demo/src-gen-mt/room/basic/service/timing\PTimer.c **** 	ET_MSC_LOGGER_SYNC_EXIT
  36:C:/data/workspaces/github/de.protos.demos/src/XMC2GoBlinky/etrice.XMC2GoBlinky.demo/src-gen-mt/room/basic/service/timing\PTimer.c **** }
 159              		.loc 1 36 0
 160 0032 BD46     		mov	sp, r7
 161 0034 02B0     		add	sp, sp, #8
 162              		@ sp needed for prologue
 163 0036 80BD     		pop	{r7, pc}
 164              		.cfi_endproc
 165              	.LFE2:
 167              		.section	.text.PTimerReplPort_getReplication,"ax",%progbits
 168              		.align	2
 169              		.global	PTimerReplPort_getReplication
 170              		.code	16
 171              		.thumb_func
 173              	PTimerReplPort_getReplication:
 174              	.LFB3:
  37:C:/data/workspaces/github/de.protos.demos/src/XMC2GoBlinky/etrice.XMC2GoBlinky.demo/src-gen-mt/room/basic/service/timing\PTimer.c **** 
  38:C:/data/workspaces/github/de.protos.demos/src/XMC2GoBlinky/etrice.XMC2GoBlinky.demo/src-gen-mt/room/basic/service/timing\PTimer.c **** etInt32 PTimerReplPort_getReplication(const PTimerReplPort* self) {
 175              		.loc 1 38 0
 176              		.cfi_startproc
 177 0000 80B5     		push	{r7, lr}
 178              	.LCFI9:
 179              		.cfi_def_cfa_offset 8
 180              		.cfi_offset 7, -8
 181              		.cfi_offset 14, -4
 182 0002 82B0     		sub	sp, sp, #8
 183              	.LCFI10:
 184              		.cfi_def_cfa_offset 16
 185 0004 00AF     		add	r7, sp, #0
 186              	.LCFI11:
 187              		.cfi_def_cfa_register 7
 188 0006 7860     		str	r0, [r7, #4]
  39:C:/data/workspaces/github/de.protos.demos/src/XMC2GoBlinky/etrice.XMC2GoBlinky.demo/src-gen-mt/room/basic/service/timing\PTimer.c **** 	return ((etReplPort*)self)->size;
 189              		.loc 1 39 0
 190 0008 7B68     		ldr	r3, [r7, #4]
 191 000a 1B88     		ldrh	r3, [r3]
 192 000c 1BB2     		sxth	r3, r3
  40:C:/data/workspaces/github/de.protos.demos/src/XMC2GoBlinky/etrice.XMC2GoBlinky.demo/src-gen-mt/room/basic/service/timing\PTimer.c **** }
 193              		.loc 1 40 0
 194 000e 181C     		mov	r0, r3
 195 0010 BD46     		mov	sp, r7
 196 0012 02B0     		add	sp, sp, #8
 197              		@ sp needed for prologue
 198 0014 80BD     		pop	{r7, pc}
 199              		.cfi_endproc
 200              	.LFE3:
 202 0016 C046     		.section	.text.PTimerConjPort_startTimer,"ax",%progbits
 203              		.align	2
 204              		.global	PTimerConjPort_startTimer
 205              		.code	16
 206              		.thumb_func
 208              	PTimerConjPort_startTimer:
 209              	.LFB4:
  41:C:/data/workspaces/github/de.protos.demos/src/XMC2GoBlinky/etrice.XMC2GoBlinky.demo/src-gen-mt/room/basic/service/timing\PTimer.c **** 
  42:C:/data/workspaces/github/de.protos.demos/src/XMC2GoBlinky/etrice.XMC2GoBlinky.demo/src-gen-mt/room/basic/service/timing\PTimer.c **** 
  43:C:/data/workspaces/github/de.protos.demos/src/XMC2GoBlinky/etrice.XMC2GoBlinky.demo/src-gen-mt/room/basic/service/timing\PTimer.c **** 
  44:C:/data/workspaces/github/de.protos.demos/src/XMC2GoBlinky/etrice.XMC2GoBlinky.demo/src-gen-mt/room/basic/service/timing\PTimer.c **** void PTimerConjPort_startTimer(const PTimerConjPort* self, uint32 data__et) {
 210              		.loc 1 44 0
 211              		.cfi_startproc
 212 0000 80B5     		push	{r7, lr}
 213              	.LCFI12:
 214              		.cfi_def_cfa_offset 8
 215              		.cfi_offset 7, -8
 216              		.cfi_offset 14, -4
 217 0002 82B0     		sub	sp, sp, #8
 218              	.LCFI13:
 219              		.cfi_def_cfa_offset 16
 220 0004 00AF     		add	r7, sp, #0
 221              	.LCFI14:
 222              		.cfi_def_cfa_register 7
 223 0006 7860     		str	r0, [r7, #4]
 224 0008 3960     		str	r1, [r7]
  45:C:/data/workspaces/github/de.protos.demos/src/XMC2GoBlinky/etrice.XMC2GoBlinky.demo/src-gen-mt/room/basic/service/timing\PTimer.c **** 	if (status==0){
 225              		.loc 1 45 0
 226 000a 7B68     		ldr	r3, [r7, #4]
 227 000c 1B68     		ldr	r3, [r3]
 228 000e 1B78     		ldrb	r3, [r3]
 229 0010 002B     		cmp	r3, #0
 230 0012 0AD1     		bne	.L9
  46:C:/data/workspaces/github/de.protos.demos/src/XMC2GoBlinky/etrice.XMC2GoBlinky.demo/src-gen-mt/room/basic/service/timing\PTimer.c **** 					status=ET_TIMER_RUNNING | ET_TIMER_PERIODIC;
 231              		.loc 1 46 0
 232 0014 7B68     		ldr	r3, [r7, #4]
 233 0016 1B68     		ldr	r3, [r3]
 234 0018 0322     		mov	r2, #3
 235 001a 1A70     		strb	r2, [r3]
  47:C:/data/workspaces/github/de.protos.demos/src/XMC2GoBlinky/etrice.XMC2GoBlinky.demo/src-gen-mt/room/basic/service/timing\PTimer.c **** 					etPort_sendMessage(self, PTimer_IN_startTimer, sizeof(int32), &data__et);
 236              		.loc 1 47 0
 237 001c 7A68     		ldr	r2, [r7, #4]
 238 001e 3B1C     		mov	r3, r7
 239 0020 101C     		mov	r0, r2
 240 0022 0221     		mov	r1, #2
 241 0024 0422     		mov	r2, #4
 242 0026 FFF7FEFF 		bl	etPort_sendMessage
 243              	.L9:
  48:C:/data/workspaces/github/de.protos.demos/src/XMC2GoBlinky/etrice.XMC2GoBlinky.demo/src-gen-mt/room/basic/service/timing\PTimer.c **** 					}
  49:C:/data/workspaces/github/de.protos.demos/src/XMC2GoBlinky/etrice.XMC2GoBlinky.demo/src-gen-mt/room/basic/service/timing\PTimer.c **** }
 244              		.loc 1 49 0
 245 002a BD46     		mov	sp, r7
 246 002c 02B0     		add	sp, sp, #8
 247              		@ sp needed for prologue
 248 002e 80BD     		pop	{r7, pc}
 249              		.cfi_endproc
 250              	.LFE4:
 252              		.section	.text.PTimerConjReplPort_startTimer_broadcast,"ax",%progbits
 253              		.align	2
 254              		.global	PTimerConjReplPort_startTimer_broadcast
 255              		.code	16
 256              		.thumb_func
 258              	PTimerConjReplPort_startTimer_broadcast:
 259              	.LFB5:
  50:C:/data/workspaces/github/de.protos.demos/src/XMC2GoBlinky/etrice.XMC2GoBlinky.demo/src-gen-mt/room/basic/service/timing\PTimer.c **** 
  51:C:/data/workspaces/github/de.protos.demos/src/XMC2GoBlinky/etrice.XMC2GoBlinky.demo/src-gen-mt/room/basic/service/timing\PTimer.c **** void PTimerConjReplPort_startTimer_broadcast(const PTimerConjReplPort* self, uint32 data__et) {
 260              		.loc 1 51 0
 261              		.cfi_startproc
 262 0000 80B5     		push	{r7, lr}
 263              	.LCFI15:
 264              		.cfi_def_cfa_offset 8
 265              		.cfi_offset 7, -8
 266              		.cfi_offset 14, -4
 267 0002 84B0     		sub	sp, sp, #16
 268              	.LCFI16:
 269              		.cfi_def_cfa_offset 24
 270 0004 00AF     		add	r7, sp, #0
 271              	.LCFI17:
 272              		.cfi_def_cfa_register 7
 273 0006 7860     		str	r0, [r7, #4]
 274 0008 3960     		str	r1, [r7]
  52:C:/data/workspaces/github/de.protos.demos/src/XMC2GoBlinky/etrice.XMC2GoBlinky.demo/src-gen-mt/room/basic/service/timing\PTimer.c **** 	int i;
  53:C:/data/workspaces/github/de.protos.demos/src/XMC2GoBlinky/etrice.XMC2GoBlinky.demo/src-gen-mt/room/basic/service/timing\PTimer.c **** 	for (i=0; i<((etReplPort*)self)->size; ++i) {
 275              		.loc 1 53 0
 276 000a 0023     		mov	r3, #0
 277 000c FB60     		str	r3, [r7, #12]
 278 000e 0DE0     		b	.L12
 279              	.L13:
  54:C:/data/workspaces/github/de.protos.demos/src/XMC2GoBlinky/etrice.XMC2GoBlinky.demo/src-gen-mt/room/basic/service/timing\PTimer.c **** 		PTimerConjPort_startTimer(&((etReplPort*)self)->ports[i].port, data__et);
 280              		.loc 1 54 0 discriminator 2
 281 0010 7B68     		ldr	r3, [r7, #4]
 282 0012 5A68     		ldr	r2, [r3, #4]
 283 0014 FB68     		ldr	r3, [r7, #12]
 284 0016 1B01     		lsl	r3, r3, #4
 285 0018 D318     		add	r3, r2, r3
 286 001a 1A1C     		mov	r2, r3
 287 001c 3B68     		ldr	r3, [r7]
 288 001e 101C     		mov	r0, r2
 289 0020 191C     		mov	r1, r3
 290 0022 FFF7FEFF 		bl	PTimerConjPort_startTimer
  53:C:/data/workspaces/github/de.protos.demos/src/XMC2GoBlinky/etrice.XMC2GoBlinky.demo/src-gen-mt/room/basic/service/timing\PTimer.c **** 	for (i=0; i<((etReplPort*)self)->size; ++i) {
 291              		.loc 1 53 0 discriminator 2
 292 0026 FB68     		ldr	r3, [r7, #12]
 293 0028 0133     		add	r3, r3, #1
 294 002a FB60     		str	r3, [r7, #12]
 295              	.L12:
  53:C:/data/workspaces/github/de.protos.demos/src/XMC2GoBlinky/etrice.XMC2GoBlinky.demo/src-gen-mt/room/basic/service/timing\PTimer.c **** 	for (i=0; i<((etReplPort*)self)->size; ++i) {
 296              		.loc 1 53 0 is_stmt 0 discriminator 1
 297 002c 7B68     		ldr	r3, [r7, #4]
 298 002e 1B88     		ldrh	r3, [r3]
 299 0030 1AB2     		sxth	r2, r3
 300 0032 FB68     		ldr	r3, [r7, #12]
 301 0034 9A42     		cmp	r2, r3
 302 0036 EBDC     		bgt	.L13
  55:C:/data/workspaces/github/de.protos.demos/src/XMC2GoBlinky/etrice.XMC2GoBlinky.demo/src-gen-mt/room/basic/service/timing\PTimer.c **** 	}					
  56:C:/data/workspaces/github/de.protos.demos/src/XMC2GoBlinky/etrice.XMC2GoBlinky.demo/src-gen-mt/room/basic/service/timing\PTimer.c **** }
 303              		.loc 1 56 0 is_stmt 1
 304 0038 BD46     		mov	sp, r7
 305 003a 04B0     		add	sp, sp, #16
 306              		@ sp needed for prologue
 307 003c 80BD     		pop	{r7, pc}
 308              		.cfi_endproc
 309              	.LFE5:
 311 003e C046     		.section	.text.PTimerConjReplPort_startTimer,"ax",%progbits
 312              		.align	2
 313              		.global	PTimerConjReplPort_startTimer
 314              		.code	16
 315              		.thumb_func
 317              	PTimerConjReplPort_startTimer:
 318              	.LFB6:
  57:C:/data/workspaces/github/de.protos.demos/src/XMC2GoBlinky/etrice.XMC2GoBlinky.demo/src-gen-mt/room/basic/service/timing\PTimer.c **** 
  58:C:/data/workspaces/github/de.protos.demos/src/XMC2GoBlinky/etrice.XMC2GoBlinky.demo/src-gen-mt/room/basic/service/timing\PTimer.c **** void PTimerConjReplPort_startTimer(const PTimerConjReplPort* self, int idx__et, uint32 data__et) {
 319              		.loc 1 58 0
 320              		.cfi_startproc
 321 0000 80B5     		push	{r7, lr}
 322              	.LCFI18:
 323              		.cfi_def_cfa_offset 8
 324              		.cfi_offset 7, -8
 325              		.cfi_offset 14, -4
 326 0002 84B0     		sub	sp, sp, #16
 327              	.LCFI19:
 328              		.cfi_def_cfa_offset 24
 329 0004 00AF     		add	r7, sp, #0
 330              	.LCFI20:
 331              		.cfi_def_cfa_register 7
 332 0006 F860     		str	r0, [r7, #12]
 333 0008 B960     		str	r1, [r7, #8]
 334 000a 7A60     		str	r2, [r7, #4]
  59:C:/data/workspaces/github/de.protos.demos/src/XMC2GoBlinky/etrice.XMC2GoBlinky.demo/src-gen-mt/room/basic/service/timing\PTimer.c **** 	PTimerConjPort_startTimer(&((etReplPort*)self)->ports[idx__et].port, data__et);
 335              		.loc 1 59 0
 336 000c FB68     		ldr	r3, [r7, #12]
 337 000e 5A68     		ldr	r2, [r3, #4]
 338 0010 BB68     		ldr	r3, [r7, #8]
 339 0012 1B01     		lsl	r3, r3, #4
 340 0014 D318     		add	r3, r2, r3
 341 0016 1A1C     		mov	r2, r3
 342 0018 7B68     		ldr	r3, [r7, #4]
 343 001a 101C     		mov	r0, r2
 344 001c 191C     		mov	r1, r3
 345 001e FFF7FEFF 		bl	PTimerConjPort_startTimer
  60:C:/data/workspaces/github/de.protos.demos/src/XMC2GoBlinky/etrice.XMC2GoBlinky.demo/src-gen-mt/room/basic/service/timing\PTimer.c **** }
 346              		.loc 1 60 0
 347 0022 BD46     		mov	sp, r7
 348 0024 04B0     		add	sp, sp, #16
 349              		@ sp needed for prologue
 350 0026 80BD     		pop	{r7, pc}
 351              		.cfi_endproc
 352              	.LFE6:
 354              		.section	.text.PTimerConjPort_startTimeout,"ax",%progbits
 355              		.align	2
 356              		.global	PTimerConjPort_startTimeout
 357              		.code	16
 358              		.thumb_func
 360              	PTimerConjPort_startTimeout:
 361              	.LFB7:
  61:C:/data/workspaces/github/de.protos.demos/src/XMC2GoBlinky/etrice.XMC2GoBlinky.demo/src-gen-mt/room/basic/service/timing\PTimer.c **** 
  62:C:/data/workspaces/github/de.protos.demos/src/XMC2GoBlinky/etrice.XMC2GoBlinky.demo/src-gen-mt/room/basic/service/timing\PTimer.c **** 
  63:C:/data/workspaces/github/de.protos.demos/src/XMC2GoBlinky/etrice.XMC2GoBlinky.demo/src-gen-mt/room/basic/service/timing\PTimer.c **** void PTimerConjPort_startTimeout(const PTimerConjPort* self, uint32 data__et) {
 362              		.loc 1 63 0
 363              		.cfi_startproc
 364 0000 80B5     		push	{r7, lr}
 365              	.LCFI21:
 366              		.cfi_def_cfa_offset 8
 367              		.cfi_offset 7, -8
 368              		.cfi_offset 14, -4
 369 0002 82B0     		sub	sp, sp, #8
 370              	.LCFI22:
 371              		.cfi_def_cfa_offset 16
 372 0004 00AF     		add	r7, sp, #0
 373              	.LCFI23:
 374              		.cfi_def_cfa_register 7
 375 0006 7860     		str	r0, [r7, #4]
 376 0008 3960     		str	r1, [r7]
  64:C:/data/workspaces/github/de.protos.demos/src/XMC2GoBlinky/etrice.XMC2GoBlinky.demo/src-gen-mt/room/basic/service/timing\PTimer.c **** 	if (status==0){
 377              		.loc 1 64 0
 378 000a 7B68     		ldr	r3, [r7, #4]
 379 000c 1B68     		ldr	r3, [r3]
 380 000e 1B78     		ldrb	r3, [r3]
 381 0010 002B     		cmp	r3, #0
 382 0012 0AD1     		bne	.L15
  65:C:/data/workspaces/github/de.protos.demos/src/XMC2GoBlinky/etrice.XMC2GoBlinky.demo/src-gen-mt/room/basic/service/timing\PTimer.c **** 					status = ET_TIMER_RUNNING;
 383              		.loc 1 65 0
 384 0014 7B68     		ldr	r3, [r7, #4]
 385 0016 1B68     		ldr	r3, [r3]
 386 0018 0122     		mov	r2, #1
 387 001a 1A70     		strb	r2, [r3]
  66:C:/data/workspaces/github/de.protos.demos/src/XMC2GoBlinky/etrice.XMC2GoBlinky.demo/src-gen-mt/room/basic/service/timing\PTimer.c **** 					etPort_sendMessage(self, PTimer_IN_startTimeout, sizeof(int32), &data__et);
 388              		.loc 1 66 0
 389 001c 7A68     		ldr	r2, [r7, #4]
 390 001e 3B1C     		mov	r3, r7
 391 0020 101C     		mov	r0, r2
 392 0022 0321     		mov	r1, #3
 393 0024 0422     		mov	r2, #4
 394 0026 FFF7FEFF 		bl	etPort_sendMessage
 395              	.L15:
  67:C:/data/workspaces/github/de.protos.demos/src/XMC2GoBlinky/etrice.XMC2GoBlinky.demo/src-gen-mt/room/basic/service/timing\PTimer.c **** 					}
  68:C:/data/workspaces/github/de.protos.demos/src/XMC2GoBlinky/etrice.XMC2GoBlinky.demo/src-gen-mt/room/basic/service/timing\PTimer.c **** }
 396              		.loc 1 68 0
 397 002a BD46     		mov	sp, r7
 398 002c 02B0     		add	sp, sp, #8
 399              		@ sp needed for prologue
 400 002e 80BD     		pop	{r7, pc}
 401              		.cfi_endproc
 402              	.LFE7:
 404              		.section	.text.PTimerConjReplPort_startTimeout_broadcast,"ax",%progbits
 405              		.align	2
 406              		.global	PTimerConjReplPort_startTimeout_broadcast
 407              		.code	16
 408              		.thumb_func
 410              	PTimerConjReplPort_startTimeout_broadcast:
 411              	.LFB8:
  69:C:/data/workspaces/github/de.protos.demos/src/XMC2GoBlinky/etrice.XMC2GoBlinky.demo/src-gen-mt/room/basic/service/timing\PTimer.c **** 
  70:C:/data/workspaces/github/de.protos.demos/src/XMC2GoBlinky/etrice.XMC2GoBlinky.demo/src-gen-mt/room/basic/service/timing\PTimer.c **** void PTimerConjReplPort_startTimeout_broadcast(const PTimerConjReplPort* self, uint32 data__et) {
 412              		.loc 1 70 0
 413              		.cfi_startproc
 414 0000 80B5     		push	{r7, lr}
 415              	.LCFI24:
 416              		.cfi_def_cfa_offset 8
 417              		.cfi_offset 7, -8
 418              		.cfi_offset 14, -4
 419 0002 84B0     		sub	sp, sp, #16
 420              	.LCFI25:
 421              		.cfi_def_cfa_offset 24
 422 0004 00AF     		add	r7, sp, #0
 423              	.LCFI26:
 424              		.cfi_def_cfa_register 7
 425 0006 7860     		str	r0, [r7, #4]
 426 0008 3960     		str	r1, [r7]
  71:C:/data/workspaces/github/de.protos.demos/src/XMC2GoBlinky/etrice.XMC2GoBlinky.demo/src-gen-mt/room/basic/service/timing\PTimer.c **** 	int i;
  72:C:/data/workspaces/github/de.protos.demos/src/XMC2GoBlinky/etrice.XMC2GoBlinky.demo/src-gen-mt/room/basic/service/timing\PTimer.c **** 	for (i=0; i<((etReplPort*)self)->size; ++i) {
 427              		.loc 1 72 0
 428 000a 0023     		mov	r3, #0
 429 000c FB60     		str	r3, [r7, #12]
 430 000e 0DE0     		b	.L18
 431              	.L19:
  73:C:/data/workspaces/github/de.protos.demos/src/XMC2GoBlinky/etrice.XMC2GoBlinky.demo/src-gen-mt/room/basic/service/timing\PTimer.c **** 		PTimerConjPort_startTimeout(&((etReplPort*)self)->ports[i].port, data__et);
 432              		.loc 1 73 0 discriminator 2
 433 0010 7B68     		ldr	r3, [r7, #4]
 434 0012 5A68     		ldr	r2, [r3, #4]
 435 0014 FB68     		ldr	r3, [r7, #12]
 436 0016 1B01     		lsl	r3, r3, #4
 437 0018 D318     		add	r3, r2, r3
 438 001a 1A1C     		mov	r2, r3
 439 001c 3B68     		ldr	r3, [r7]
 440 001e 101C     		mov	r0, r2
 441 0020 191C     		mov	r1, r3
 442 0022 FFF7FEFF 		bl	PTimerConjPort_startTimeout
  72:C:/data/workspaces/github/de.protos.demos/src/XMC2GoBlinky/etrice.XMC2GoBlinky.demo/src-gen-mt/room/basic/service/timing\PTimer.c **** 	for (i=0; i<((etReplPort*)self)->size; ++i) {
 443              		.loc 1 72 0 discriminator 2
 444 0026 FB68     		ldr	r3, [r7, #12]
 445 0028 0133     		add	r3, r3, #1
 446 002a FB60     		str	r3, [r7, #12]
 447              	.L18:
  72:C:/data/workspaces/github/de.protos.demos/src/XMC2GoBlinky/etrice.XMC2GoBlinky.demo/src-gen-mt/room/basic/service/timing\PTimer.c **** 	for (i=0; i<((etReplPort*)self)->size; ++i) {
 448              		.loc 1 72 0 is_stmt 0 discriminator 1
 449 002c 7B68     		ldr	r3, [r7, #4]
 450 002e 1B88     		ldrh	r3, [r3]
 451 0030 1AB2     		sxth	r2, r3
 452 0032 FB68     		ldr	r3, [r7, #12]
 453 0034 9A42     		cmp	r2, r3
 454 0036 EBDC     		bgt	.L19
  74:C:/data/workspaces/github/de.protos.demos/src/XMC2GoBlinky/etrice.XMC2GoBlinky.demo/src-gen-mt/room/basic/service/timing\PTimer.c **** 	}					
  75:C:/data/workspaces/github/de.protos.demos/src/XMC2GoBlinky/etrice.XMC2GoBlinky.demo/src-gen-mt/room/basic/service/timing\PTimer.c **** }
 455              		.loc 1 75 0 is_stmt 1
 456 0038 BD46     		mov	sp, r7
 457 003a 04B0     		add	sp, sp, #16
 458              		@ sp needed for prologue
 459 003c 80BD     		pop	{r7, pc}
 460              		.cfi_endproc
 461              	.LFE8:
 463 003e C046     		.section	.text.PTimerConjReplPort_startTimeout,"ax",%progbits
 464              		.align	2
 465              		.global	PTimerConjReplPort_startTimeout
 466              		.code	16
 467              		.thumb_func
 469              	PTimerConjReplPort_startTimeout:
 470              	.LFB9:
  76:C:/data/workspaces/github/de.protos.demos/src/XMC2GoBlinky/etrice.XMC2GoBlinky.demo/src-gen-mt/room/basic/service/timing\PTimer.c **** 
  77:C:/data/workspaces/github/de.protos.demos/src/XMC2GoBlinky/etrice.XMC2GoBlinky.demo/src-gen-mt/room/basic/service/timing\PTimer.c **** void PTimerConjReplPort_startTimeout(const PTimerConjReplPort* self, int idx__et, uint32 data__et) 
 471              		.loc 1 77 0
 472              		.cfi_startproc
 473 0000 80B5     		push	{r7, lr}
 474              	.LCFI27:
 475              		.cfi_def_cfa_offset 8
 476              		.cfi_offset 7, -8
 477              		.cfi_offset 14, -4
 478 0002 84B0     		sub	sp, sp, #16
 479              	.LCFI28:
 480              		.cfi_def_cfa_offset 24
 481 0004 00AF     		add	r7, sp, #0
 482              	.LCFI29:
 483              		.cfi_def_cfa_register 7
 484 0006 F860     		str	r0, [r7, #12]
 485 0008 B960     		str	r1, [r7, #8]
 486 000a 7A60     		str	r2, [r7, #4]
  78:C:/data/workspaces/github/de.protos.demos/src/XMC2GoBlinky/etrice.XMC2GoBlinky.demo/src-gen-mt/room/basic/service/timing\PTimer.c **** 	PTimerConjPort_startTimeout(&((etReplPort*)self)->ports[idx__et].port, data__et);
 487              		.loc 1 78 0
 488 000c FB68     		ldr	r3, [r7, #12]
 489 000e 5A68     		ldr	r2, [r3, #4]
 490 0010 BB68     		ldr	r3, [r7, #8]
 491 0012 1B01     		lsl	r3, r3, #4
 492 0014 D318     		add	r3, r2, r3
 493 0016 1A1C     		mov	r2, r3
 494 0018 7B68     		ldr	r3, [r7, #4]
 495 001a 101C     		mov	r0, r2
 496 001c 191C     		mov	r1, r3
 497 001e FFF7FEFF 		bl	PTimerConjPort_startTimeout
  79:C:/data/workspaces/github/de.protos.demos/src/XMC2GoBlinky/etrice.XMC2GoBlinky.demo/src-gen-mt/room/basic/service/timing\PTimer.c **** }
 498              		.loc 1 79 0
 499 0022 BD46     		mov	sp, r7
 500 0024 04B0     		add	sp, sp, #16
 501              		@ sp needed for prologue
 502 0026 80BD     		pop	{r7, pc}
 503              		.cfi_endproc
 504              	.LFE9:
 506              		.section	.text.PTimerConjPort_kill,"ax",%progbits
 507              		.align	2
 508              		.global	PTimerConjPort_kill
 509              		.code	16
 510              		.thumb_func
 512              	PTimerConjPort_kill:
 513              	.LFB10:
  80:C:/data/workspaces/github/de.protos.demos/src/XMC2GoBlinky/etrice.XMC2GoBlinky.demo/src-gen-mt/room/basic/service/timing\PTimer.c **** 
  81:C:/data/workspaces/github/de.protos.demos/src/XMC2GoBlinky/etrice.XMC2GoBlinky.demo/src-gen-mt/room/basic/service/timing\PTimer.c **** 
  82:C:/data/workspaces/github/de.protos.demos/src/XMC2GoBlinky/etrice.XMC2GoBlinky.demo/src-gen-mt/room/basic/service/timing\PTimer.c **** void PTimerConjPort_kill(const PTimerConjPort* self) {
 514              		.loc 1 82 0
 515              		.cfi_startproc
 516 0000 80B5     		push	{r7, lr}
 517              	.LCFI30:
 518              		.cfi_def_cfa_offset 8
 519              		.cfi_offset 7, -8
 520              		.cfi_offset 14, -4
 521 0002 82B0     		sub	sp, sp, #8
 522              	.LCFI31:
 523              		.cfi_def_cfa_offset 16
 524 0004 00AF     		add	r7, sp, #0
 525              	.LCFI32:
 526              		.cfi_def_cfa_register 7
 527 0006 7860     		str	r0, [r7, #4]
  83:C:/data/workspaces/github/de.protos.demos/src/XMC2GoBlinky/etrice.XMC2GoBlinky.demo/src-gen-mt/room/basic/service/timing\PTimer.c **** 	
  84:C:/data/workspaces/github/de.protos.demos/src/XMC2GoBlinky/etrice.XMC2GoBlinky.demo/src-gen-mt/room/basic/service/timing\PTimer.c **** 				if (status!=0){
 528              		.loc 1 84 0
 529 0008 7B68     		ldr	r3, [r7, #4]
 530 000a 1B68     		ldr	r3, [r3]
 531 000c 1B78     		ldrb	r3, [r3]
 532 000e 002B     		cmp	r3, #0
 533 0010 0AD0     		beq	.L21
  85:C:/data/workspaces/github/de.protos.demos/src/XMC2GoBlinky/etrice.XMC2GoBlinky.demo/src-gen-mt/room/basic/service/timing\PTimer.c **** 					status=0;
 534              		.loc 1 85 0
 535 0012 7B68     		ldr	r3, [r7, #4]
 536 0014 1B68     		ldr	r3, [r3]
 537 0016 0022     		mov	r2, #0
 538 0018 1A70     		strb	r2, [r3]
  86:C:/data/workspaces/github/de.protos.demos/src/XMC2GoBlinky/etrice.XMC2GoBlinky.demo/src-gen-mt/room/basic/service/timing\PTimer.c **** 					etPort_sendMessage(self, PTimer_IN_kill, 0,NULL);
 539              		.loc 1 86 0
 540 001a 7B68     		ldr	r3, [r7, #4]
 541 001c 181C     		mov	r0, r3
 542 001e 0421     		mov	r1, #4
 543 0020 0022     		mov	r2, #0
 544 0022 0023     		mov	r3, #0
 545 0024 FFF7FEFF 		bl	etPort_sendMessage
 546              	.L21:
  87:C:/data/workspaces/github/de.protos.demos/src/XMC2GoBlinky/etrice.XMC2GoBlinky.demo/src-gen-mt/room/basic/service/timing\PTimer.c **** 					}
  88:C:/data/workspaces/github/de.protos.demos/src/XMC2GoBlinky/etrice.XMC2GoBlinky.demo/src-gen-mt/room/basic/service/timing\PTimer.c **** }
 547              		.loc 1 88 0
 548 0028 BD46     		mov	sp, r7
 549 002a 02B0     		add	sp, sp, #8
 550              		@ sp needed for prologue
 551 002c 80BD     		pop	{r7, pc}
 552              		.cfi_endproc
 553              	.LFE10:
 555 002e C046     		.section	.text.PTimerConjReplPort_kill_broadcast,"ax",%progbits
 556              		.align	2
 557              		.global	PTimerConjReplPort_kill_broadcast
 558              		.code	16
 559              		.thumb_func
 561              	PTimerConjReplPort_kill_broadcast:
 562              	.LFB11:
  89:C:/data/workspaces/github/de.protos.demos/src/XMC2GoBlinky/etrice.XMC2GoBlinky.demo/src-gen-mt/room/basic/service/timing\PTimer.c **** 
  90:C:/data/workspaces/github/de.protos.demos/src/XMC2GoBlinky/etrice.XMC2GoBlinky.demo/src-gen-mt/room/basic/service/timing\PTimer.c **** void PTimerConjReplPort_kill_broadcast(const PTimerConjReplPort* self) {
 563              		.loc 1 90 0
 564              		.cfi_startproc
 565 0000 80B5     		push	{r7, lr}
 566              	.LCFI33:
 567              		.cfi_def_cfa_offset 8
 568              		.cfi_offset 7, -8
 569              		.cfi_offset 14, -4
 570 0002 84B0     		sub	sp, sp, #16
 571              	.LCFI34:
 572              		.cfi_def_cfa_offset 24
 573 0004 00AF     		add	r7, sp, #0
 574              	.LCFI35:
 575              		.cfi_def_cfa_register 7
 576 0006 7860     		str	r0, [r7, #4]
  91:C:/data/workspaces/github/de.protos.demos/src/XMC2GoBlinky/etrice.XMC2GoBlinky.demo/src-gen-mt/room/basic/service/timing\PTimer.c **** 	int i;
  92:C:/data/workspaces/github/de.protos.demos/src/XMC2GoBlinky/etrice.XMC2GoBlinky.demo/src-gen-mt/room/basic/service/timing\PTimer.c **** 	for (i=0; i<((etReplPort*)self)->size; ++i) {
 577              		.loc 1 92 0
 578 0008 0023     		mov	r3, #0
 579 000a FB60     		str	r3, [r7, #12]
 580 000c 0AE0     		b	.L24
 581              	.L25:
  93:C:/data/workspaces/github/de.protos.demos/src/XMC2GoBlinky/etrice.XMC2GoBlinky.demo/src-gen-mt/room/basic/service/timing\PTimer.c **** 		PTimerConjPort_kill(&((etReplPort*)self)->ports[i].port);
 582              		.loc 1 93 0 discriminator 2
 583 000e 7B68     		ldr	r3, [r7, #4]
 584 0010 5A68     		ldr	r2, [r3, #4]
 585 0012 FB68     		ldr	r3, [r7, #12]
 586 0014 1B01     		lsl	r3, r3, #4
 587 0016 D318     		add	r3, r2, r3
 588 0018 181C     		mov	r0, r3
 589 001a FFF7FEFF 		bl	PTimerConjPort_kill
  92:C:/data/workspaces/github/de.protos.demos/src/XMC2GoBlinky/etrice.XMC2GoBlinky.demo/src-gen-mt/room/basic/service/timing\PTimer.c **** 	for (i=0; i<((etReplPort*)self)->size; ++i) {
 590              		.loc 1 92 0 discriminator 2
 591 001e FB68     		ldr	r3, [r7, #12]
 592 0020 0133     		add	r3, r3, #1
 593 0022 FB60     		str	r3, [r7, #12]
 594              	.L24:
  92:C:/data/workspaces/github/de.protos.demos/src/XMC2GoBlinky/etrice.XMC2GoBlinky.demo/src-gen-mt/room/basic/service/timing\PTimer.c **** 	for (i=0; i<((etReplPort*)self)->size; ++i) {
 595              		.loc 1 92 0 is_stmt 0 discriminator 1
 596 0024 7B68     		ldr	r3, [r7, #4]
 597 0026 1B88     		ldrh	r3, [r3]
 598 0028 1AB2     		sxth	r2, r3
 599 002a FB68     		ldr	r3, [r7, #12]
 600 002c 9A42     		cmp	r2, r3
 601 002e EEDC     		bgt	.L25
  94:C:/data/workspaces/github/de.protos.demos/src/XMC2GoBlinky/etrice.XMC2GoBlinky.demo/src-gen-mt/room/basic/service/timing\PTimer.c **** 	}					
  95:C:/data/workspaces/github/de.protos.demos/src/XMC2GoBlinky/etrice.XMC2GoBlinky.demo/src-gen-mt/room/basic/service/timing\PTimer.c **** }
 602              		.loc 1 95 0 is_stmt 1
 603 0030 BD46     		mov	sp, r7
 604 0032 04B0     		add	sp, sp, #16
 605              		@ sp needed for prologue
 606 0034 80BD     		pop	{r7, pc}
 607              		.cfi_endproc
 608              	.LFE11:
 610 0036 C046     		.section	.text.PTimerConjReplPort_kill,"ax",%progbits
 611              		.align	2
 612              		.global	PTimerConjReplPort_kill
 613              		.code	16
 614              		.thumb_func
 616              	PTimerConjReplPort_kill:
 617              	.LFB12:
  96:C:/data/workspaces/github/de.protos.demos/src/XMC2GoBlinky/etrice.XMC2GoBlinky.demo/src-gen-mt/room/basic/service/timing\PTimer.c **** 
  97:C:/data/workspaces/github/de.protos.demos/src/XMC2GoBlinky/etrice.XMC2GoBlinky.demo/src-gen-mt/room/basic/service/timing\PTimer.c **** void PTimerConjReplPort_kill(const PTimerConjReplPort* self, int idx__et) {
 618              		.loc 1 97 0
 619              		.cfi_startproc
 620 0000 80B5     		push	{r7, lr}
 621              	.LCFI36:
 622              		.cfi_def_cfa_offset 8
 623              		.cfi_offset 7, -8
 624              		.cfi_offset 14, -4
 625 0002 82B0     		sub	sp, sp, #8
 626              	.LCFI37:
 627              		.cfi_def_cfa_offset 16
 628 0004 00AF     		add	r7, sp, #0
 629              	.LCFI38:
 630              		.cfi_def_cfa_register 7
 631 0006 7860     		str	r0, [r7, #4]
 632 0008 3960     		str	r1, [r7]
  98:C:/data/workspaces/github/de.protos.demos/src/XMC2GoBlinky/etrice.XMC2GoBlinky.demo/src-gen-mt/room/basic/service/timing\PTimer.c **** 	PTimerConjPort_kill(&((etReplPort*)self)->ports[idx__et].port);
 633              		.loc 1 98 0
 634 000a 7B68     		ldr	r3, [r7, #4]
 635 000c 5A68     		ldr	r2, [r3, #4]
 636 000e 3B68     		ldr	r3, [r7]
 637 0010 1B01     		lsl	r3, r3, #4
 638 0012 D318     		add	r3, r2, r3
 639 0014 181C     		mov	r0, r3
 640 0016 FFF7FEFF 		bl	PTimerConjPort_kill
  99:C:/data/workspaces/github/de.protos.demos/src/XMC2GoBlinky/etrice.XMC2GoBlinky.demo/src-gen-mt/room/basic/service/timing\PTimer.c **** }
 641              		.loc 1 99 0
 642 001a BD46     		mov	sp, r7
 643 001c 02B0     		add	sp, sp, #8
 644              		@ sp needed for prologue
 645 001e 80BD     		pop	{r7, pc}
 646              		.cfi_endproc
 647              	.LFE12:
 649              		.section	.text.PTimerConjReplPort_getReplication,"ax",%progbits
 650              		.align	2
 651              		.global	PTimerConjReplPort_getReplication
 652              		.code	16
 653              		.thumb_func
 655              	PTimerConjReplPort_getReplication:
 656              	.LFB13:
 100:C:/data/workspaces/github/de.protos.demos/src/XMC2GoBlinky/etrice.XMC2GoBlinky.demo/src-gen-mt/room/basic/service/timing\PTimer.c **** 
 101:C:/data/workspaces/github/de.protos.demos/src/XMC2GoBlinky/etrice.XMC2GoBlinky.demo/src-gen-mt/room/basic/service/timing\PTimer.c **** /* begin PTimerConjPort specific */
 102:C:/data/workspaces/github/de.protos.demos/src/XMC2GoBlinky/etrice.XMC2GoBlinky.demo/src-gen-mt/room/basic/service/timing\PTimer.c **** 
 103:C:/data/workspaces/github/de.protos.demos/src/XMC2GoBlinky/etrice.XMC2GoBlinky.demo/src-gen-mt/room/basic/service/timing\PTimer.c **** /*--------------------- operations ---------------------*/
 104:C:/data/workspaces/github/de.protos.demos/src/XMC2GoBlinky/etrice.XMC2GoBlinky.demo/src-gen-mt/room/basic/service/timing\PTimer.c **** /* end PTimerConjPort specific */
 105:C:/data/workspaces/github/de.protos.demos/src/XMC2GoBlinky/etrice.XMC2GoBlinky.demo/src-gen-mt/room/basic/service/timing\PTimer.c **** 
 106:C:/data/workspaces/github/de.protos.demos/src/XMC2GoBlinky/etrice.XMC2GoBlinky.demo/src-gen-mt/room/basic/service/timing\PTimer.c **** etInt32 PTimerConjReplPort_getReplication(const PTimerConjReplPort* self) {
 657              		.loc 1 106 0
 658              		.cfi_startproc
 659 0000 80B5     		push	{r7, lr}
 660              	.LCFI39:
 661              		.cfi_def_cfa_offset 8
 662              		.cfi_offset 7, -8
 663              		.cfi_offset 14, -4
 664 0002 82B0     		sub	sp, sp, #8
 665              	.LCFI40:
 666              		.cfi_def_cfa_offset 16
 667 0004 00AF     		add	r7, sp, #0
 668              	.LCFI41:
 669              		.cfi_def_cfa_register 7
 670 0006 7860     		str	r0, [r7, #4]
 107:C:/data/workspaces/github/de.protos.demos/src/XMC2GoBlinky/etrice.XMC2GoBlinky.demo/src-gen-mt/room/basic/service/timing\PTimer.c **** 	return ((etReplPort*)self)->size;
 671              		.loc 1 107 0
 672 0008 7B68     		ldr	r3, [r7, #4]
 673 000a 1B88     		ldrh	r3, [r3]
 674 000c 1BB2     		sxth	r3, r3
 108:C:/data/workspaces/github/de.protos.demos/src/XMC2GoBlinky/etrice.XMC2GoBlinky.demo/src-gen-mt/room/basic/service/timing\PTimer.c **** }
 675              		.loc 1 108 0
 676 000e 181C     		mov	r0, r3
 677 0010 BD46     		mov	sp, r7
 678 0012 02B0     		add	sp, sp, #8
 679              		@ sp needed for prologue
 680 0014 80BD     		pop	{r7, pc}
 681              		.cfi_endproc
 682              	.LFE13:
 684 0016 C046     		.section	.text.PTimerConjPort_timeout_receiveHandler,"ax",%progbits
 685              		.align	2
 686              		.global	PTimerConjPort_timeout_receiveHandler
 687              		.code	16
 688              		.thumb_func
 690              	PTimerConjPort_timeout_receiveHandler:
 691              	.LFB14:
 109:C:/data/workspaces/github/de.protos.demos/src/XMC2GoBlinky/etrice.XMC2GoBlinky.demo/src-gen-mt/room/basic/service/timing\PTimer.c **** 
 110:C:/data/workspaces/github/de.protos.demos/src/XMC2GoBlinky/etrice.XMC2GoBlinky.demo/src-gen-mt/room/basic/service/timing\PTimer.c **** /* receiver handlers */
 111:C:/data/workspaces/github/de.protos.demos/src/XMC2GoBlinky/etrice.XMC2GoBlinky.demo/src-gen-mt/room/basic/service/timing\PTimer.c **** void PTimerConjPort_timeout_receiveHandler(PTimerConjPort* self, const etMessage* msg, void * actor
 692              		.loc 1 111 0
 693              		.cfi_startproc
 694 0000 80B5     		push	{r7, lr}
 695              	.LCFI42:
 696              		.cfi_def_cfa_offset 8
 697              		.cfi_offset 7, -8
 698              		.cfi_offset 14, -4
 699 0002 84B0     		sub	sp, sp, #16
 700              	.LCFI43:
 701              		.cfi_def_cfa_offset 24
 702 0004 00AF     		add	r7, sp, #0
 703              	.LCFI44:
 704              		.cfi_def_cfa_register 7
 705 0006 F860     		str	r0, [r7, #12]
 706 0008 B960     		str	r1, [r7, #8]
 707 000a 7A60     		str	r2, [r7, #4]
 708 000c 3B60     		str	r3, [r7]
 112:C:/data/workspaces/github/de.protos.demos/src/XMC2GoBlinky/etrice.XMC2GoBlinky.demo/src-gen-mt/room/basic/service/timing\PTimer.c **** 	/* TODO: clear active bit in case of single shot timer */
 113:C:/data/workspaces/github/de.protos.demos/src/XMC2GoBlinky/etrice.XMC2GoBlinky.demo/src-gen-mt/room/basic/service/timing\PTimer.c **** 				if (status!=0){
 709              		.loc 1 113 0
 710 000e FB68     		ldr	r3, [r7, #12]
 711 0010 1B68     		ldr	r3, [r3]
 712 0012 1B78     		ldrb	r3, [r3]
 713 0014 002B     		cmp	r3, #0
 714 0016 0DD0     		beq	.L29
 114:C:/data/workspaces/github/de.protos.demos/src/XMC2GoBlinky/etrice.XMC2GoBlinky.demo/src-gen-mt/room/basic/service/timing\PTimer.c **** 					if (status==ET_TIMER_RUNNING){
 715              		.loc 1 114 0
 716 0018 FB68     		ldr	r3, [r7, #12]
 717 001a 1B68     		ldr	r3, [r3]
 718 001c 1B78     		ldrb	r3, [r3]
 719 001e 012B     		cmp	r3, #1
 720 0020 03D1     		bne	.L31
 115:C:/data/workspaces/github/de.protos.demos/src/XMC2GoBlinky/etrice.XMC2GoBlinky.demo/src-gen-mt/room/basic/service/timing\PTimer.c **** 						/* single shot timer */
 116:C:/data/workspaces/github/de.protos.demos/src/XMC2GoBlinky/etrice.XMC2GoBlinky.demo/src-gen-mt/room/basic/service/timing\PTimer.c **** 						status=0;
 721              		.loc 1 116 0
 722 0022 FB68     		ldr	r3, [r7, #12]
 723 0024 1B68     		ldr	r3, [r3]
 724 0026 0022     		mov	r2, #0
 725 0028 1A70     		strb	r2, [r3]
 726              	.L31:
 117:C:/data/workspaces/github/de.protos.demos/src/XMC2GoBlinky/etrice.XMC2GoBlinky.demo/src-gen-mt/room/basic/service/timing\PTimer.c **** 						}
 118:C:/data/workspaces/github/de.protos.demos/src/XMC2GoBlinky/etrice.XMC2GoBlinky.demo/src-gen-mt/room/basic/service/timing\PTimer.c **** 					/* msg to fsm */
 119:C:/data/workspaces/github/de.protos.demos/src/XMC2GoBlinky/etrice.XMC2GoBlinky.demo/src-gen-mt/room/basic/service/timing\PTimer.c **** 					(*receiveMessageFunc)(actor, self, msg);
 727              		.loc 1 119 0
 728 002a 7868     		ldr	r0, [r7, #4]
 729 002c F968     		ldr	r1, [r7, #12]
 730 002e BA68     		ldr	r2, [r7, #8]
 731 0030 3B68     		ldr	r3, [r7]
 732 0032 9847     		blx	r3
 733              	.L29:
 120:C:/data/workspaces/github/de.protos.demos/src/XMC2GoBlinky/etrice.XMC2GoBlinky.demo/src-gen-mt/room/basic/service/timing\PTimer.c **** 					}
 121:C:/data/workspaces/github/de.protos.demos/src/XMC2GoBlinky/etrice.XMC2GoBlinky.demo/src-gen-mt/room/basic/service/timing\PTimer.c **** 	/* hand over the message to the actor:      */
 122:C:/data/workspaces/github/de.protos.demos/src/XMC2GoBlinky/etrice.XMC2GoBlinky.demo/src-gen-mt/room/basic/service/timing\PTimer.c **** 	/* (*receiveMessageFunc)(actor, self, msg); */
 123:C:/data/workspaces/github/de.protos.demos/src/XMC2GoBlinky/etrice.XMC2GoBlinky.demo/src-gen-mt/room/basic/service/timing\PTimer.c **** }
 734              		.loc 1 123 0
 735 0034 BD46     		mov	sp, r7
 736 0036 04B0     		add	sp, sp, #16
 737              		@ sp needed for prologue
 738 0038 80BD     		pop	{r7, pc}
 739              		.cfi_endproc
 740              	.LFE14:
 742 003a C046     		.text
 743              	.Letext0:
 744              		.file 2 "C:\\data\\workspaces\\github\\de.protos.demos\\src\\XMC2GoBlinky\\etrice.runtime.c.FreeRT
 745              		.file 3 "C:\\data\\workspaces\\github\\de.protos.demos\\src\\XMC2GoBlinky\\etrice.runtime.c.FreeRT
 746              		.file 4 "C:\\data\\workspaces\\github\\de.protos.demos\\src\\XMC2GoBlinky\\etrice.runtime.c.FreeRT
 747              		.file 5 "C:\\data\\workspaces\\github\\de.protos.demos\\src\\XMC2GoBlinky\\etrice.runtime.c.FreeRT
 748              		.file 6 "C:\\data\\workspaces\\github\\de.protos.demos\\src\\XMC2GoBlinky\\etrice.runtime.c.FreeRT
 749              		.file 7 "C:\\data\\workspaces\\github\\de.protos.demos\\src\\XMC2GoBlinky\\etrice.runtime.c.FreeRT
 750              		.file 8 "C:\\data\\workspaces\\github\\de.protos.demos\\src\\XMC2GoBlinky\\etrice.runtime.c.FreeRT
 751              		.file 9 "C:\\data\\workspaces\\github\\de.protos.demos\\src\\XMC2GoBlinky\\etrice.runtime.c.FreeRT
 752              		.file 10 "C:\\data\\workspaces\\github\\de.protos.demos\\src\\XMC2GoBlinky\\etrice.runtime.c.FreeR
 753              		.file 11 "C:\\data\\workspaces\\github\\de.protos.demos\\src\\XMC2GoBlinky\\etrice.runtime.c.FreeR
 754              		.file 12 "C:\\data\\workspaces\\github\\de.protos.demos\\src\\XMC2GoBlinky\\etrice.runtime.c.FreeR
 755              		.file 13 "C:\\data\\workspaces\\github\\de.protos.demos\\src\\XMC2GoBlinky\\etrice.runtime.c.FreeR
 756              		.file 14 "C:\\data\\workspaces\\github\\de.protos.demos\\src\\XMC2GoBlinky\\etrice.runtime.c.FreeR
 757              		.file 15 "C:\\data\\workspaces\\github\\de.protos.demos\\src\\XMC2GoBlinky\\etrice.runtime.c.FreeR
 758              		.file 16 "C:\\data\\workspaces\\github\\de.protos.demos\\src\\XMC2GoBlinky\\etrice.runtime.c.FreeR
 759              		.file 17 "C:/data/workspaces/github/de.protos.demos/src/XMC2GoBlinky/etrice.XMC2GoBlinky.demo/src-