   1              		.cpu cortex-m0
   2              		.fpu softvfp
   3              		.eabi_attribute 20, 1
   4              		.eabi_attribute 21, 1
   5              		.eabi_attribute 23, 3
   6              		.eabi_attribute 24, 1
   7              		.eabi_attribute 25, 1
   8              		.eabi_attribute 26, 1
   9              		.eabi_attribute 30, 6
  10              		.eabi_attribute 34, 0
  11              		.eabi_attribute 18, 4
  12              		.code	16
  13              		.file	"PIO004.c"
  14              		.text
  15              	.Ltext0:
  16              		.cfi_sections	.debug_frame
  17              		.section	.text.PIO004ReplPort_getReplication,"ax",%progbits
  18              		.align	2
  19              		.global	PIO004ReplPort_getReplication
  20              		.code	16
  21              		.thumb_func
  23              	PIO004ReplPort_getReplication:
  24              	.LFB33:
  25              		.file 1 "C:/data/workspaces/github/de.protos.demos/src/XMC2GoBlinky/etrice.XMC2GoBlinky.demo/src-g
   1:C:/data/workspaces/github/de.protos.demos/src/XMC2GoBlinky/etrice.XMC2GoBlinky.demo/src-gen-st/DaveInterface\PIO004.c **** /**
   2:C:/data/workspaces/github/de.protos.demos/src/XMC2GoBlinky/etrice.XMC2GoBlinky.demo/src-gen-st/DaveInterface\PIO004.c ****  * @author generated by eTrice
   3:C:/data/workspaces/github/de.protos.demos/src/XMC2GoBlinky/etrice.XMC2GoBlinky.demo/src-gen-st/DaveInterface\PIO004.c ****  *
   4:C:/data/workspaces/github/de.protos.demos/src/XMC2GoBlinky/etrice.XMC2GoBlinky.demo/src-gen-st/DaveInterface\PIO004.c ****  * Source File of ProtocolClass PIO004
   5:C:/data/workspaces/github/de.protos.demos/src/XMC2GoBlinky/etrice.XMC2GoBlinky.demo/src-gen-st/DaveInterface\PIO004.c ****  * 
   6:C:/data/workspaces/github/de.protos.demos/src/XMC2GoBlinky/etrice.XMC2GoBlinky.demo/src-gen-st/DaveInterface\PIO004.c ****  */
   7:C:/data/workspaces/github/de.protos.demos/src/XMC2GoBlinky/etrice.XMC2GoBlinky.demo/src-gen-st/DaveInterface\PIO004.c **** 
   8:C:/data/workspaces/github/de.protos.demos/src/XMC2GoBlinky/etrice.XMC2GoBlinky.demo/src-gen-st/DaveInterface\PIO004.c **** #include "PIO004.h"
   9:C:/data/workspaces/github/de.protos.demos/src/XMC2GoBlinky/etrice.XMC2GoBlinky.demo/src-gen-st/DaveInterface\PIO004.c **** #include "debugging/etMSCLogger.h"
  10:C:/data/workspaces/github/de.protos.demos/src/XMC2GoBlinky/etrice.XMC2GoBlinky.demo/src-gen-st/DaveInterface\PIO004.c **** #include "PIO004_Utils.h"
  11:C:/data/workspaces/github/de.protos.demos/src/XMC2GoBlinky/etrice.XMC2GoBlinky.demo/src-gen-st/DaveInterface\PIO004.c **** 
  12:C:/data/workspaces/github/de.protos.demos/src/XMC2GoBlinky/etrice.XMC2GoBlinky.demo/src-gen-st/DaveInterface\PIO004.c **** 
  13:C:/data/workspaces/github/de.protos.demos/src/XMC2GoBlinky/etrice.XMC2GoBlinky.demo/src-gen-st/DaveInterface\PIO004.c **** /*--------------------- port methods */
  14:C:/data/workspaces/github/de.protos.demos/src/XMC2GoBlinky/etrice.XMC2GoBlinky.demo/src-gen-st/DaveInterface\PIO004.c **** etInt32 PIO004ReplPort_getReplication(const PIO004ReplPort* self) {
  26              		.loc 1 14 0
  27              		.cfi_startproc
  28 0000 80B5     		push	{r7, lr}
  29              	.LCFI0:
  30              		.cfi_def_cfa_offset 8
  31              		.cfi_offset 7, -8
  32              		.cfi_offset 14, -4
  33 0002 82B0     		sub	sp, sp, #8
  34              	.LCFI1:
  35              		.cfi_def_cfa_offset 16
  36 0004 00AF     		add	r7, sp, #0
  37              	.LCFI2:
  38              		.cfi_def_cfa_register 7
  39 0006 7860     		str	r0, [r7, #4]
  15:C:/data/workspaces/github/de.protos.demos/src/XMC2GoBlinky/etrice.XMC2GoBlinky.demo/src-gen-st/DaveInterface\PIO004.c **** 	return ((etReplPort*)self)->size;
  40              		.loc 1 15 0
  41 0008 7B68     		ldr	r3, [r7, #4]
  42 000a 1B88     		ldrh	r3, [r3]
  43 000c 1BB2     		sxth	r3, r3
  16:C:/data/workspaces/github/de.protos.demos/src/XMC2GoBlinky/etrice.XMC2GoBlinky.demo/src-gen-st/DaveInterface\PIO004.c **** }
  44              		.loc 1 16 0
  45 000e 181C     		mov	r0, r3
  46 0010 BD46     		mov	sp, r7
  47 0012 02B0     		add	sp, sp, #8
  48              		@ sp needed for prologue
  49 0014 80BD     		pop	{r7, pc}
  50              		.cfi_endproc
  51              	.LFE33:
  53 0016 C046     		.section	.text.PIO004ConjPort_setInstance,"ax",%progbits
  54              		.align	2
  55              		.global	PIO004ConjPort_setInstance
  56              		.code	16
  57              		.thumb_func
  59              	PIO004ConjPort_setInstance:
  60              	.LFB34:
  17:C:/data/workspaces/github/de.protos.demos/src/XMC2GoBlinky/etrice.XMC2GoBlinky.demo/src-gen-st/DaveInterface\PIO004.c **** 
  18:C:/data/workspaces/github/de.protos.demos/src/XMC2GoBlinky/etrice.XMC2GoBlinky.demo/src-gen-st/DaveInterface\PIO004.c **** 
  19:C:/data/workspaces/github/de.protos.demos/src/XMC2GoBlinky/etrice.XMC2GoBlinky.demo/src-gen-st/DaveInterface\PIO004.c **** /* begin PIO004ConjPort specific */
  20:C:/data/workspaces/github/de.protos.demos/src/XMC2GoBlinky/etrice.XMC2GoBlinky.demo/src-gen-st/DaveInterface\PIO004.c **** 
  21:C:/data/workspaces/github/de.protos.demos/src/XMC2GoBlinky/etrice.XMC2GoBlinky.demo/src-gen-st/DaveInterface\PIO004.c **** /*--------------------- operations ---------------------*/
  22:C:/data/workspaces/github/de.protos.demos/src/XMC2GoBlinky/etrice.XMC2GoBlinky.demo/src-gen-st/DaveInterface\PIO004.c **** void PIO004ConjPort_setInstance(PIO004ConjPort* self, uint32 data) {
  61              		.loc 1 22 0
  62              		.cfi_startproc
  63 0000 80B5     		push	{r7, lr}
  64              	.LCFI3:
  65              		.cfi_def_cfa_offset 8
  66              		.cfi_offset 7, -8
  67              		.cfi_offset 14, -4
  68 0002 82B0     		sub	sp, sp, #8
  69              	.LCFI4:
  70              		.cfi_def_cfa_offset 16
  71 0004 00AF     		add	r7, sp, #0
  72              	.LCFI5:
  73              		.cfi_def_cfa_register 7
  74 0006 7860     		str	r0, [r7, #4]
  75 0008 3960     		str	r1, [r7]
  23:C:/data/workspaces/github/de.protos.demos/src/XMC2GoBlinky/etrice.XMC2GoBlinky.demo/src-gen-st/DaveInterface\PIO004.c **** 	switch(data){
  76              		.loc 1 23 0
  77 000a 3B68     		ldr	r3, [r7]
  78 000c 002B     		cmp	r3, #0
  79 000e 02D0     		beq	.L5
  80 0010 012B     		cmp	r3, #1
  81 0012 06D0     		beq	.L6
  82 0014 0BE0     		b	.L8
  83              	.L5:
  24:C:/data/workspaces/github/de.protos.demos/src/XMC2GoBlinky/etrice.XMC2GoBlinky.demo/src-gen-st/DaveInterface\PIO004.c **** 	    case 0: Handle=IO004_Handle0;
  84              		.loc 1 24 0
  85 0016 7B68     		ldr	r3, [r7, #4]
  86 0018 1B68     		ldr	r3, [r3]
  87 001a 074A     		ldr	r2, .L9
  88 001c 03CA     		ldmia	r2!, {r0, r1}
  89 001e 03C3     		stmia	r3!, {r0, r1}
  25:C:/data/workspaces/github/de.protos.demos/src/XMC2GoBlinky/etrice.XMC2GoBlinky.demo/src-gen-st/DaveInterface\PIO004.c **** 			break;
  90              		.loc 1 25 0
  91 0020 06E0     		b	.L3
  92              	.L6:
  26:C:/data/workspaces/github/de.protos.demos/src/XMC2GoBlinky/etrice.XMC2GoBlinky.demo/src-gen-st/DaveInterface\PIO004.c **** 	    case 1: Handle=IO004_Handle1;
  93              		.loc 1 26 0
  94 0022 7B68     		ldr	r3, [r7, #4]
  95 0024 1B68     		ldr	r3, [r3]
  96 0026 054A     		ldr	r2, .L9+4
  97 0028 03CA     		ldmia	r2!, {r0, r1}
  98 002a 03C3     		stmia	r3!, {r0, r1}
  27:C:/data/workspaces/github/de.protos.demos/src/XMC2GoBlinky/etrice.XMC2GoBlinky.demo/src-gen-st/DaveInterface\PIO004.c **** 			break;
  99              		.loc 1 27 0
 100 002c 00E0     		b	.L3
 101              	.L8:
  28:C:/data/workspaces/github/de.protos.demos/src/XMC2GoBlinky/etrice.XMC2GoBlinky.demo/src-gen-st/DaveInterface\PIO004.c **** 	    default: break;
 102              		.loc 1 28 0
 103 002e C046     		mov	r8, r8
 104              	.L3:
  29:C:/data/workspaces/github/de.protos.demos/src/XMC2GoBlinky/etrice.XMC2GoBlinky.demo/src-gen-st/DaveInterface\PIO004.c **** 	    }
  30:C:/data/workspaces/github/de.protos.demos/src/XMC2GoBlinky/etrice.XMC2GoBlinky.demo/src-gen-st/DaveInterface\PIO004.c **** }
 105              		.loc 1 30 0
 106 0030 BD46     		mov	sp, r7
 107 0032 02B0     		add	sp, sp, #8
 108              		@ sp needed for prologue
 109 0034 80BD     		pop	{r7, pc}
 110              	.L10:
 111 0036 C046     		.align	2
 112              	.L9:
 113 0038 00000000 		.word	IO004_Handle0
 114 003c 00000000 		.word	IO004_Handle1
 115              		.cfi_endproc
 116              	.LFE34:
 118              		.section	.text.PIO004ConjPort_readPin,"ax",%progbits
 119              		.align	2
 120              		.global	PIO004ConjPort_readPin
 121              		.code	16
 122              		.thumb_func
 124              	PIO004ConjPort_readPin:
 125              	.LFB35:
  31:C:/data/workspaces/github/de.protos.demos/src/XMC2GoBlinky/etrice.XMC2GoBlinky.demo/src-gen-st/DaveInterface\PIO004.c **** uint32 PIO004ConjPort_readPin(PIO004ConjPort* self) {
 126              		.loc 1 31 0
 127              		.cfi_startproc
 128 0000 80B5     		push	{r7, lr}
 129              	.LCFI6:
 130              		.cfi_def_cfa_offset 8
 131              		.cfi_offset 7, -8
 132              		.cfi_offset 14, -4
 133 0002 82B0     		sub	sp, sp, #8
 134              	.LCFI7:
 135              		.cfi_def_cfa_offset 16
 136 0004 00AF     		add	r7, sp, #0
 137              	.LCFI8:
 138              		.cfi_def_cfa_register 7
 139 0006 7860     		str	r0, [r7, #4]
  32:C:/data/workspaces/github/de.protos.demos/src/XMC2GoBlinky/etrice.XMC2GoBlinky.demo/src-gen-st/DaveInterface\PIO004.c **** 	return IO004_ReadPin(Handle);
 140              		.loc 1 32 0
 141 0008 7B68     		ldr	r3, [r7, #4]
 142 000a 1B68     		ldr	r3, [r3]
 143 000c 5B68     		ldr	r3, [r3, #4]
 144 000e 5A6A     		ldr	r2, [r3, #36]
 145 0010 7B68     		ldr	r3, [r7, #4]
 146 0012 1B68     		ldr	r3, [r3]
 147 0014 5B78     		ldrb	r3, [r3, #1]
 148 0016 DA40     		lsr	r2, r2, r3
 149 0018 0123     		mov	r3, #1
 150 001a 1340     		and	r3, r2
  33:C:/data/workspaces/github/de.protos.demos/src/XMC2GoBlinky/etrice.XMC2GoBlinky.demo/src-gen-st/DaveInterface\PIO004.c **** }
 151              		.loc 1 33 0
 152 001c 181C     		mov	r0, r3
 153 001e BD46     		mov	sp, r7
 154 0020 02B0     		add	sp, sp, #8
 155              		@ sp needed for prologue
 156 0022 80BD     		pop	{r7, pc}
 157              		.cfi_endproc
 158              	.LFE35:
 160              		.section	.text.PIO004ConjPort_setPin,"ax",%progbits
 161              		.align	2
 162              		.global	PIO004ConjPort_setPin
 163              		.code	16
 164              		.thumb_func
 166              	PIO004ConjPort_setPin:
 167              	.LFB36:
  34:C:/data/workspaces/github/de.protos.demos/src/XMC2GoBlinky/etrice.XMC2GoBlinky.demo/src-gen-st/DaveInterface\PIO004.c **** void PIO004ConjPort_setPin(PIO004ConjPort* self) {
 168              		.loc 1 34 0
 169              		.cfi_startproc
 170 0000 80B5     		push	{r7, lr}
 171              	.LCFI9:
 172              		.cfi_def_cfa_offset 8
 173              		.cfi_offset 7, -8
 174              		.cfi_offset 14, -4
 175 0002 82B0     		sub	sp, sp, #8
 176              	.LCFI10:
 177              		.cfi_def_cfa_offset 16
 178 0004 00AF     		add	r7, sp, #0
 179              	.LCFI11:
 180              		.cfi_def_cfa_register 7
 181 0006 7860     		str	r0, [r7, #4]
  35:C:/data/workspaces/github/de.protos.demos/src/XMC2GoBlinky/etrice.XMC2GoBlinky.demo/src-gen-st/DaveInterface\PIO004.c **** 	IO004_SetPin(Handle);
 182              		.loc 1 35 0
 183 0008 7B68     		ldr	r3, [r7, #4]
 184 000a 1B68     		ldr	r3, [r3]
 185 000c 5B68     		ldr	r3, [r3, #4]
 186 000e 7A68     		ldr	r2, [r7, #4]
 187 0010 1268     		ldr	r2, [r2]
 188 0012 5278     		ldrb	r2, [r2, #1]
 189 0014 0121     		mov	r1, #1
 190 0016 081C     		mov	r0, r1
 191 0018 9040     		lsl	r0, r0, r2
 192 001a 021C     		mov	r2, r0
 193 001c 5A60     		str	r2, [r3, #4]
  36:C:/data/workspaces/github/de.protos.demos/src/XMC2GoBlinky/etrice.XMC2GoBlinky.demo/src-gen-st/DaveInterface\PIO004.c **** }
 194              		.loc 1 36 0
 195 001e BD46     		mov	sp, r7
 196 0020 02B0     		add	sp, sp, #8
 197              		@ sp needed for prologue
 198 0022 80BD     		pop	{r7, pc}
 199              		.cfi_endproc
 200              	.LFE36:
 202              		.section	.text.PIO004ConjPort_setOutputValue,"ax",%progbits
 203              		.align	2
 204              		.global	PIO004ConjPort_setOutputValue
 205              		.code	16
 206              		.thumb_func
 208              	PIO004ConjPort_setOutputValue:
 209              	.LFB37:
  37:C:/data/workspaces/github/de.protos.demos/src/XMC2GoBlinky/etrice.XMC2GoBlinky.demo/src-gen-st/DaveInterface\PIO004.c **** void PIO004ConjPort_setOutputValue(PIO004ConjPort* self, boolean Value) {
 210              		.loc 1 37 0
 211              		.cfi_startproc
 212 0000 80B5     		push	{r7, lr}
 213              	.LCFI12:
 214              		.cfi_def_cfa_offset 8
 215              		.cfi_offset 7, -8
 216              		.cfi_offset 14, -4
 217 0002 82B0     		sub	sp, sp, #8
 218              	.LCFI13:
 219              		.cfi_def_cfa_offset 16
 220 0004 00AF     		add	r7, sp, #0
 221              	.LCFI14:
 222              		.cfi_def_cfa_register 7
 223 0006 7860     		str	r0, [r7, #4]
 224 0008 0A1C     		mov	r2, r1
 225 000a FB1C     		add	r3, r7, #3
 226 000c 1A70     		strb	r2, [r3]
  38:C:/data/workspaces/github/de.protos.demos/src/XMC2GoBlinky/etrice.XMC2GoBlinky.demo/src-gen-st/DaveInterface\PIO004.c **** 	IO004_SetOutputValue(Handle,Value);
 227              		.loc 1 38 0
 228 000e 7B68     		ldr	r3, [r7, #4]
 229 0010 1B68     		ldr	r3, [r3]
 230 0012 5B68     		ldr	r3, [r3, #4]
 231 0014 FA1C     		add	r2, r7, #3
 232 0016 1278     		ldrb	r2, [r2]
 233 0018 002A     		cmp	r2, #0
 234 001a 07D0     		beq	.L15
 235              		.loc 1 38 0 is_stmt 0 discriminator 1
 236 001c 7A68     		ldr	r2, [r7, #4]
 237 001e 1268     		ldr	r2, [r2]
 238 0020 5278     		ldrb	r2, [r2, #1]
 239 0022 0121     		mov	r1, #1
 240 0024 081C     		mov	r0, r1
 241 0026 9040     		lsl	r0, r0, r2
 242 0028 021C     		mov	r2, r0
 243 002a 07E0     		b	.L16
 244              	.L15:
 245              		.loc 1 38 0 discriminator 2
 246 002c 7A68     		ldr	r2, [r7, #4]
 247 002e 1268     		ldr	r2, [r2]
 248 0030 5278     		ldrb	r2, [r2, #1]
 249 0032 8021     		mov	r1, #128
 250 0034 4902     		lsl	r1, r1, #9
 251 0036 081C     		mov	r0, r1
 252 0038 9040     		lsl	r0, r0, r2
 253 003a 021C     		mov	r2, r0
 254              	.L16:
 255              		.loc 1 38 0 discriminator 3
 256 003c 5A60     		str	r2, [r3, #4]
  39:C:/data/workspaces/github/de.protos.demos/src/XMC2GoBlinky/etrice.XMC2GoBlinky.demo/src-gen-st/DaveInterface\PIO004.c **** }
 257              		.loc 1 39 0 is_stmt 1 discriminator 3
 258 003e BD46     		mov	sp, r7
 259 0040 02B0     		add	sp, sp, #8
 260              		@ sp needed for prologue
 261 0042 80BD     		pop	{r7, pc}
 262              		.cfi_endproc
 263              	.LFE37:
 265              		.section	.text.PIO004ConjPort_resetPin,"ax",%progbits
 266              		.align	2
 267              		.global	PIO004ConjPort_resetPin
 268              		.code	16
 269              		.thumb_func
 271              	PIO004ConjPort_resetPin:
 272              	.LFB38:
  40:C:/data/workspaces/github/de.protos.demos/src/XMC2GoBlinky/etrice.XMC2GoBlinky.demo/src-gen-st/DaveInterface\PIO004.c **** void PIO004ConjPort_resetPin(PIO004ConjPort* self) {
 273              		.loc 1 40 0
 274              		.cfi_startproc
 275 0000 80B5     		push	{r7, lr}
 276              	.LCFI15:
 277              		.cfi_def_cfa_offset 8
 278              		.cfi_offset 7, -8
 279              		.cfi_offset 14, -4
 280 0002 82B0     		sub	sp, sp, #8
 281              	.LCFI16:
 282              		.cfi_def_cfa_offset 16
 283 0004 00AF     		add	r7, sp, #0
 284              	.LCFI17:
 285              		.cfi_def_cfa_register 7
 286 0006 7860     		str	r0, [r7, #4]
  41:C:/data/workspaces/github/de.protos.demos/src/XMC2GoBlinky/etrice.XMC2GoBlinky.demo/src-gen-st/DaveInterface\PIO004.c **** 	IO004_ResetPin(Handle);
 287              		.loc 1 41 0
 288 0008 7B68     		ldr	r3, [r7, #4]
 289 000a 1B68     		ldr	r3, [r3]
 290 000c 5B68     		ldr	r3, [r3, #4]
 291 000e 7A68     		ldr	r2, [r7, #4]
 292 0010 1268     		ldr	r2, [r2]
 293 0012 5278     		ldrb	r2, [r2, #1]
 294 0014 8021     		mov	r1, #128
 295 0016 4902     		lsl	r1, r1, #9
 296 0018 081C     		mov	r0, r1
 297 001a 9040     		lsl	r0, r0, r2
 298 001c 021C     		mov	r2, r0
 299 001e 5A60     		str	r2, [r3, #4]
  42:C:/data/workspaces/github/de.protos.demos/src/XMC2GoBlinky/etrice.XMC2GoBlinky.demo/src-gen-st/DaveInterface\PIO004.c **** }
 300              		.loc 1 42 0
 301 0020 BD46     		mov	sp, r7
 302 0022 02B0     		add	sp, sp, #8
 303              		@ sp needed for prologue
 304 0024 80BD     		pop	{r7, pc}
 305              		.cfi_endproc
 306              	.LFE38:
 308 0026 C046     		.section	.text.PIO004ConjPort_togglePin,"ax",%progbits
 309              		.align	2
 310              		.global	PIO004ConjPort_togglePin
 311              		.code	16
 312              		.thumb_func
 314              	PIO004ConjPort_togglePin:
 315              	.LFB39:
  43:C:/data/workspaces/github/de.protos.demos/src/XMC2GoBlinky/etrice.XMC2GoBlinky.demo/src-gen-st/DaveInterface\PIO004.c **** void PIO004ConjPort_togglePin(PIO004ConjPort* self) {
 316              		.loc 1 43 0
 317              		.cfi_startproc
 318 0000 80B5     		push	{r7, lr}
 319              	.LCFI18:
 320              		.cfi_def_cfa_offset 8
 321              		.cfi_offset 7, -8
 322              		.cfi_offset 14, -4
 323 0002 82B0     		sub	sp, sp, #8
 324              	.LCFI19:
 325              		.cfi_def_cfa_offset 16
 326 0004 00AF     		add	r7, sp, #0
 327              	.LCFI20:
 328              		.cfi_def_cfa_register 7
 329 0006 7860     		str	r0, [r7, #4]
  44:C:/data/workspaces/github/de.protos.demos/src/XMC2GoBlinky/etrice.XMC2GoBlinky.demo/src-gen-st/DaveInterface\PIO004.c **** 	IO004_TogglePin(Handle);
 330              		.loc 1 44 0
 331 0008 7B68     		ldr	r3, [r7, #4]
 332 000a 1B68     		ldr	r3, [r3]
 333 000c 5B68     		ldr	r3, [r3, #4]
 334 000e 7A68     		ldr	r2, [r7, #4]
 335 0010 1268     		ldr	r2, [r2]
 336 0012 5278     		ldrb	r2, [r2, #1]
 337 0014 0349     		ldr	r1, .L19
 338 0016 081C     		mov	r0, r1
 339 0018 9040     		lsl	r0, r0, r2
 340 001a 021C     		mov	r2, r0
 341 001c 5A60     		str	r2, [r3, #4]
  45:C:/data/workspaces/github/de.protos.demos/src/XMC2GoBlinky/etrice.XMC2GoBlinky.demo/src-gen-st/DaveInterface\PIO004.c **** }
 342              		.loc 1 45 0
 343 001e BD46     		mov	sp, r7
 344 0020 02B0     		add	sp, sp, #8
 345              		@ sp needed for prologue
 346 0022 80BD     		pop	{r7, pc}
 347              	.L20:
 348              		.align	2
 349              	.L19:
 350 0024 01000100 		.word	65537
 351              		.cfi_endproc
 352              	.LFE39:
 354              		.section	.text.PIO004ConjPort_disableOutputBuffer,"ax",%progbits
 355              		.align	2
 356              		.global	PIO004ConjPort_disableOutputBuffer
 357              		.code	16
 358              		.thumb_func
 360              	PIO004ConjPort_disableOutputBuffer:
 361              	.LFB40:
  46:C:/data/workspaces/github/de.protos.demos/src/XMC2GoBlinky/etrice.XMC2GoBlinky.demo/src-gen-st/DaveInterface\PIO004.c **** void PIO004ConjPort_disableOutputBuffer(PIO004ConjPort* self, IO004_InputModeType mode) {
 362              		.loc 1 46 0
 363              		.cfi_startproc
 364 0000 80B5     		push	{r7, lr}
 365              	.LCFI21:
 366              		.cfi_def_cfa_offset 8
 367              		.cfi_offset 7, -8
 368              		.cfi_offset 14, -4
 369 0002 82B0     		sub	sp, sp, #8
 370              	.LCFI22:
 371              		.cfi_def_cfa_offset 16
 372 0004 00AF     		add	r7, sp, #0
 373              	.LCFI23:
 374              		.cfi_def_cfa_register 7
 375 0006 7860     		str	r0, [r7, #4]
 376 0008 0A1C     		mov	r2, r1
 377 000a FB1C     		add	r3, r7, #3
 378 000c 1A70     		strb	r2, [r3]
  47:C:/data/workspaces/github/de.protos.demos/src/XMC2GoBlinky/etrice.XMC2GoBlinky.demo/src-gen-st/DaveInterface\PIO004.c **** 	IO004_DisableOutputDriver(&Handle,mode);
 379              		.loc 1 47 0
 380 000e 7B68     		ldr	r3, [r7, #4]
 381 0010 1B68     		ldr	r3, [r3]
 382 0012 1A1C     		mov	r2, r3
 383 0014 FB1C     		add	r3, r7, #3
 384 0016 1B78     		ldrb	r3, [r3]
 385 0018 101C     		mov	r0, r2
 386 001a 191C     		mov	r1, r3
 387 001c FFF7FEFF 		bl	IO004_DisableOutputDriver
  48:C:/data/workspaces/github/de.protos.demos/src/XMC2GoBlinky/etrice.XMC2GoBlinky.demo/src-gen-st/DaveInterface\PIO004.c **** }
 388              		.loc 1 48 0
 389 0020 BD46     		mov	sp, r7
 390 0022 02B0     		add	sp, sp, #8
 391              		@ sp needed for prologue
 392 0024 80BD     		pop	{r7, pc}
 393              		.cfi_endproc
 394              	.LFE40:
 396 0026 C046     		.section	.text.PIO004ConjPort_enableOutputBuffer,"ax",%progbits
 397              		.align	2
 398              		.global	PIO004ConjPort_enableOutputBuffer
 399              		.code	16
 400              		.thumb_func
 402              	PIO004ConjPort_enableOutputBuffer:
 403              	.LFB41:
  49:C:/data/workspaces/github/de.protos.demos/src/XMC2GoBlinky/etrice.XMC2GoBlinky.demo/src-gen-st/DaveInterface\PIO004.c **** void PIO004ConjPort_enableOutputBuffer(PIO004ConjPort* self, IO004_InputModeType mode) {
 404              		.loc 1 49 0
 405              		.cfi_startproc
 406 0000 80B5     		push	{r7, lr}
 407              	.LCFI24:
 408              		.cfi_def_cfa_offset 8
 409              		.cfi_offset 7, -8
 410              		.cfi_offset 14, -4
 411 0002 82B0     		sub	sp, sp, #8
 412              	.LCFI25:
 413              		.cfi_def_cfa_offset 16
 414 0004 00AF     		add	r7, sp, #0
 415              	.LCFI26:
 416              		.cfi_def_cfa_register 7
 417 0006 7860     		str	r0, [r7, #4]
 418 0008 0A1C     		mov	r2, r1
 419 000a FB1C     		add	r3, r7, #3
 420 000c 1A70     		strb	r2, [r3]
  50:C:/data/workspaces/github/de.protos.demos/src/XMC2GoBlinky/etrice.XMC2GoBlinky.demo/src-gen-st/DaveInterface\PIO004.c **** 	IO004_EnableOutputDriver(&Handle,mode);
 421              		.loc 1 50 0
 422 000e 7B68     		ldr	r3, [r7, #4]
 423 0010 1B68     		ldr	r3, [r3]
 424 0012 1A1C     		mov	r2, r3
 425 0014 FB1C     		add	r3, r7, #3
 426 0016 1B78     		ldrb	r3, [r3]
 427 0018 101C     		mov	r0, r2
 428 001a 191C     		mov	r1, r3
 429 001c FFF7FEFF 		bl	IO004_EnableOutputDriver
  51:C:/data/workspaces/github/de.protos.demos/src/XMC2GoBlinky/etrice.XMC2GoBlinky.demo/src-gen-st/DaveInterface\PIO004.c **** }
 430              		.loc 1 51 0
 431 0020 BD46     		mov	sp, r7
 432 0022 02B0     		add	sp, sp, #8
 433              		@ sp needed for prologue
 434 0024 80BD     		pop	{r7, pc}
 435              		.cfi_endproc
 436              	.LFE41:
 438 0026 C046     		.section	.text.PIO004ConjReplPort_getReplication,"ax",%progbits
 439              		.align	2
 440              		.global	PIO004ConjReplPort_getReplication
 441              		.code	16
 442              		.thumb_func
 444              	PIO004ConjReplPort_getReplication:
 445              	.LFB42:
  52:C:/data/workspaces/github/de.protos.demos/src/XMC2GoBlinky/etrice.XMC2GoBlinky.demo/src-gen-st/DaveInterface\PIO004.c **** /* end PIO004ConjPort specific */
  53:C:/data/workspaces/github/de.protos.demos/src/XMC2GoBlinky/etrice.XMC2GoBlinky.demo/src-gen-st/DaveInterface\PIO004.c **** 
  54:C:/data/workspaces/github/de.protos.demos/src/XMC2GoBlinky/etrice.XMC2GoBlinky.demo/src-gen-st/DaveInterface\PIO004.c **** etInt32 PIO004ConjReplPort_getReplication(const PIO004ConjReplPort* self) {
 446              		.loc 1 54 0
 447              		.cfi_startproc
 448 0000 80B5     		push	{r7, lr}
 449              	.LCFI27:
 450              		.cfi_def_cfa_offset 8
 451              		.cfi_offset 7, -8
 452              		.cfi_offset 14, -4
 453 0002 82B0     		sub	sp, sp, #8
 454              	.LCFI28:
 455              		.cfi_def_cfa_offset 16
 456 0004 00AF     		add	r7, sp, #0
 457              	.LCFI29:
 458              		.cfi_def_cfa_register 7
 459 0006 7860     		str	r0, [r7, #4]
  55:C:/data/workspaces/github/de.protos.demos/src/XMC2GoBlinky/etrice.XMC2GoBlinky.demo/src-gen-st/DaveInterface\PIO004.c **** 	return ((etReplPort*)self)->size;
 460              		.loc 1 55 0
 461 0008 7B68     		ldr	r3, [r7, #4]
 462 000a 1B88     		ldrh	r3, [r3]
 463 000c 1BB2     		sxth	r3, r3
  56:C:/data/workspaces/github/de.protos.demos/src/XMC2GoBlinky/etrice.XMC2GoBlinky.demo/src-gen-st/DaveInterface\PIO004.c **** }
 464              		.loc 1 56 0
 465 000e 181C     		mov	r0, r3
 466 0010 BD46     		mov	sp, r7
 467 0012 02B0     		add	sp, sp, #8
 468              		@ sp needed for prologue
 469 0014 80BD     		pop	{r7, pc}
 470              		.cfi_endproc
 471              	.LFE42:
 473 0016 C046     		.text
 474              	.Letext0:
 475              		.file 2 "C:\\data\\workspaces\\github\\de.protos.demos\\src\\XMC2GoBlinky\\etrice.runtime.c\\eTric
 476              		.file 3 "C:\\data\\workspaces\\github\\de.protos.demos\\src\\XMC2GoBlinky\\etrice.runtime.c\\eTric
 477              		.file 4 "C:\\data\\workspaces\\github\\de.protos.demos\\src\\XMC2GoBlinky\\etrice.runtime.c\\eTric
 478              		.file 5 "C:\\data\\workspaces\\github\\de.protos.demos\\src\\XMC2GoBlinky\\etrice.runtime.c\\eTric
 479              		.file 6 "C:\\data\\workspaces\\github\\de.protos.demos\\src\\XMC2GoBlinky\\etrice.runtime.c\\eTric
 480              		.file 7 "C:\\data\\workspaces\\github\\de.protos.demos\\src\\XMC2GoBlinky\\etrice.runtime.c\\eTric
 481              		.file 8 "C:\\data\\workspaces\\github\\de.protos.demos\\src\\XMC2GoBlinky\\etrice.runtime.c\\eTric
 482              		.file 9 "C:\\data\\workspaces\\github\\de.protos.demos\\src\\XMC2GoBlinky\\etrice.runtime.c\\eTric
 483              		.file 10 "C:\\data\\workspaces\\github\\de.protos.demos\\src\\XMC2GoBlinky\\etrice.runtime.c\\eTri
 484              		.file 11 "C:\\data\\workspaces\\github\\de.protos.demos\\src\\XMC2GoBlinky\\etrice.runtime.c\\eTri
 485              		.file 12 "C:\\data\\workspaces\\github\\de.protos.demos\\src\\XMC2GoBlinky\\etrice.runtime.c\\eTri
 486              		.file 13 "c:\\dave-3.1.10\\arm-gcc\\bin\\../lib/gcc/arm-none-eabi/4.7.4/../../../../arm-none-eabi/
 487              		.file 14 "C:\\data\\workspaces\\github\\de.protos.demos\\src\\XMC2GoBlinky\\XMC2GoBlinkyST\\Dave\\
 488              		.file 15 "C:/data/workspaces/github/de.protos.demos/src/XMC2GoBlinky/etrice.XMC2GoBlinky.demo/src-
 489              		.file 16 "C:\\data\\workspaces\\github\\de.protos.demos\\src\\XMC2GoBlinky\\XMC2GoBlinkyST\\Dave\\